
touch.elf：     文件格式 elf32-littlearm


Disassembly of section .text:

87800000 <_start>:
87800000:	e59ff120 	ldr	pc, [pc, #288]	; 87800128 <FIQ_Handler+0x8>
87800004:	e59ff120 	ldr	pc, [pc, #288]	; 8780012c <FIQ_Handler+0xc>
87800008:	e59ff120 	ldr	pc, [pc, #288]	; 87800130 <FIQ_Handler+0x10>
8780000c:	e59ff120 	ldr	pc, [pc, #288]	; 87800134 <FIQ_Handler+0x14>
87800010:	e59ff120 	ldr	pc, [pc, #288]	; 87800138 <FIQ_Handler+0x18>
87800014:	e59ff120 	ldr	pc, [pc, #288]	; 8780013c <FIQ_Handler+0x1c>
87800018:	e59ff120 	ldr	pc, [pc, #288]	; 87800140 <FIQ_Handler+0x20>
8780001c:	e59ff120 	ldr	pc, [pc, #288]	; 87800144 <FIQ_Handler+0x24>

87800020 <Reset_Handler>:
87800020:	f10c0080 	cpsid	i
87800024:	ee110f10 	mrc	15, 0, r0, cr1, cr0, {0}
87800028:	e3c00a01 	bic	r0, r0, #4096	; 0x1000
8780002c:	e3c00b02 	bic	r0, r0, #2048	; 0x800
87800030:	e3c00004 	bic	r0, r0, #4
87800034:	e3c00002 	bic	r0, r0, #2
87800038:	e3c00001 	bic	r0, r0, #1
8780003c:	ee010f10 	mcr	15, 0, r0, cr1, cr0, {0}

87800040 <_bss_start>:
87800040:	878092c4 	strhi	r9, [r0, r4, asr #5]

87800044 <_bss_end>:
87800044:	8780a040 	strhi	sl, [r0, r0, asr #32]
87800048:	e51f0010 	ldr	r0, [pc, #-16]	; 87800040 <_bss_start>
8780004c:	e51f1010 	ldr	r1, [pc, #-16]	; 87800044 <_bss_end>
87800050:	e3a02000 	mov	r2, #0

87800054 <bss_loop>:
87800054:	e8a00004 	stmia	r0!, {r2}
87800058:	e1500001 	cmp	r0, r1
8780005c:	dafffffc 	ble	87800054 <bss_loop>
87800060:	e10f0000 	mrs	r0, CPSR
87800064:	e3c0001f 	bic	r0, r0, #31
87800068:	e3800012 	orr	r0, r0, #18
8780006c:	e129f000 	msr	CPSR_fc, r0
87800070:	e59fd0d0 	ldr	sp, [pc, #208]	; 87800148 <FIQ_Handler+0x28>
87800074:	e10f0000 	mrs	r0, CPSR
87800078:	e3c0001f 	bic	r0, r0, #31
8780007c:	e380001f 	orr	r0, r0, #31
87800080:	e129f000 	msr	CPSR_fc, r0
87800084:	e59fd0c0 	ldr	sp, [pc, #192]	; 8780014c <FIQ_Handler+0x2c>
87800088:	e10f0000 	mrs	r0, CPSR
8780008c:	e3c0001f 	bic	r0, r0, #31
87800090:	e3800013 	orr	r0, r0, #19
87800094:	e129f000 	msr	CPSR_fc, r0
87800098:	e59fd0b0 	ldr	sp, [pc, #176]	; 87800150 <FIQ_Handler+0x30>
8780009c:	f1080080 	cpsie	i
878000a0:	ea0011e2 	b	87804830 <__main_from_arm>

878000a4 <Undefined_Handler>:
878000a4:	e59f0080 	ldr	r0, [pc, #128]	; 8780012c <FIQ_Handler+0xc>
878000a8:	e12fff10 	bx	r0

878000ac <SVC_Handler>:
878000ac:	e59f007c 	ldr	r0, [pc, #124]	; 87800130 <FIQ_Handler+0x10>
878000b0:	e12fff10 	bx	r0

878000b4 <PreAbort_Handler>:
878000b4:	e59f0078 	ldr	r0, [pc, #120]	; 87800134 <FIQ_Handler+0x14>
878000b8:	e12fff10 	bx	r0

878000bc <DataAbort_Handler>:
878000bc:	e59f0074 	ldr	r0, [pc, #116]	; 87800138 <FIQ_Handler+0x18>
878000c0:	e12fff10 	bx	r0

878000c4 <NotUsed_Handler>:
878000c4:	e59f0070 	ldr	r0, [pc, #112]	; 8780013c <FIQ_Handler+0x1c>
878000c8:	e12fff10 	bx	r0

878000cc <IRQ_Handler>:
878000cc:	e52de004 	push	{lr}		; (str lr, [sp, #-4]!)
878000d0:	e92d100f 	push	{r0, r1, r2, r3, ip}
878000d4:	e14f0000 	mrs	r0, SPSR
878000d8:	e52d0004 	push	{r0}		; (str r0, [sp, #-4]!)
878000dc:	ee9f1f10 	mrc	15, 4, r1, cr15, cr0, {0}
878000e0:	e2811a02 	add	r1, r1, #8192	; 0x2000
878000e4:	e591000c 	ldr	r0, [r1, #12]
878000e8:	e92d0003 	push	{r0, r1}
878000ec:	f1020013 	cps	#19
878000f0:	e52de004 	push	{lr}		; (str lr, [sp, #-4]!)
878000f4:	e59f2058 	ldr	r2, [pc, #88]	; 87800154 <FIQ_Handler+0x34>
878000f8:	e12fff32 	blx	r2
878000fc:	e49de004 	pop	{lr}		; (ldr lr, [sp], #4)
87800100:	f1020012 	cps	#18
87800104:	e8bd0003 	pop	{r0, r1}
87800108:	e5810010 	str	r0, [r1, #16]
8780010c:	e49d0004 	pop	{r0}		; (ldr r0, [sp], #4)
87800110:	e16ff000 	msr	SPSR_fsxc, r0
87800114:	e8bd100f 	pop	{r0, r1, r2, r3, ip}
87800118:	e49de004 	pop	{lr}		; (ldr lr, [sp], #4)
8780011c:	e25ef004 	subs	pc, lr, #4

87800120 <FIQ_Handler>:
87800120:	e59f001c 	ldr	r0, [pc, #28]	; 87800144 <FIQ_Handler+0x24>
87800124:	e12fff10 	bx	r0
87800128:	87800020 	strhi	r0, [r0, r0, lsr #32]
8780012c:	878000a4 	strhi	r0, [r0, r4, lsr #1]
87800130:	878000ac 	strhi	r0, [r0, ip, lsr #1]
87800134:	878000b4 			; <UNDEFINED> instruction: 0x878000b4
87800138:	878000bc 			; <UNDEFINED> instruction: 0x878000bc
8780013c:	878000c4 	strhi	r0, [r0, r4, asr #1]
87800140:	878000cc 	strhi	r0, [r0, ip, asr #1]
87800144:	87800120 	strhi	r0, [r0, r0, lsr #2]
87800148:	80600000 	rsbhi	r0, r0, r0
8780014c:	80400000 	subhi	r0, r0, r0
87800150:	80200000 	eorhi	r0, r0, r0
87800154:	87800901 	strhi	r0, [r0, r1, lsl #18]
87800158:	00001e41 	andeq	r1, r0, r1, asr #28
8780015c:	61656100 	cmnvs	r5, r0, lsl #2
87800160:	01006962 	tsteq	r0, r2, ror #18
87800164:	00000014 	andeq	r0, r0, r4, lsl r0
87800168:	412d3705 	teqmi	sp, r5, lsl #14
8780016c:	070a0600 	streq	r0, [sl, -r0, lsl #12]
87800170:	09010841 	stmdbeq	r1, {r0, r6, fp}
87800174:	00040a02 	andeq	r0, r4, r2, lsl #20
	...

87800180 <__umodsi3>:
87800180:	e2512001 	subs	r2, r1, #1
87800184:	3a000062 	bcc	87800314 <Ldiv0>
87800188:	11500001 	cmpne	r0, r1
8780018c:	03a00000 	moveq	r0, #0
87800190:	81110002 	tsthi	r1, r2
87800194:	00000002 	andeq	r0, r0, r2
87800198:	91a0f00e 	movls	pc, lr
8780019c:	e3a02000 	mov	r2, #0
878001a0:	e3510201 	cmp	r1, #268435456	; 0x10000000
878001a4:	31510000 	cmpcc	r1, r0
878001a8:	31a01201 	lslcc	r1, r1, #4
878001ac:	32822004 	addcc	r2, r2, #4
878001b0:	3afffffa 	bcc	878001a0 <__umodsi3+0x20>
878001b4:	e3510102 	cmp	r1, #-2147483648	; 0x80000000
878001b8:	31510000 	cmpcc	r1, r0
878001bc:	31a01081 	lslcc	r1, r1, #1
878001c0:	32822001 	addcc	r2, r2, #1
878001c4:	3afffffa 	bcc	878001b4 <__umodsi3+0x34>
878001c8:	e2522003 	subs	r2, r2, #3
878001cc:	ba00000e 	blt	8780020c <__umodsi3+0x8c>
878001d0:	e1500001 	cmp	r0, r1
878001d4:	20400001 	subcs	r0, r0, r1
878001d8:	e15000a1 	cmp	r0, r1, lsr #1
878001dc:	204000a1 	subcs	r0, r0, r1, lsr #1
878001e0:	e1500121 	cmp	r0, r1, lsr #2
878001e4:	20400121 	subcs	r0, r0, r1, lsr #2
878001e8:	e15001a1 	cmp	r0, r1, lsr #3
878001ec:	204001a1 	subcs	r0, r0, r1, lsr #3
878001f0:	e3500001 	cmp	r0, #1
878001f4:	e1a01221 	lsr	r1, r1, #4
878001f8:	a2522004 	subsge	r2, r2, #4
878001fc:	aafffff3 	bge	878001d0 <__umodsi3+0x50>
87800200:	e3120003 	tst	r2, #3
87800204:	13300000 	teqne	r0, #0
87800208:	0a00000a 	beq	87800238 <__umodsi3+0xb8>
8780020c:	e3720002 	cmn	r2, #2
87800210:	ba000006 	blt	87800230 <__umodsi3+0xb0>
87800214:	0a000002 	beq	87800224 <__umodsi3+0xa4>
87800218:	e1500001 	cmp	r0, r1
8780021c:	20400001 	subcs	r0, r0, r1
87800220:	e1a010a1 	lsr	r1, r1, #1
87800224:	e1500001 	cmp	r0, r1
87800228:	20400001 	subcs	r0, r0, r1
8780022c:	e1a010a1 	lsr	r1, r1, #1
87800230:	e1500001 	cmp	r0, r1
87800234:	20400001 	subcs	r0, r0, r1
87800238:	e1a0f00e 	mov	pc, lr
8780023c:	90909090 	umullsls	r9, r0, r0, r0

87800240 <__modsi3>:
87800240:	e3510000 	cmp	r1, #0
87800244:	0a000032 	beq	87800314 <Ldiv0>
87800248:	42611000 	rsbmi	r1, r1, #0
8780024c:	e1b0c000 	movs	ip, r0
87800250:	42600000 	rsbmi	r0, r0, #0
87800254:	e2512001 	subs	r2, r1, #1
87800258:	11500001 	cmpne	r0, r1
8780025c:	03a00000 	moveq	r0, #0
87800260:	81110002 	tsthi	r1, r2
87800264:	00000002 	andeq	r0, r0, r2
87800268:	9a000026 	bls	87800308 <__modsi3+0xc8>
8780026c:	e3a02000 	mov	r2, #0
87800270:	e3510201 	cmp	r1, #268435456	; 0x10000000
87800274:	31510000 	cmpcc	r1, r0
87800278:	31a01201 	lslcc	r1, r1, #4
8780027c:	32822004 	addcc	r2, r2, #4
87800280:	3afffffa 	bcc	87800270 <__modsi3+0x30>
87800284:	e3510102 	cmp	r1, #-2147483648	; 0x80000000
87800288:	31510000 	cmpcc	r1, r0
8780028c:	31a01081 	lslcc	r1, r1, #1
87800290:	32822001 	addcc	r2, r2, #1
87800294:	3afffffa 	bcc	87800284 <__modsi3+0x44>
87800298:	e2522003 	subs	r2, r2, #3
8780029c:	ba00000e 	blt	878002dc <__modsi3+0x9c>
878002a0:	e1500001 	cmp	r0, r1
878002a4:	20400001 	subcs	r0, r0, r1
878002a8:	e15000a1 	cmp	r0, r1, lsr #1
878002ac:	204000a1 	subcs	r0, r0, r1, lsr #1
878002b0:	e1500121 	cmp	r0, r1, lsr #2
878002b4:	20400121 	subcs	r0, r0, r1, lsr #2
878002b8:	e15001a1 	cmp	r0, r1, lsr #3
878002bc:	204001a1 	subcs	r0, r0, r1, lsr #3
878002c0:	e3500001 	cmp	r0, #1
878002c4:	e1a01221 	lsr	r1, r1, #4
878002c8:	a2522004 	subsge	r2, r2, #4
878002cc:	aafffff3 	bge	878002a0 <__modsi3+0x60>
878002d0:	e3120003 	tst	r2, #3
878002d4:	13300000 	teqne	r0, #0
878002d8:	0a00000a 	beq	87800308 <__modsi3+0xc8>
878002dc:	e3720002 	cmn	r2, #2
878002e0:	ba000006 	blt	87800300 <__modsi3+0xc0>
878002e4:	0a000002 	beq	878002f4 <__modsi3+0xb4>
878002e8:	e1500001 	cmp	r0, r1
878002ec:	20400001 	subcs	r0, r0, r1
878002f0:	e1a010a1 	lsr	r1, r1, #1
878002f4:	e1500001 	cmp	r0, r1
878002f8:	20400001 	subcs	r0, r0, r1
878002fc:	e1a010a1 	lsr	r1, r1, #1
87800300:	e1500001 	cmp	r0, r1
87800304:	20400001 	subcs	r0, r0, r1
87800308:	e35c0000 	cmp	ip, #0
8780030c:	42600000 	rsbmi	r0, r0, #0
87800310:	e1a0f00e 	mov	pc, lr

87800314 <Ldiv0>:
87800314:	e52de004 	push	{lr}		; (str lr, [sp, #-4]!)
87800318:	e3a00000 	mov	r0, #0
8780031c:	e49df004 	pop	{pc}		; (ldr pc, [sp], #4)

87800320 <imx6ul_hardfpu_enable>:
87800320:	ee11 3f50 	mrc	15, 0, r3, cr1, cr0, {2}
87800324:	f023 4340 	bic.w	r3, r3, #3221225472	; 0xc0000000
87800328:	f423 0370 	bic.w	r3, r3, #15728640	; 0xf00000
8780032c:	f443 0370 	orr.w	r3, r3, #15728640	; 0xf00000
87800330:	ee01 3f50 	mcr	15, 0, r3, cr1, cr0, {2}
87800334:	eef8 3a10 	vmrs	r3, fpexc
87800338:	f043 4380 	orr.w	r3, r3, #1073741824	; 0x40000000
8780033c:	eee8 3a10 	vmsr	fpexc, r3
87800340:	4770      	bx	lr
87800342:	bf00      	nop

87800344 <lcd_draw_bigpoint>:
87800344:	b5f8      	push	{r3, r4, r5, r6, r7, lr}
87800346:	f649 74cc 	movw	r4, #40908	; 0x9fcc
8780034a:	f2c8 7480 	movt	r4, #34688	; 0x8780
8780034e:	4606      	mov	r6, r0
87800350:	460d      	mov	r5, r1
87800352:	4617      	mov	r7, r2
87800354:	f001 fb9e 	bl	87801a94 <lcd_drawpoint>
87800358:	8863      	ldrh	r3, [r4, #2]
8780035a:	3b01      	subs	r3, #1
8780035c:	429e      	cmp	r6, r3
8780035e:	db08      	blt.n	87800372 <lcd_draw_bigpoint+0x2e>
87800360:	8823      	ldrh	r3, [r4, #0]
87800362:	f649 74cc 	movw	r4, #40908	; 0x9fcc
87800366:	f2c8 7480 	movt	r4, #34688	; 0x8780
8780036a:	3b01      	subs	r3, #1
8780036c:	429d      	cmp	r5, r3
8780036e:	db07      	blt.n	87800380 <lcd_draw_bigpoint+0x3c>
87800370:	bdf8      	pop	{r3, r4, r5, r6, r7, pc}
87800372:	1c70      	adds	r0, r6, #1
87800374:	463a      	mov	r2, r7
87800376:	b280      	uxth	r0, r0
87800378:	4629      	mov	r1, r5
8780037a:	f001 fb8b 	bl	87801a94 <lcd_drawpoint>
8780037e:	e7ef      	b.n	87800360 <lcd_draw_bigpoint+0x1c>
87800380:	1e69      	subs	r1, r5, #1
87800382:	463a      	mov	r2, r7
87800384:	b289      	uxth	r1, r1
87800386:	4630      	mov	r0, r6
87800388:	f001 fb84 	bl	87801a94 <lcd_drawpoint>
8780038c:	8863      	ldrh	r3, [r4, #2]
8780038e:	3b01      	subs	r3, #1
87800390:	429e      	cmp	r6, r3
87800392:	daed      	bge.n	87800370 <lcd_draw_bigpoint+0x2c>
87800394:	8823      	ldrh	r3, [r4, #0]
87800396:	3b01      	subs	r3, #1
87800398:	429d      	cmp	r5, r3
8780039a:	dae9      	bge.n	87800370 <lcd_draw_bigpoint+0x2c>
8780039c:	1c69      	adds	r1, r5, #1
8780039e:	1c70      	adds	r0, r6, #1
878003a0:	463a      	mov	r2, r7
878003a2:	b289      	uxth	r1, r1
878003a4:	b280      	uxth	r0, r0
878003a6:	e8bd 40f8 	ldmia.w	sp!, {r3, r4, r5, r6, r7, lr}
878003aa:	f001 bb73 	b.w	87801a94 <lcd_drawpoint>
878003ae:	bf00      	nop

878003b0 <clk_enable>:
878003b0:	f44f 4380 	mov.w	r3, #16384	; 0x4000
878003b4:	f04f 32ff 	mov.w	r2, #4294967295	; 0xffffffff
878003b8:	f2c0 230c 	movt	r3, #524	; 0x20c
878003bc:	669a      	str	r2, [r3, #104]	; 0x68
878003be:	66da      	str	r2, [r3, #108]	; 0x6c
878003c0:	671a      	str	r2, [r3, #112]	; 0x70
878003c2:	675a      	str	r2, [r3, #116]	; 0x74
878003c4:	679a      	str	r2, [r3, #120]	; 0x78
878003c6:	67da      	str	r2, [r3, #124]	; 0x7c
878003c8:	f8c3 2080 	str.w	r2, [r3, #128]	; 0x80
878003cc:	4770      	bx	lr
878003ce:	bf00      	nop

878003d0 <imx6u_clkinit>:
878003d0:	f44f 4380 	mov.w	r3, #16384	; 0x4000
878003d4:	b430      	push	{r4, r5}
878003d6:	f2c0 230c 	movt	r3, #524	; 0x20c
878003da:	68da      	ldr	r2, [r3, #12]
878003dc:	0751      	lsls	r1, r2, #29
878003de:	d407      	bmi.n	878003f0 <imx6u_clkinit+0x20>
878003e0:	68da      	ldr	r2, [r3, #12]
878003e2:	f422 7280 	bic.w	r2, r2, #256	; 0x100
878003e6:	60da      	str	r2, [r3, #12]
878003e8:	68da      	ldr	r2, [r3, #12]
878003ea:	f042 0204 	orr.w	r2, r2, #4
878003ee:	60da      	str	r2, [r3, #12]
878003f0:	f44f 4200 	mov.w	r2, #32768	; 0x8000
878003f4:	f44f 4380 	mov.w	r3, #16384	; 0x4000
878003f8:	f2c0 230c 	movt	r3, #524	; 0x20c
878003fc:	f2c0 220c 	movt	r2, #524	; 0x20c
87800400:	f242 0058 	movw	r0, #8280	; 0x2058
87800404:	2101      	movs	r1, #1
87800406:	6010      	str	r0, [r2, #0]
87800408:	f241 041b 	movw	r4, #4123	; 0x101b
8780040c:	6119      	str	r1, [r3, #16]
8780040e:	f2c2 0418 	movt	r4, #8216	; 0x2018
87800412:	68dd      	ldr	r5, [r3, #12]
87800414:	f241 001b 	movw	r0, #4123	; 0x101b
87800418:	f2c1 3018 	movt	r0, #4888	; 0x1318
8780041c:	4619      	mov	r1, r3
8780041e:	f025 0504 	bic.w	r5, r5, #4
87800422:	60dd      	str	r5, [r3, #12]
87800424:	f8d2 5100 	ldr.w	r5, [r2, #256]	; 0x100
87800428:	f005 35c0 	and.w	r5, r5, #3233857728	; 0xc0c0c0c0
8780042c:	432c      	orrs	r4, r5
8780042e:	f8c2 4100 	str.w	r4, [r2, #256]	; 0x100
87800432:	f8d2 40f0 	ldr.w	r4, [r2, #240]	; 0xf0
87800436:	f004 34c0 	and.w	r4, r4, #3233857728	; 0xc0c0c0c0
8780043a:	4320      	orrs	r0, r4
8780043c:	f8c2 00f0 	str.w	r0, [r2, #240]	; 0xf0
87800440:	699a      	ldr	r2, [r3, #24]
87800442:	f422 2240 	bic.w	r2, r2, #786432	; 0xc0000
87800446:	619a      	str	r2, [r3, #24]
87800448:	699a      	ldr	r2, [r3, #24]
8780044a:	f442 2280 	orr.w	r2, r2, #262144	; 0x40000
8780044e:	619a      	str	r2, [r3, #24]
87800450:	695a      	ldr	r2, [r3, #20]
87800452:	f022 7200 	bic.w	r2, r2, #33554432	; 0x2000000
87800456:	615a      	str	r2, [r3, #20]
87800458:	6c8a      	ldr	r2, [r1, #72]	; 0x48
8780045a:	f44f 4380 	mov.w	r3, #16384	; 0x4000
8780045e:	f2c0 230c 	movt	r3, #524	; 0x20c
87800462:	0692      	lsls	r2, r2, #26
87800464:	d4f8      	bmi.n	87800458 <imx6u_clkinit+0x88>
87800466:	695a      	ldr	r2, [r3, #20]
87800468:	bc30      	pop	{r4, r5}
8780046a:	f422 7240 	bic.w	r2, r2, #768	; 0x300
8780046e:	615a      	str	r2, [r3, #20]
87800470:	695a      	ldr	r2, [r3, #20]
87800472:	f442 7280 	orr.w	r2, r2, #256	; 0x100
87800476:	615a      	str	r2, [r3, #20]
87800478:	69da      	ldr	r2, [r3, #28]
8780047a:	f022 0240 	bic.w	r2, r2, #64	; 0x40
8780047e:	61da      	str	r2, [r3, #28]
87800480:	69da      	ldr	r2, [r3, #28]
87800482:	f022 023f 	bic.w	r2, r2, #63	; 0x3f
87800486:	61da      	str	r2, [r3, #28]
87800488:	6a5a      	ldr	r2, [r3, #36]	; 0x24
8780048a:	f022 0240 	bic.w	r2, r2, #64	; 0x40
8780048e:	625a      	str	r2, [r3, #36]	; 0x24
87800490:	6a5a      	ldr	r2, [r3, #36]	; 0x24
87800492:	f022 023f 	bic.w	r2, r2, #63	; 0x3f
87800496:	625a      	str	r2, [r3, #36]	; 0x24
87800498:	6b9a      	ldr	r2, [r3, #56]	; 0x38
8780049a:	f422 2280 	bic.w	r2, r2, #262144	; 0x40000
8780049e:	639a      	str	r2, [r3, #56]	; 0x38
878004a0:	6b9a      	ldr	r2, [r3, #56]	; 0x38
878004a2:	f022 72fc 	bic.w	r2, r2, #33030144	; 0x1f80000
878004a6:	639a      	str	r2, [r3, #56]	; 0x38
878004a8:	4770      	bx	lr
878004aa:	bf00      	nop

878004ac <led_init>:
878004ac:	2168      	movs	r1, #104	; 0x68
878004ae:	f44f 723d 	mov.w	r2, #756	; 0x2f4
878004b2:	f44f 4340 	mov.w	r3, #49152	; 0xc000
878004b6:	b430      	push	{r4, r5}
878004b8:	f2c0 2309 	movt	r3, #521	; 0x209
878004bc:	2505      	movs	r5, #5
878004be:	f2c0 220e 	movt	r2, #526	; 0x20e
878004c2:	f241 04b0 	movw	r4, #4272	; 0x10b0
878004c6:	2008      	movs	r0, #8
878004c8:	f2c0 210e 	movt	r1, #526	; 0x20e
878004cc:	600d      	str	r5, [r1, #0]
878004ce:	6014      	str	r4, [r2, #0]
878004d0:	6058      	str	r0, [r3, #4]
878004d2:	681a      	ldr	r2, [r3, #0]
878004d4:	bc30      	pop	{r4, r5}
878004d6:	4302      	orrs	r2, r0
878004d8:	601a      	str	r2, [r3, #0]
878004da:	4770      	bx	lr

878004dc <led_on>:
878004dc:	f44f 4340 	mov.w	r3, #49152	; 0xc000
878004e0:	f2c0 2309 	movt	r3, #521	; 0x209
878004e4:	681a      	ldr	r2, [r3, #0]
878004e6:	f022 0208 	bic.w	r2, r2, #8
878004ea:	601a      	str	r2, [r3, #0]
878004ec:	4770      	bx	lr
878004ee:	bf00      	nop

878004f0 <led_off>:
878004f0:	f44f 4340 	mov.w	r3, #49152	; 0xc000
878004f4:	f2c0 2309 	movt	r3, #521	; 0x209
878004f8:	681a      	ldr	r2, [r3, #0]
878004fa:	f042 0208 	orr.w	r2, r2, #8
878004fe:	601a      	str	r2, [r3, #0]
87800500:	4770      	bx	lr
87800502:	bf00      	nop

87800504 <led_switch>:
87800504:	b950      	cbnz	r0, 8780051c <led_switch+0x18>
87800506:	2901      	cmp	r1, #1
87800508:	d009      	beq.n	8780051e <led_switch+0x1a>
8780050a:	b939      	cbnz	r1, 8780051c <led_switch+0x18>
8780050c:	f44f 4340 	mov.w	r3, #49152	; 0xc000
87800510:	f2c0 2309 	movt	r3, #521	; 0x209
87800514:	681a      	ldr	r2, [r3, #0]
87800516:	f042 0208 	orr.w	r2, r2, #8
8780051a:	601a      	str	r2, [r3, #0]
8780051c:	4770      	bx	lr
8780051e:	f44f 4340 	mov.w	r3, #49152	; 0xc000
87800522:	f2c0 2309 	movt	r3, #521	; 0x209
87800526:	681a      	ldr	r2, [r3, #0]
87800528:	f022 0208 	bic.w	r2, r2, #8
8780052c:	601a      	str	r2, [r3, #0]
8780052e:	4770      	bx	lr

87800530 <delay_init>:
87800530:	f44f 4300 	mov.w	r3, #32768	; 0x8000
87800534:	2000      	movs	r0, #0
87800536:	f2c0 2309 	movt	r3, #521	; 0x209
8780053a:	f44f 4200 	mov.w	r2, #32768	; 0x8000
8780053e:	4619      	mov	r1, r3
87800540:	6018      	str	r0, [r3, #0]
87800542:	601a      	str	r2, [r3, #0]
87800544:	680a      	ldr	r2, [r1, #0]
87800546:	f44f 4300 	mov.w	r3, #32768	; 0x8000
8780054a:	f2c0 2309 	movt	r3, #521	; 0x209
8780054e:	0412      	lsls	r2, r2, #16
87800550:	d4f8      	bmi.n	87800544 <delay_init+0x14>
87800552:	f04f 32ff 	mov.w	r2, #4294967295	; 0xffffffff
87800556:	2042      	movs	r0, #66	; 0x42
87800558:	2141      	movs	r1, #65	; 0x41
8780055a:	6018      	str	r0, [r3, #0]
8780055c:	6059      	str	r1, [r3, #4]
8780055e:	611a      	str	r2, [r3, #16]
87800560:	681a      	ldr	r2, [r3, #0]
87800562:	f042 0201 	orr.w	r2, r2, #1
87800566:	601a      	str	r2, [r3, #0]
87800568:	4770      	bx	lr
8780056a:	bf00      	nop

8780056c <delay_us>:
8780056c:	f44f 4100 	mov.w	r1, #32768	; 0x8000
87800570:	b430      	push	{r4, r5}
87800572:	f2c0 2109 	movt	r1, #521	; 0x209
87800576:	2400      	movs	r4, #0
87800578:	6a4a      	ldr	r2, [r1, #36]	; 0x24
8780057a:	6a4b      	ldr	r3, [r1, #36]	; 0x24
8780057c:	4293      	cmp	r3, r2
8780057e:	d0fc      	beq.n	8780057a <delay_us+0xe>
87800580:	1e65      	subs	r5, r4, #1
87800582:	429a      	cmp	r2, r3
87800584:	eba4 0402 	sub.w	r4, r4, r2
87800588:	eba5 0502 	sub.w	r5, r5, r2
8780058c:	bf34      	ite	cc
8780058e:	18e4      	addcc	r4, r4, r3
87800590:	18ec      	addcs	r4, r5, r3
87800592:	4284      	cmp	r4, r0
87800594:	461a      	mov	r2, r3
87800596:	d3f0      	bcc.n	8780057a <delay_us+0xe>
87800598:	bc30      	pop	{r4, r5}
8780059a:	4770      	bx	lr

8780059c <delay_ms>:
8780059c:	b1d8      	cbz	r0, 878005d6 <delay_ms+0x3a>
8780059e:	f44f 4100 	mov.w	r1, #32768	; 0x8000
878005a2:	b470      	push	{r4, r5, r6}
878005a4:	f2c0 2109 	movt	r1, #521	; 0x209
878005a8:	2600      	movs	r6, #0
878005aa:	2400      	movs	r4, #0
878005ac:	6a4a      	ldr	r2, [r1, #36]	; 0x24
878005ae:	6a4b      	ldr	r3, [r1, #36]	; 0x24
878005b0:	4293      	cmp	r3, r2
878005b2:	d0fc      	beq.n	878005ae <delay_ms+0x12>
878005b4:	1e65      	subs	r5, r4, #1
878005b6:	429a      	cmp	r2, r3
878005b8:	eba4 0402 	sub.w	r4, r4, r2
878005bc:	eba5 0502 	sub.w	r5, r5, r2
878005c0:	bf34      	ite	cc
878005c2:	18e4      	addcc	r4, r4, r3
878005c4:	18ec      	addcs	r4, r5, r3
878005c6:	f5b4 7f7a 	cmp.w	r4, #1000	; 0x3e8
878005ca:	461a      	mov	r2, r3
878005cc:	d3ef      	bcc.n	878005ae <delay_ms+0x12>
878005ce:	3601      	adds	r6, #1
878005d0:	4286      	cmp	r6, r0
878005d2:	d1ea      	bne.n	878005aa <delay_ms+0xe>
878005d4:	bc70      	pop	{r4, r5, r6}
878005d6:	4770      	bx	lr

878005d8 <delay_short>:
878005d8:	b082      	sub	sp, #8
878005da:	9001      	str	r0, [sp, #4]
878005dc:	9b01      	ldr	r3, [sp, #4]
878005de:	1e5a      	subs	r2, r3, #1
878005e0:	9201      	str	r2, [sp, #4]
878005e2:	2b00      	cmp	r3, #0
878005e4:	d1fa      	bne.n	878005dc <delay_short+0x4>
878005e6:	b002      	add	sp, #8
878005e8:	4770      	bx	lr
878005ea:	bf00      	nop

878005ec <delay>:
878005ec:	b082      	sub	sp, #8
878005ee:	9001      	str	r0, [sp, #4]
878005f0:	9b01      	ldr	r3, [sp, #4]
878005f2:	1e5a      	subs	r2, r3, #1
878005f4:	9201      	str	r2, [sp, #4]
878005f6:	b153      	cbz	r3, 8780060e <delay+0x22>
878005f8:	f240 73ff 	movw	r3, #2047	; 0x7ff
878005fc:	461a      	mov	r2, r3
878005fe:	3b01      	subs	r3, #1
87800600:	2a00      	cmp	r2, #0
87800602:	d1fb      	bne.n	878005fc <delay+0x10>
87800604:	9b01      	ldr	r3, [sp, #4]
87800606:	1e5a      	subs	r2, r3, #1
87800608:	9201      	str	r2, [sp, #4]
8780060a:	2b00      	cmp	r3, #0
8780060c:	d1f4      	bne.n	878005f8 <delay+0xc>
8780060e:	b002      	add	sp, #8
87800610:	4770      	bx	lr
87800612:	bf00      	nop

87800614 <beep_init>:
87800614:	210c      	movs	r1, #12
87800616:	2250      	movs	r2, #80	; 0x50
87800618:	b530      	push	{r4, r5, lr}
8780061a:	2301      	movs	r3, #1
8780061c:	b085      	sub	sp, #20
8780061e:	f2c0 2129 	movt	r1, #553	; 0x229
87800622:	2505      	movs	r5, #5
87800624:	f2c0 2229 	movt	r2, #553	; 0x229
87800628:	f241 04b0 	movw	r4, #4272	; 0x10b0
8780062c:	f44f 4040 	mov.w	r0, #49152	; 0xc000
87800630:	600d      	str	r5, [r1, #0]
87800632:	f2c0 200a 	movt	r0, #522	; 0x20a
87800636:	6014      	str	r4, [r2, #0]
87800638:	4619      	mov	r1, r3
8780063a:	aa01      	add	r2, sp, #4
8780063c:	9301      	str	r3, [sp, #4]
8780063e:	f88d 3008 	strb.w	r3, [sp, #8]
87800642:	f000 f8d3 	bl	878007ec <gpio_init>
87800646:	b005      	add	sp, #20
87800648:	bd30      	pop	{r4, r5, pc}
8780064a:	bf00      	nop

8780064c <beep_switch>:
8780064c:	2801      	cmp	r0, #1
8780064e:	4601      	mov	r1, r0
87800650:	d009      	beq.n	87800666 <beep_switch+0x1a>
87800652:	b100      	cbz	r0, 87800656 <beep_switch+0xa>
87800654:	4770      	bx	lr
87800656:	2201      	movs	r2, #1
87800658:	f44f 4040 	mov.w	r0, #49152	; 0xc000
8780065c:	4611      	mov	r1, r2
8780065e:	f2c0 200a 	movt	r0, #522	; 0x20a
87800662:	f000 b859 	b.w	87800718 <gpio_pinwrite>
87800666:	f44f 4040 	mov.w	r0, #49152	; 0xc000
8780066a:	2200      	movs	r2, #0
8780066c:	f2c0 200a 	movt	r0, #522	; 0x20a
87800670:	f000 b852 	b.w	87800718 <gpio_pinwrite>

87800674 <key_init>:
87800674:	b570      	push	{r4, r5, r6, lr}
87800676:	218c      	movs	r1, #140	; 0x8c
87800678:	b084      	sub	sp, #16
8780067a:	f44f 7346 	mov.w	r3, #792	; 0x318
8780067e:	f2c0 230e 	movt	r3, #526	; 0x20e
87800682:	aa04      	add	r2, sp, #16
87800684:	f2c0 210e 	movt	r1, #526	; 0x20e
87800688:	2605      	movs	r6, #5
8780068a:	f24f 0580 	movw	r5, #61568	; 0xf080
8780068e:	2400      	movs	r4, #0
87800690:	f44f 4040 	mov.w	r0, #49152	; 0xc000
87800694:	600e      	str	r6, [r1, #0]
87800696:	f2c0 2009 	movt	r0, #521	; 0x209
8780069a:	601d      	str	r5, [r3, #0]
8780069c:	2112      	movs	r1, #18
8780069e:	f842 4d0c 	str.w	r4, [r2, #-12]!
878006a2:	f000 f8a3 	bl	878007ec <gpio_init>
878006a6:	b004      	add	sp, #16
878006a8:	bd70      	pop	{r4, r5, r6, pc}
878006aa:	bf00      	nop

878006ac <read_key>:
878006ac:	f44f 4040 	mov.w	r0, #49152	; 0xc000
878006b0:	2112      	movs	r1, #18
878006b2:	f2c0 2009 	movt	r0, #521	; 0x209
878006b6:	f000 b83d 	b.w	87800734 <gpio_pinread>
878006ba:	bf00      	nop

878006bc <key_getvalue>:
878006bc:	b538      	push	{r3, r4, r5, lr}
878006be:	f249 14c0 	movw	r4, #37312	; 0x91c0
878006c2:	f2c8 7480 	movt	r4, #34688	; 0x8780
878006c6:	7823      	ldrb	r3, [r4, #0]
878006c8:	2b01      	cmp	r3, #1
878006ca:	d00b      	beq.n	878006e4 <key_getvalue+0x28>
878006cc:	f44f 4040 	mov.w	r0, #49152	; 0xc000
878006d0:	2112      	movs	r1, #18
878006d2:	f2c0 2009 	movt	r0, #521	; 0x209
878006d6:	f000 f82d 	bl	87800734 <gpio_pinread>
878006da:	2801      	cmp	r0, #1
878006dc:	bf08      	it	eq
878006de:	7020      	strbeq	r0, [r4, #0]
878006e0:	2000      	movs	r0, #0
878006e2:	bd38      	pop	{r3, r4, r5, pc}
878006e4:	f44f 4040 	mov.w	r0, #49152	; 0xc000
878006e8:	2112      	movs	r1, #18
878006ea:	f2c0 2009 	movt	r0, #521	; 0x209
878006ee:	f000 f821 	bl	87800734 <gpio_pinread>
878006f2:	4605      	mov	r5, r0
878006f4:	2800      	cmp	r0, #0
878006f6:	d1e9      	bne.n	878006cc <key_getvalue+0x10>
878006f8:	200a      	movs	r0, #10
878006fa:	f7ff ff77 	bl	878005ec <delay>
878006fe:	f44f 4040 	mov.w	r0, #49152	; 0xc000
87800702:	2112      	movs	r1, #18
87800704:	f2c0 2009 	movt	r0, #521	; 0x209
87800708:	7025      	strb	r5, [r4, #0]
8780070a:	f000 f813 	bl	87800734 <gpio_pinread>
8780070e:	fab0 f080 	clz	r0, r0
87800712:	0940      	lsrs	r0, r0, #5
87800714:	bd38      	pop	{r3, r4, r5, pc}
87800716:	bf00      	nop

87800718 <gpio_pinwrite>:
87800718:	2301      	movs	r3, #1
8780071a:	b122      	cbz	r2, 87800726 <gpio_pinwrite+0xe>
8780071c:	6802      	ldr	r2, [r0, #0]
8780071e:	408b      	lsls	r3, r1
87800720:	4313      	orrs	r3, r2
87800722:	6003      	str	r3, [r0, #0]
87800724:	4770      	bx	lr
87800726:	6802      	ldr	r2, [r0, #0]
87800728:	408b      	lsls	r3, r1
8780072a:	ea22 0303 	bic.w	r3, r2, r3
8780072e:	6003      	str	r3, [r0, #0]
87800730:	4770      	bx	lr
87800732:	bf00      	nop

87800734 <gpio_pinread>:
87800734:	6800      	ldr	r0, [r0, #0]
87800736:	40c8      	lsrs	r0, r1
87800738:	f000 0001 	and.w	r0, r0, #1
8780073c:	4770      	bx	lr
8780073e:	bf00      	nop

87800740 <gpio_enableint>:
87800740:	6943      	ldr	r3, [r0, #20]
87800742:	2201      	movs	r2, #1
87800744:	408a      	lsls	r2, r1
87800746:	4313      	orrs	r3, r2
87800748:	6143      	str	r3, [r0, #20]
8780074a:	4770      	bx	lr

8780074c <gpio_disablenint>:
8780074c:	6943      	ldr	r3, [r0, #20]
8780074e:	2201      	movs	r2, #1
87800750:	408a      	lsls	r2, r1
87800752:	ea23 0302 	bic.w	r3, r3, r2
87800756:	6143      	str	r3, [r0, #20]
87800758:	4770      	bx	lr
8780075a:	bf00      	nop

8780075c <gpio_clearintflags>:
8780075c:	6983      	ldr	r3, [r0, #24]
8780075e:	2201      	movs	r2, #1
87800760:	408a      	lsls	r2, r1
87800762:	4313      	orrs	r3, r2
87800764:	6183      	str	r3, [r0, #24]
87800766:	4770      	bx	lr

87800768 <gpio_intconfig>:
87800768:	b510      	push	{r4, lr}
8780076a:	2301      	movs	r3, #1
8780076c:	69c4      	ldr	r4, [r0, #28]
8780076e:	408b      	lsls	r3, r1
87800770:	290f      	cmp	r1, #15
87800772:	f102 32ff 	add.w	r2, r2, #4294967295	; 0xffffffff
87800776:	bf88      	it	hi
87800778:	3910      	subhi	r1, #16
8780077a:	ea24 0403 	bic.w	r4, r4, r3
8780077e:	61c4      	str	r4, [r0, #28]
87800780:	bf94      	ite	ls
87800782:	f100 040c 	addls.w	r4, r0, #12
87800786:	f100 0410 	addhi.w	r4, r0, #16
8780078a:	2a04      	cmp	r2, #4
8780078c:	d807      	bhi.n	8780079e <gpio_intconfig+0x36>
8780078e:	e8df f002 	tbb	[pc, r2]
87800792:	211c0f07 	tstcs	ip, r7, lsl #30
87800796:	69c20003 	stmibvs	r2, {r0, r1}^
8780079a:	4313      	orrs	r3, r2
8780079c:	61c3      	str	r3, [r0, #28]
8780079e:	bd10      	pop	{r4, pc}
878007a0:	0049      	lsls	r1, r1, #1
878007a2:	6822      	ldr	r2, [r4, #0]
878007a4:	2303      	movs	r3, #3
878007a6:	408b      	lsls	r3, r1
878007a8:	ea22 0303 	bic.w	r3, r2, r3
878007ac:	6023      	str	r3, [r4, #0]
878007ae:	bd10      	pop	{r4, pc}
878007b0:	6820      	ldr	r0, [r4, #0]
878007b2:	0049      	lsls	r1, r1, #1
878007b4:	2203      	movs	r2, #3
878007b6:	2301      	movs	r3, #1
878007b8:	408a      	lsls	r2, r1
878007ba:	408b      	lsls	r3, r1
878007bc:	ea20 0202 	bic.w	r2, r0, r2
878007c0:	6022      	str	r2, [r4, #0]
878007c2:	6822      	ldr	r2, [r4, #0]
878007c4:	4313      	orrs	r3, r2
878007c6:	6023      	str	r3, [r4, #0]
878007c8:	bd10      	pop	{r4, pc}
878007ca:	0049      	lsls	r1, r1, #1
878007cc:	2203      	movs	r2, #3
878007ce:	6820      	ldr	r0, [r4, #0]
878007d0:	2302      	movs	r3, #2
878007d2:	e7f1      	b.n	878007b8 <gpio_intconfig+0x50>
878007d4:	0049      	lsls	r1, r1, #1
878007d6:	6822      	ldr	r2, [r4, #0]
878007d8:	2303      	movs	r3, #3
878007da:	408b      	lsls	r3, r1
878007dc:	ea22 0203 	bic.w	r2, r2, r3
878007e0:	6022      	str	r2, [r4, #0]
878007e2:	6822      	ldr	r2, [r4, #0]
878007e4:	4313      	orrs	r3, r2
878007e6:	6023      	str	r3, [r4, #0]
878007e8:	bd10      	pop	{r4, pc}
878007ea:	bf00      	nop

878007ec <gpio_init>:
878007ec:	6813      	ldr	r3, [r2, #0]
878007ee:	b410      	push	{r4}
878007f0:	b173      	cbz	r3, 87800810 <gpio_init+0x24>
878007f2:	6844      	ldr	r4, [r0, #4]
878007f4:	2301      	movs	r3, #1
878007f6:	408b      	lsls	r3, r1
878007f8:	431c      	orrs	r4, r3
878007fa:	6044      	str	r4, [r0, #4]
878007fc:	7914      	ldrb	r4, [r2, #4]
878007fe:	b194      	cbz	r4, 87800826 <gpio_init+0x3a>
87800800:	6804      	ldr	r4, [r0, #0]
87800802:	6892      	ldr	r2, [r2, #8]
87800804:	4323      	orrs	r3, r4
87800806:	f85d 4b04 	ldr.w	r4, [sp], #4
8780080a:	6003      	str	r3, [r0, #0]
8780080c:	f7ff bfac 	b.w	87800768 <gpio_intconfig>
87800810:	6844      	ldr	r4, [r0, #4]
87800812:	2301      	movs	r3, #1
87800814:	408b      	lsls	r3, r1
87800816:	6892      	ldr	r2, [r2, #8]
87800818:	ea24 0303 	bic.w	r3, r4, r3
8780081c:	f85d 4b04 	ldr.w	r4, [sp], #4
87800820:	6043      	str	r3, [r0, #4]
87800822:	f7ff bfa1 	b.w	87800768 <gpio_intconfig>
87800826:	6804      	ldr	r4, [r0, #0]
87800828:	6892      	ldr	r2, [r2, #8]
8780082a:	ea24 0303 	bic.w	r3, r4, r3
8780082e:	f85d 4b04 	ldr.w	r4, [sp], #4
87800832:	6003      	str	r3, [r0, #0]
87800834:	f7ff bf98 	b.w	87800768 <gpio_intconfig>

87800838 <default_irqhandler>:
87800838:	e7fe      	b.n	87800838 <default_irqhandler>
8780083a:	bf00      	nop

8780083c <system_irqtable_init>:
8780083c:	b410      	push	{r4}
8780083e:	f640 0239 	movw	r2, #2105	; 0x839
87800842:	2400      	movs	r4, #0
87800844:	f249 23c4 	movw	r3, #37572	; 0x92c4
87800848:	4621      	mov	r1, r4
8780084a:	f2c8 7280 	movt	r2, #34688	; 0x8780
8780084e:	f2c8 7380 	movt	r3, #34688	; 0x8780
87800852:	f203 5004 	addw	r0, r3, #1284	; 0x504
87800856:	f843 4b04 	str.w	r4, [r3], #4
8780085a:	601a      	str	r2, [r3, #0]
8780085c:	3308      	adds	r3, #8
8780085e:	f843 1c04 	str.w	r1, [r3, #-4]
87800862:	4283      	cmp	r3, r0
87800864:	d1f9      	bne.n	8780085a <system_irqtable_init+0x1e>
87800866:	f85d 4b04 	ldr.w	r4, [sp], #4
8780086a:	4770      	bx	lr

8780086c <system_register_irqhandler>:
8780086c:	f249 23c4 	movw	r3, #37572	; 0x92c4
87800870:	f2c8 7380 	movt	r3, #34688	; 0x8780
87800874:	eb03 00c0 	add.w	r0, r3, r0, lsl #3
87800878:	6041      	str	r1, [r0, #4]
8780087a:	6082      	str	r2, [r0, #8]
8780087c:	4770      	bx	lr
8780087e:	bf00      	nop

87800880 <int_init>:
87800880:	b5f0      	push	{r4, r5, r6, r7, lr}
87800882:	ee9f 4f10 	mrc	15, 4, r4, cr15, cr0, {0}
87800886:	0c24      	lsrs	r4, r4, #16
87800888:	f241 0204 	movw	r2, #4100	; 0x1004
8780088c:	2300      	movs	r3, #0
8780088e:	0424      	lsls	r4, r4, #16
87800890:	f04f 30ff 	mov.w	r0, #4294967295	; 0xffffffff
87800894:	58a1      	ldr	r1, [r4, r2]
87800896:	f001 011f 	and.w	r1, r1, #31
8780089a:	3101      	adds	r1, #1
8780089c:	f503 628c 	add.w	r2, r3, #1120	; 0x460
878008a0:	3301      	adds	r3, #1
878008a2:	4299      	cmp	r1, r3
878008a4:	f844 0022 	str.w	r0, [r4, r2, lsl #2]
878008a8:	d1f8      	bne.n	8780089c <int_init+0x1c>
878008aa:	f242 0604 	movw	r6, #8196	; 0x2004
878008ae:	27f8      	movs	r7, #248	; 0xf8
878008b0:	f249 23c4 	movw	r3, #37572	; 0x92c4
878008b4:	f640 0239 	movw	r2, #2105	; 0x839
878008b8:	51a7      	str	r7, [r4, r6]
878008ba:	2500      	movs	r5, #0
878008bc:	f2c8 7380 	movt	r3, #34688	; 0x8780
878008c0:	f242 0708 	movw	r7, #8200	; 0x2008
878008c4:	f04f 0e02 	mov.w	lr, #2
878008c8:	f2c8 7280 	movt	r2, #34688	; 0x8780
878008cc:	f844 e007 	str.w	lr, [r4, r7]
878008d0:	f504 5680 	add.w	r6, r4, #4096	; 0x1000
878008d4:	f203 5004 	addw	r0, r3, #1284	; 0x504
878008d8:	4629      	mov	r1, r5
878008da:	f843 5b04 	str.w	r5, [r3], #4
878008de:	f504 5400 	add.w	r4, r4, #8192	; 0x2000
878008e2:	2501      	movs	r5, #1
878008e4:	6035      	str	r5, [r6, #0]
878008e6:	6025      	str	r5, [r4, #0]
878008e8:	601a      	str	r2, [r3, #0]
878008ea:	3308      	adds	r3, #8
878008ec:	f843 1c04 	str.w	r1, [r3, #-4]
878008f0:	4283      	cmp	r3, r0
878008f2:	d1f9      	bne.n	878008e8 <int_init+0x68>
878008f4:	2300      	movs	r3, #0
878008f6:	f2c8 7380 	movt	r3, #34688	; 0x8780
878008fa:	ee0c 3f10 	mcr	15, 0, r3, cr12, cr0, {0}
878008fe:	bdf0      	pop	{r4, r5, r6, r7, pc}

87800900 <system_irqhandler>:
87800900:	b538      	push	{r3, r4, r5, lr}
87800902:	f3c0 0309 	ubfx	r3, r0, #0, #10
87800906:	2b9f      	cmp	r3, #159	; 0x9f
87800908:	d80f      	bhi.n	8780092a <system_irqhandler+0x2a>
8780090a:	f249 24c4 	movw	r4, #37572	; 0x92c4
8780090e:	4618      	mov	r0, r3
87800910:	f2c8 7480 	movt	r4, #34688	; 0x8780
87800914:	6822      	ldr	r2, [r4, #0]
87800916:	eb04 03c3 	add.w	r3, r4, r3, lsl #3
8780091a:	685d      	ldr	r5, [r3, #4]
8780091c:	3201      	adds	r2, #1
8780091e:	6899      	ldr	r1, [r3, #8]
87800920:	6022      	str	r2, [r4, #0]
87800922:	47a8      	blx	r5
87800924:	6823      	ldr	r3, [r4, #0]
87800926:	3b01      	subs	r3, #1
87800928:	6023      	str	r3, [r4, #0]
8780092a:	bd38      	pop	{r3, r4, r5, pc}

8780092c <gpio1_io18_irqhandler>:
8780092c:	b508      	push	{r3, lr}
8780092e:	200a      	movs	r0, #10
87800930:	f7ff fe5c 	bl	878005ec <delay>
87800934:	f44f 4040 	mov.w	r0, #49152	; 0xc000
87800938:	2112      	movs	r1, #18
8780093a:	f2c0 2009 	movt	r0, #521	; 0x209
8780093e:	f7ff fef9 	bl	87800734 <gpio_pinread>
87800942:	b958      	cbnz	r0, 8780095c <gpio1_io18_irqhandler+0x30>
87800944:	f249 72c8 	movw	r2, #38856	; 0x97c8
87800948:	f2c8 7280 	movt	r2, #34688	; 0x8780
8780094c:	7813      	ldrb	r3, [r2, #0]
8780094e:	fab3 f383 	clz	r3, r3
87800952:	095b      	lsrs	r3, r3, #5
87800954:	4618      	mov	r0, r3
87800956:	7013      	strb	r3, [r2, #0]
87800958:	f7ff fe78 	bl	8780064c <beep_switch>
8780095c:	f44f 4040 	mov.w	r0, #49152	; 0xc000
87800960:	2112      	movs	r1, #18
87800962:	f2c0 2009 	movt	r0, #521	; 0x209
87800966:	e8bd 4008 	ldmia.w	sp!, {r3, lr}
8780096a:	f7ff bef7 	b.w	8780075c <gpio_clearintflags>
8780096e:	bf00      	nop

87800970 <exti_init>:
87800970:	228c      	movs	r2, #140	; 0x8c
87800972:	f44f 7346 	mov.w	r3, #792	; 0x318
87800976:	b570      	push	{r4, r5, r6, lr}
87800978:	f2c0 220e 	movt	r2, #526	; 0x20e
8780097c:	2005      	movs	r0, #5
8780097e:	f2c0 230e 	movt	r3, #526	; 0x20e
87800982:	f24f 0180 	movw	r1, #61568	; 0xf080
87800986:	f44f 4440 	mov.w	r4, #49152	; 0xc000
8780098a:	6010      	str	r0, [r2, #0]
8780098c:	b084      	sub	sp, #16
8780098e:	6019      	str	r1, [r3, #0]
87800990:	f2c0 2409 	movt	r4, #521	; 0x209
87800994:	2304      	movs	r3, #4
87800996:	4620      	mov	r0, r4
87800998:	2500      	movs	r5, #0
8780099a:	eb0d 0203 	add.w	r2, sp, r3
8780099e:	2112      	movs	r1, #18
878009a0:	9501      	str	r5, [sp, #4]
878009a2:	9303      	str	r3, [sp, #12]
878009a4:	f7ff ff22 	bl	878007ec <gpio_init>
878009a8:	ee9f 3f10 	mrc	15, 4, r3, cr15, cr0, {0}
878009ac:	0c1b      	lsrs	r3, r3, #16
878009ae:	f241 100c 	movw	r0, #4364	; 0x110c
878009b2:	2608      	movs	r6, #8
878009b4:	041b      	lsls	r3, r3, #16
878009b6:	f640 112d 	movw	r1, #2349	; 0x92d
878009ba:	462a      	mov	r2, r5
878009bc:	501e      	str	r6, [r3, r0]
878009be:	f2c8 7180 	movt	r1, #34688	; 0x8780
878009c2:	2063      	movs	r0, #99	; 0x63
878009c4:	f7ff ff52 	bl	8780086c <system_register_irqhandler>
878009c8:	4620      	mov	r0, r4
878009ca:	2112      	movs	r1, #18
878009cc:	f7ff feb8 	bl	87800740 <gpio_enableint>
878009d0:	b004      	add	sp, #16
878009d2:	bd70      	pop	{r4, r5, r6, pc}

878009d4 <epit1_irqhandler>:
878009d4:	b508      	push	{r3, lr}
878009d6:	f249 73c9 	movw	r3, #38857	; 0x97c9
878009da:	f2c8 7380 	movt	r3, #34688	; 0x8780
878009de:	2200      	movs	r2, #0
878009e0:	f2c0 220d 	movt	r2, #525	; 0x20d
878009e4:	7819      	ldrb	r1, [r3, #0]
878009e6:	fab1 f181 	clz	r1, r1
878009ea:	0949      	lsrs	r1, r1, #5
878009ec:	7019      	strb	r1, [r3, #0]
878009ee:	6853      	ldr	r3, [r2, #4]
878009f0:	07db      	lsls	r3, r3, #31
878009f2:	d502      	bpl.n	878009fa <epit1_irqhandler+0x26>
878009f4:	2000      	movs	r0, #0
878009f6:	f7ff fd85 	bl	87800504 <led_switch>
878009fa:	2300      	movs	r3, #0
878009fc:	f2c0 230d 	movt	r3, #525	; 0x20d
87800a00:	685a      	ldr	r2, [r3, #4]
87800a02:	f042 0201 	orr.w	r2, r2, #1
87800a06:	605a      	str	r2, [r3, #4]
87800a08:	bd08      	pop	{r3, pc}
87800a0a:	bf00      	nop

87800a0c <epit1_init>:
87800a0c:	b538      	push	{r3, r4, r5, lr}
87800a0e:	f640 73ff 	movw	r3, #4095	; 0xfff
87800a12:	4298      	cmp	r0, r3
87800a14:	f04f 0400 	mov.w	r4, #0
87800a18:	bf28      	it	cs
87800a1a:	4618      	movcs	r0, r3
87800a1c:	f2c0 240d 	movt	r4, #525	; 0x20d
87800a20:	0100      	lsls	r0, r0, #4
87800a22:	2200      	movs	r2, #0
87800a24:	6022      	str	r2, [r4, #0]
87800a26:	f040 7080 	orr.w	r0, r0, #16777216	; 0x1000000
87800a2a:	f040 000e 	orr.w	r0, r0, #14
87800a2e:	6020      	str	r0, [r4, #0]
87800a30:	60a1      	str	r1, [r4, #8]
87800a32:	60e2      	str	r2, [r4, #12]
87800a34:	ee9f 3f10 	mrc	15, 4, r3, cr15, cr0, {0}
87800a38:	0c1b      	lsrs	r3, r3, #16
87800a3a:	f241 1008 	movw	r0, #4360	; 0x1108
87800a3e:	f04f 7580 	mov.w	r5, #16777216	; 0x1000000
87800a42:	041b      	lsls	r3, r3, #16
87800a44:	f640 11d5 	movw	r1, #2517	; 0x9d5
87800a48:	f2c8 7180 	movt	r1, #34688	; 0x8780
87800a4c:	501d      	str	r5, [r3, r0]
87800a4e:	2058      	movs	r0, #88	; 0x58
87800a50:	f7ff ff0c 	bl	8780086c <system_register_irqhandler>
87800a54:	6823      	ldr	r3, [r4, #0]
87800a56:	f043 0301 	orr.w	r3, r3, #1
87800a5a:	6023      	str	r3, [r4, #0]
87800a5c:	bd38      	pop	{r3, r4, r5, pc}
87800a5e:	bf00      	nop

87800a60 <filtertimer_irqhandler>:
87800a60:	b508      	push	{r3, lr}
87800a62:	2300      	movs	r3, #0
87800a64:	f2c0 230d 	movt	r3, #525	; 0x20d
87800a68:	685a      	ldr	r2, [r3, #4]
87800a6a:	07d2      	lsls	r2, r2, #31
87800a6c:	d407      	bmi.n	87800a7e <filtertimer_irqhandler+0x1e>
87800a6e:	2300      	movs	r3, #0
87800a70:	f2c0 230d 	movt	r3, #525	; 0x20d
87800a74:	685a      	ldr	r2, [r3, #4]
87800a76:	f042 0201 	orr.w	r2, r2, #1
87800a7a:	605a      	str	r2, [r3, #4]
87800a7c:	bd08      	pop	{r3, pc}
87800a7e:	681a      	ldr	r2, [r3, #0]
87800a80:	f44f 4040 	mov.w	r0, #49152	; 0xc000
87800a84:	f2c0 2009 	movt	r0, #521	; 0x209
87800a88:	2112      	movs	r1, #18
87800a8a:	f022 0201 	bic.w	r2, r2, #1
87800a8e:	601a      	str	r2, [r3, #0]
87800a90:	f7ff fe50 	bl	87800734 <gpio_pinread>
87800a94:	2800      	cmp	r0, #0
87800a96:	d1ea      	bne.n	87800a6e <filtertimer_irqhandler+0xe>
87800a98:	f249 72ca 	movw	r2, #38858	; 0x97ca
87800a9c:	f2c8 7280 	movt	r2, #34688	; 0x8780
87800aa0:	7813      	ldrb	r3, [r2, #0]
87800aa2:	fab3 f383 	clz	r3, r3
87800aa6:	095b      	lsrs	r3, r3, #5
87800aa8:	4618      	mov	r0, r3
87800aaa:	7013      	strb	r3, [r2, #0]
87800aac:	f7ff fdce 	bl	8780064c <beep_switch>
87800ab0:	e7dd      	b.n	87800a6e <filtertimer_irqhandler+0xe>
87800ab2:	bf00      	nop

87800ab4 <gpio1_16_31_irqhandler>:
87800ab4:	2300      	movs	r3, #0
87800ab6:	b410      	push	{r4}
87800ab8:	f2c0 230d 	movt	r3, #525	; 0x20d
87800abc:	f44f 5491 	mov.w	r4, #4640	; 0x1220
87800ac0:	f2c0 040a 	movt	r4, #10
87800ac4:	f44f 4040 	mov.w	r0, #49152	; 0xc000
87800ac8:	681a      	ldr	r2, [r3, #0]
87800aca:	f2c0 2009 	movt	r0, #521	; 0x209
87800ace:	2112      	movs	r1, #18
87800ad0:	f022 0201 	bic.w	r2, r2, #1
87800ad4:	601a      	str	r2, [r3, #0]
87800ad6:	609c      	str	r4, [r3, #8]
87800ad8:	681a      	ldr	r2, [r3, #0]
87800ada:	f85d 4b04 	ldr.w	r4, [sp], #4
87800ade:	f042 0201 	orr.w	r2, r2, #1
87800ae2:	601a      	str	r2, [r3, #0]
87800ae4:	f7ff be3a 	b.w	8780075c <gpio_clearintflags>

87800ae8 <filtertimer_init>:
87800ae8:	2300      	movs	r3, #0
87800aea:	210e      	movs	r1, #14
87800aec:	f2c0 230d 	movt	r3, #525	; 0x20d
87800af0:	2200      	movs	r2, #0
87800af2:	f2c0 1100 	movt	r1, #256	; 0x100
87800af6:	b410      	push	{r4}
87800af8:	601a      	str	r2, [r3, #0]
87800afa:	6019      	str	r1, [r3, #0]
87800afc:	6098      	str	r0, [r3, #8]
87800afe:	60da      	str	r2, [r3, #12]
87800b00:	ee9f 3f10 	mrc	15, 4, r3, cr15, cr0, {0}
87800b04:	0c1b      	lsrs	r3, r3, #16
87800b06:	f241 1008 	movw	r0, #4360	; 0x1108
87800b0a:	f04f 7480 	mov.w	r4, #16777216	; 0x1000000
87800b0e:	041b      	lsls	r3, r3, #16
87800b10:	f640 2161 	movw	r1, #2657	; 0xa61
87800b14:	f2c8 7180 	movt	r1, #34688	; 0x8780
87800b18:	501c      	str	r4, [r3, r0]
87800b1a:	2058      	movs	r0, #88	; 0x58
87800b1c:	f85d 4b04 	ldr.w	r4, [sp], #4
87800b20:	f7ff bea4 	b.w	8780086c <system_register_irqhandler>

87800b24 <keyfilter_init>:
87800b24:	228c      	movs	r2, #140	; 0x8c
87800b26:	f44f 7346 	mov.w	r3, #792	; 0x318
87800b2a:	b570      	push	{r4, r5, r6, lr}
87800b2c:	f2c0 220e 	movt	r2, #526	; 0x20e
87800b30:	2005      	movs	r0, #5
87800b32:	f2c0 230e 	movt	r3, #526	; 0x20e
87800b36:	f24f 0180 	movw	r1, #61568	; 0xf080
87800b3a:	f44f 4440 	mov.w	r4, #49152	; 0xc000
87800b3e:	6010      	str	r0, [r2, #0]
87800b40:	b084      	sub	sp, #16
87800b42:	6019      	str	r1, [r3, #0]
87800b44:	f2c0 2409 	movt	r4, #521	; 0x209
87800b48:	2304      	movs	r3, #4
87800b4a:	4620      	mov	r0, r4
87800b4c:	2500      	movs	r5, #0
87800b4e:	eb0d 0203 	add.w	r2, sp, r3
87800b52:	2112      	movs	r1, #18
87800b54:	9501      	str	r5, [sp, #4]
87800b56:	9303      	str	r3, [sp, #12]
87800b58:	f7ff fe48 	bl	878007ec <gpio_init>
87800b5c:	ee9f 3f10 	mrc	15, 4, r3, cr15, cr0, {0}
87800b60:	0c1b      	lsrs	r3, r3, #16
87800b62:	f241 100c 	movw	r0, #4364	; 0x110c
87800b66:	2608      	movs	r6, #8
87800b68:	041b      	lsls	r3, r3, #16
87800b6a:	f640 21b5 	movw	r1, #2741	; 0xab5
87800b6e:	462a      	mov	r2, r5
87800b70:	501e      	str	r6, [r3, r0]
87800b72:	f2c8 7180 	movt	r1, #34688	; 0x8780
87800b76:	2063      	movs	r0, #99	; 0x63
87800b78:	f7ff fe78 	bl	8780086c <system_register_irqhandler>
87800b7c:	4620      	mov	r0, r4
87800b7e:	2112      	movs	r1, #18
87800b80:	f7ff fdde 	bl	87800740 <gpio_enableint>
87800b84:	f44f 5091 	mov.w	r0, #4640	; 0x1220
87800b88:	f2c0 000a 	movt	r0, #10
87800b8c:	f7ff ffac 	bl	87800ae8 <filtertimer_init>
87800b90:	b004      	add	sp, #16
87800b92:	bd70      	pop	{r4, r5, r6, pc}

87800b94 <filtertimer_stop>:
87800b94:	2300      	movs	r3, #0
87800b96:	f2c0 230d 	movt	r3, #525	; 0x20d
87800b9a:	681a      	ldr	r2, [r3, #0]
87800b9c:	f022 0201 	bic.w	r2, r2, #1
87800ba0:	601a      	str	r2, [r3, #0]
87800ba2:	4770      	bx	lr

87800ba4 <filtertimer_restart>:
87800ba4:	2300      	movs	r3, #0
87800ba6:	f2c0 230d 	movt	r3, #525	; 0x20d
87800baa:	681a      	ldr	r2, [r3, #0]
87800bac:	f022 0201 	bic.w	r2, r2, #1
87800bb0:	601a      	str	r2, [r3, #0]
87800bb2:	6098      	str	r0, [r3, #8]
87800bb4:	681a      	ldr	r2, [r3, #0]
87800bb6:	f042 0201 	orr.w	r2, r2, #1
87800bba:	601a      	str	r2, [r3, #0]
87800bbc:	4770      	bx	lr
87800bbe:	bf00      	nop

87800bc0 <uart_setbaudrate>:
87800bc0:	e92d 4ff0 	stmdb	sp!, {r4, r5, r6, r7, r8, r9, sl, fp, lr}
87800bc4:	010d      	lsls	r5, r1, #4
87800bc6:	b085      	sub	sp, #20
87800bc8:	460f      	mov	r7, r1
87800bca:	4682      	mov	sl, r0
87800bcc:	4691      	mov	r9, r2
87800bce:	f000 80f2 	beq.w	87800db6 <uart_setbaudrate+0x1f6>
87800bd2:	462c      	mov	r4, r5
87800bd4:	4610      	mov	r0, r2
87800bd6:	e000      	b.n	87800bda <uart_setbaudrate+0x1a>
87800bd8:	460c      	mov	r4, r1
87800bda:	4621      	mov	r1, r4
87800bdc:	f003 fd6e 	bl	878046bc <__aeabi_uidivmod>
87800be0:	4620      	mov	r0, r4
87800be2:	2900      	cmp	r1, #0
87800be4:	d1f8      	bne.n	87800bd8 <uart_setbaudrate+0x18>
87800be6:	4621      	mov	r1, r4
87800be8:	4648      	mov	r0, r9
87800bea:	f003 fc39 	bl	87804460 <__aeabi_uidiv>
87800bee:	4621      	mov	r1, r4
87800bf0:	4606      	mov	r6, r0
87800bf2:	4628      	mov	r0, r5
87800bf4:	f003 fc34 	bl	87804460 <__aeabi_uidiv>
87800bf8:	f64f 73f9 	movw	r3, #65529	; 0xfff9
87800bfc:	4605      	mov	r5, r0
87800bfe:	f2c0 0306 	movt	r3, #6
87800c02:	429e      	cmp	r6, r3
87800c04:	bf98      	it	ls
87800c06:	f5b0 3f80 	cmpls.w	r0, #65536	; 0x10000
87800c0a:	bf2c      	ite	cs
87800c0c:	2301      	movcs	r3, #1
87800c0e:	2300      	movcc	r3, #0
87800c10:	d278      	bcs.n	87800d04 <uart_setbaudrate+0x144>
87800c12:	f248 0101 	movw	r1, #32769	; 0x8001
87800c16:	1e72      	subs	r2, r6, #1
87800c18:	f2c8 0100 	movt	r1, #32768	; 0x8000
87800c1c:	9301      	str	r3, [sp, #4]
87800c1e:	fba2 2301 	umull	r2, r3, r2, r1
87800c22:	ea4f 1b06 	mov.w	fp, r6, lsl #4
87800c26:	4680      	mov	r8, r0
87800c28:	0bda      	lsrs	r2, r3, #15
87800c2a:	1e53      	subs	r3, r2, #1
87800c2c:	3201      	adds	r2, #1
87800c2e:	9203      	str	r2, [sp, #12]
87800c30:	2b05      	cmp	r3, #5
87800c32:	4648      	mov	r0, r9
87800c34:	bf96      	itet	ls
87800c36:	f644 12ac 	movwls	r2, #18860	; 0x49ac
87800c3a:	2305      	movhi	r3, #5
87800c3c:	f2c8 7280 	movtls	r2, #34688	; 0x8780
87800c40:	f04f 0100 	mov.w	r1, #0
87800c44:	bf98      	it	ls
87800c46:	f852 3023 	ldrls.w	r3, [r2, r3, lsl #2]
87800c4a:	9302      	str	r3, [sp, #8]
87800c4c:	f1bb 0f00 	cmp.w	fp, #0
87800c50:	f000 80af 	beq.w	87800db2 <uart_setbaudrate+0x1f2>
87800c54:	465c      	mov	r4, fp
87800c56:	e000      	b.n	87800c5a <uart_setbaudrate+0x9a>
87800c58:	4614      	mov	r4, r2
87800c5a:	4622      	mov	r2, r4
87800c5c:	2300      	movs	r3, #0
87800c5e:	f003 fd3b 	bl	878046d8 <__aeabi_uldivmod>
87800c62:	4620      	mov	r0, r4
87800c64:	2100      	movs	r1, #0
87800c66:	2a00      	cmp	r2, #0
87800c68:	d1f6      	bne.n	87800c58 <uart_setbaudrate+0x98>
87800c6a:	4648      	mov	r0, r9
87800c6c:	4621      	mov	r1, r4
87800c6e:	f003 fbf7 	bl	87804460 <__aeabi_uidiv>
87800c72:	4603      	mov	r3, r0
87800c74:	9a01      	ldr	r2, [sp, #4]
87800c76:	fba3 8908 	umull	r8, r9, r3, r8
87800c7a:	4621      	mov	r1, r4
87800c7c:	4658      	mov	r0, fp
87800c7e:	fb03 9902 	mla	r9, r3, r2, r9
87800c82:	f003 fbed 	bl	87804460 <__aeabi_uidiv>
87800c86:	2300      	movs	r3, #0
87800c88:	4602      	mov	r2, r0
87800c8a:	4649      	mov	r1, r9
87800c8c:	4640      	mov	r0, r8
87800c8e:	f003 fd23 	bl	878046d8 <__aeabi_uldivmod>
87800c92:	2300      	movs	r3, #0
87800c94:	463a      	mov	r2, r7
87800c96:	4299      	cmp	r1, r3
87800c98:	bf08      	it	eq
87800c9a:	42b8      	cmpeq	r0, r7
87800c9c:	d32e      	bcc.n	87800cfc <uart_setbaudrate+0x13c>
87800c9e:	1a80      	subs	r0, r0, r2
87800ca0:	eb61 0103 	sbc.w	r1, r1, r3
87800ca4:	f248 521f 	movw	r2, #34079	; 0x851f
87800ca8:	f2c5 12eb 	movt	r2, #20971	; 0x51eb
87800cac:	fba7 2302 	umull	r2, r3, r7, r2
87800cb0:	095a      	lsrs	r2, r3, #5
87800cb2:	2300      	movs	r3, #0
87800cb4:	4299      	cmp	r1, r3
87800cb6:	eb02 0242 	add.w	r2, r2, r2, lsl #1
87800cba:	bf08      	it	eq
87800cbc:	4290      	cmpeq	r0, r2
87800cbe:	d21a      	bcs.n	87800cf6 <uart_setbaudrate+0x136>
87800cc0:	9b02      	ldr	r3, [sp, #8]
87800cc2:	3d01      	subs	r5, #1
87800cc4:	f8da 1090 	ldr.w	r1, [sl, #144]	; 0x90
87800cc8:	b2ad      	uxth	r5, r5
87800cca:	4630      	mov	r0, r6
87800ccc:	01db      	lsls	r3, r3, #7
87800cce:	f403 7260 	and.w	r2, r3, #896	; 0x380
87800cd2:	f421 7360 	bic.w	r3, r1, #896	; 0x380
87800cd6:	f8ca 3090 	str.w	r3, [sl, #144]	; 0x90
87800cda:	f8da 3090 	ldr.w	r3, [sl, #144]	; 0x90
87800cde:	9903      	ldr	r1, [sp, #12]
87800ce0:	4313      	orrs	r3, r2
87800ce2:	f8ca 3090 	str.w	r3, [sl, #144]	; 0x90
87800ce6:	f8ca 50a4 	str.w	r5, [sl, #164]	; 0xa4
87800cea:	f003 fbb9 	bl	87804460 <__aeabi_uidiv>
87800cee:	3801      	subs	r0, #1
87800cf0:	b280      	uxth	r0, r0
87800cf2:	f8ca 00a8 	str.w	r0, [sl, #168]	; 0xa8
87800cf6:	b005      	add	sp, #20
87800cf8:	e8bd 8ff0 	ldmia.w	sp!, {r4, r5, r6, r7, r8, r9, sl, fp, pc}
87800cfc:	1a10      	subs	r0, r2, r0
87800cfe:	eb63 0101 	sbc.w	r1, r3, r1
87800d02:	e7cf      	b.n	87800ca4 <uart_setbaudrate+0xe4>
87800d04:	f646 52b9 	movw	r2, #28089	; 0x6db9
87800d08:	1e71      	subs	r1, r6, #1
87800d0a:	f2c2 4293 	movt	r2, #9363	; 0x2493
87800d0e:	f248 0401 	movw	r4, #32769	; 0x8001
87800d12:	fba1 2302 	umull	r2, r3, r1, r2
87800d16:	f100 3bff 	add.w	fp, r0, #4294967295	; 0xffffffff
87800d1a:	f2c8 0400 	movt	r4, #32768	; 0x8000
87800d1e:	4630      	mov	r0, r6
87800d20:	fbab bc04 	umull	fp, ip, fp, r4
87800d24:	1ac9      	subs	r1, r1, r3
87800d26:	eb03 0351 	add.w	r3, r3, r1, lsr #1
87800d2a:	ea4f 38dc 	mov.w	r8, ip, lsr #15
87800d2e:	0c9b      	lsrs	r3, r3, #18
87800d30:	f108 0801 	add.w	r8, r8, #1
87800d34:	3301      	adds	r3, #1
87800d36:	4598      	cmp	r8, r3
87800d38:	bf38      	it	cc
87800d3a:	4698      	movcc	r8, r3
87800d3c:	4641      	mov	r1, r8
87800d3e:	f003 fb8f 	bl	87804460 <__aeabi_uidiv>
87800d42:	4606      	mov	r6, r0
87800d44:	4641      	mov	r1, r8
87800d46:	4628      	mov	r0, r5
87800d48:	f003 fb8a 	bl	87804460 <__aeabi_uidiv>
87800d4c:	4605      	mov	r5, r0
87800d4e:	b976      	cbnz	r6, 87800d6e <uart_setbaudrate+0x1ae>
87800d50:	bb40      	cbnz	r0, 87800da4 <uart_setbaudrate+0x1e4>
87800d52:	f04f 0801 	mov.w	r8, #1
87800d56:	2305      	movs	r3, #5
87800d58:	4601      	mov	r1, r0
87800d5a:	9001      	str	r0, [sp, #4]
87800d5c:	4646      	mov	r6, r8
87800d5e:	f8cd 800c 	str.w	r8, [sp, #12]
87800d62:	4645      	mov	r5, r8
87800d64:	4648      	mov	r0, r9
87800d66:	f04f 0b10 	mov.w	fp, #16
87800d6a:	9302      	str	r3, [sp, #8]
87800d6c:	e772      	b.n	87800c54 <uart_setbaudrate+0x94>
87800d6e:	1e72      	subs	r2, r6, #1
87800d70:	b158      	cbz	r0, 87800d8a <uart_setbaudrate+0x1ca>
87800d72:	fba2 2304 	umull	r2, r3, r2, r4
87800d76:	ea4f 1b06 	mov.w	fp, r6, lsl #4
87800d7a:	0bda      	lsrs	r2, r3, #15
87800d7c:	1e53      	subs	r3, r2, #1
87800d7e:	3201      	adds	r2, #1
87800d80:	9203      	str	r2, [sp, #12]
87800d82:	2200      	movs	r2, #0
87800d84:	46a8      	mov	r8, r5
87800d86:	9201      	str	r2, [sp, #4]
87800d88:	e752      	b.n	87800c30 <uart_setbaudrate+0x70>
87800d8a:	fba2 2304 	umull	r2, r3, r2, r4
87800d8e:	f04f 0801 	mov.w	r8, #1
87800d92:	9001      	str	r0, [sp, #4]
87800d94:	ea4f 1b06 	mov.w	fp, r6, lsl #4
87800d98:	4645      	mov	r5, r8
87800d9a:	0bda      	lsrs	r2, r3, #15
87800d9c:	1e53      	subs	r3, r2, #1
87800d9e:	4442      	add	r2, r8
87800da0:	9203      	str	r2, [sp, #12]
87800da2:	e745      	b.n	87800c30 <uart_setbaudrate+0x70>
87800da4:	2201      	movs	r2, #1
87800da6:	f04f 0b10 	mov.w	fp, #16
87800daa:	4616      	mov	r6, r2
87800dac:	f04f 33ff 	mov.w	r3, #4294967295	; 0xffffffff
87800db0:	e7e6      	b.n	87800d80 <uart_setbaudrate+0x1c0>
87800db2:	2401      	movs	r4, #1
87800db4:	e759      	b.n	87800c6a <uart_setbaudrate+0xaa>
87800db6:	2401      	movs	r4, #1
87800db8:	e715      	b.n	87800be6 <uart_setbaudrate+0x26>
87800dba:	bf00      	nop

87800dbc <uart_init>:
87800dbc:	b5f8      	push	{r3, r4, r5, r6, r7, lr}
87800dbe:	2300      	movs	r3, #0
87800dc0:	2484      	movs	r4, #132	; 0x84
87800dc2:	461e      	mov	r6, r3
87800dc4:	f2c0 240e 	movt	r4, #526	; 0x20e
87800dc8:	f240 6124 	movw	r1, #1572	; 0x624
87800dcc:	2288      	movs	r2, #136	; 0x88
87800dce:	f44f 7544 	mov.w	r5, #784	; 0x310
87800dd2:	f44f 7045 	mov.w	r0, #788	; 0x314
87800dd6:	6026      	str	r6, [r4, #0]
87800dd8:	f2c0 2302 	movt	r3, #514	; 0x202
87800ddc:	f2c0 210e 	movt	r1, #526	; 0x20e
87800de0:	f2c0 220e 	movt	r2, #526	; 0x20e
87800de4:	f241 04b0 	movw	r4, #4272	; 0x10b0
87800de8:	f2c0 250e 	movt	r5, #526	; 0x20e
87800dec:	f2c0 200e 	movt	r0, #526	; 0x20e
87800df0:	f04f 0e02 	mov.w	lr, #2
87800df4:	2703      	movs	r7, #3
87800df6:	f8c1 e000 	str.w	lr, [r1]
87800dfa:	6016      	str	r6, [r2, #0]
87800dfc:	461a      	mov	r2, r3
87800dfe:	600f      	str	r7, [r1, #0]
87800e00:	602c      	str	r4, [r5, #0]
87800e02:	6004      	str	r4, [r0, #0]
87800e04:	f8d3 1080 	ldr.w	r1, [r3, #128]	; 0x80
87800e08:	f021 0101 	bic.w	r1, r1, #1
87800e0c:	f8c3 1080 	str.w	r1, [r3, #128]	; 0x80
87800e10:	f8d3 1084 	ldr.w	r1, [r3, #132]	; 0x84
87800e14:	f021 0101 	bic.w	r1, r1, #1
87800e18:	f8c3 1084 	str.w	r1, [r3, #132]	; 0x84
87800e1c:	f8d2 3084 	ldr.w	r3, [r2, #132]	; 0x84
87800e20:	2400      	movs	r4, #0
87800e22:	f2c0 2402 	movt	r4, #514	; 0x202
87800e26:	07db      	lsls	r3, r3, #31
87800e28:	d5f8      	bpl.n	87800e1c <uart_init+0x60>
87800e2a:	2500      	movs	r5, #0
87800e2c:	f44f 4234 	mov.w	r2, #46080	; 0xb400
87800e30:	f8c4 5080 	str.w	r5, [r4, #128]	; 0x80
87800e34:	f2c0 42c4 	movt	r2, #1220	; 0x4c4
87800e38:	f8d4 3080 	ldr.w	r3, [r4, #128]	; 0x80
87800e3c:	f44f 31e1 	mov.w	r1, #115200	; 0x1c200
87800e40:	4620      	mov	r0, r4
87800e42:	f423 4380 	bic.w	r3, r3, #16384	; 0x4000
87800e46:	f8c4 3080 	str.w	r3, [r4, #128]	; 0x80
87800e4a:	f8c4 5084 	str.w	r5, [r4, #132]	; 0x84
87800e4e:	f8d4 3084 	ldr.w	r3, [r4, #132]	; 0x84
87800e52:	f443 4380 	orr.w	r3, r3, #16384	; 0x4000
87800e56:	f043 0326 	orr.w	r3, r3, #38	; 0x26
87800e5a:	f8c4 3084 	str.w	r3, [r4, #132]	; 0x84
87800e5e:	f8d4 3088 	ldr.w	r3, [r4, #136]	; 0x88
87800e62:	f043 0304 	orr.w	r3, r3, #4
87800e66:	f8c4 3088 	str.w	r3, [r4, #136]	; 0x88
87800e6a:	f7ff fea9 	bl	87800bc0 <uart_setbaudrate>
87800e6e:	f8d4 3080 	ldr.w	r3, [r4, #128]	; 0x80
87800e72:	f043 0301 	orr.w	r3, r3, #1
87800e76:	f8c4 3080 	str.w	r3, [r4, #128]	; 0x80
87800e7a:	bdf8      	pop	{r3, r4, r5, r6, r7, pc}

87800e7c <uart_disable>:
87800e7c:	f8d0 3080 	ldr.w	r3, [r0, #128]	; 0x80
87800e80:	f023 0301 	bic.w	r3, r3, #1
87800e84:	f8c0 3080 	str.w	r3, [r0, #128]	; 0x80
87800e88:	4770      	bx	lr
87800e8a:	bf00      	nop

87800e8c <uart_enable>:
87800e8c:	f8d0 3080 	ldr.w	r3, [r0, #128]	; 0x80
87800e90:	f043 0301 	orr.w	r3, r3, #1
87800e94:	f8c0 3080 	str.w	r3, [r0, #128]	; 0x80
87800e98:	4770      	bx	lr
87800e9a:	bf00      	nop

87800e9c <uart_softreset>:
87800e9c:	f8d0 3084 	ldr.w	r3, [r0, #132]	; 0x84
87800ea0:	f023 0301 	bic.w	r3, r3, #1
87800ea4:	f8c0 3084 	str.w	r3, [r0, #132]	; 0x84
87800ea8:	f8d0 3084 	ldr.w	r3, [r0, #132]	; 0x84
87800eac:	07db      	lsls	r3, r3, #31
87800eae:	d5fb      	bpl.n	87800ea8 <uart_softreset+0xc>
87800eb0:	4770      	bx	lr
87800eb2:	bf00      	nop

87800eb4 <uart_io_init>:
87800eb4:	2184      	movs	r1, #132	; 0x84
87800eb6:	b4f0      	push	{r4, r5, r6, r7}
87800eb8:	f2c0 210e 	movt	r1, #526	; 0x20e
87800ebc:	2500      	movs	r5, #0
87800ebe:	f240 6324 	movw	r3, #1572	; 0x624
87800ec2:	2488      	movs	r4, #136	; 0x88
87800ec4:	f44f 7044 	mov.w	r0, #784	; 0x310
87800ec8:	f44f 7245 	mov.w	r2, #788	; 0x314
87800ecc:	600d      	str	r5, [r1, #0]
87800ece:	f2c0 230e 	movt	r3, #526	; 0x20e
87800ed2:	2702      	movs	r7, #2
87800ed4:	f2c0 240e 	movt	r4, #526	; 0x20e
87800ed8:	2603      	movs	r6, #3
87800eda:	f241 01b0 	movw	r1, #4272	; 0x10b0
87800ede:	f2c0 200e 	movt	r0, #526	; 0x20e
87800ee2:	f2c0 220e 	movt	r2, #526	; 0x20e
87800ee6:	601f      	str	r7, [r3, #0]
87800ee8:	6025      	str	r5, [r4, #0]
87800eea:	601e      	str	r6, [r3, #0]
87800eec:	6001      	str	r1, [r0, #0]
87800eee:	bcf0      	pop	{r4, r5, r6, r7}
87800ef0:	6011      	str	r1, [r2, #0]
87800ef2:	4770      	bx	lr

87800ef4 <putc>:
87800ef4:	2100      	movs	r1, #0
87800ef6:	f2c0 2102 	movt	r1, #514	; 0x202
87800efa:	f8d1 2098 	ldr.w	r2, [r1, #152]	; 0x98
87800efe:	2300      	movs	r3, #0
87800f00:	f2c0 2302 	movt	r3, #514	; 0x202
87800f04:	0712      	lsls	r2, r2, #28
87800f06:	d5f8      	bpl.n	87800efa <putc+0x6>
87800f08:	6418      	str	r0, [r3, #64]	; 0x40
87800f0a:	4770      	bx	lr

87800f0c <getc>:
87800f0c:	2100      	movs	r1, #0
87800f0e:	f2c0 2102 	movt	r1, #514	; 0x202
87800f12:	f8d1 2098 	ldr.w	r2, [r1, #152]	; 0x98
87800f16:	2300      	movs	r3, #0
87800f18:	f2c0 2302 	movt	r3, #514	; 0x202
87800f1c:	07d2      	lsls	r2, r2, #31
87800f1e:	d5f8      	bpl.n	87800f12 <getc+0x6>
87800f20:	6818      	ldr	r0, [r3, #0]
87800f22:	b2c0      	uxtb	r0, r0
87800f24:	4770      	bx	lr
87800f26:	bf00      	nop

87800f28 <puts>:
87800f28:	7801      	ldrb	r1, [r0, #0]
87800f2a:	b179      	cbz	r1, 87800f4c <puts+0x24>
87800f2c:	2200      	movs	r2, #0
87800f2e:	b410      	push	{r4}
87800f30:	f2c0 2202 	movt	r2, #514	; 0x202
87800f34:	4614      	mov	r4, r2
87800f36:	f8d2 3098 	ldr.w	r3, [r2, #152]	; 0x98
87800f3a:	071b      	lsls	r3, r3, #28
87800f3c:	d5fb      	bpl.n	87800f36 <puts+0xe>
87800f3e:	6421      	str	r1, [r4, #64]	; 0x40
87800f40:	f810 1f01 	ldrb.w	r1, [r0, #1]!
87800f44:	2900      	cmp	r1, #0
87800f46:	d1f6      	bne.n	87800f36 <puts+0xe>
87800f48:	f85d 4b04 	ldr.w	r4, [sp], #4
87800f4c:	4770      	bx	lr
87800f4e:	bf00      	nop

87800f50 <raise>:
87800f50:	4770      	bx	lr
87800f52:	bf00      	nop

87800f54 <lcd_drawline>:
87800f54:	e92d 4ff0 	stmdb	sp!, {r4, r5, r6, r7, r8, r9, sl, fp, lr}
87800f58:	ebc0 0902 	rsb	r9, r0, r2
87800f5c:	f1b9 0f00 	cmp.w	r9, #0
87800f60:	b085      	sub	sp, #20
87800f62:	ebc1 0a03 	rsb	sl, r1, r3
87800f66:	bfc8      	it	gt
87800f68:	2301      	movgt	r3, #1
87800f6a:	4607      	mov	r7, r0
87800f6c:	4688      	mov	r8, r1
87800f6e:	bfc8      	it	gt
87800f70:	9302      	strgt	r3, [sp, #8]
87800f72:	dd33      	ble.n	87800fdc <lcd_drawline+0x88>
87800f74:	f1ba 0f00 	cmp.w	sl, #0
87800f78:	bfc4      	itt	gt
87800f7a:	2301      	movgt	r3, #1
87800f7c:	9303      	strgt	r3, [sp, #12]
87800f7e:	dd36      	ble.n	87800fee <lcd_drawline+0x9a>
87800f80:	2500      	movs	r5, #0
87800f82:	45ca      	cmp	sl, r9
87800f84:	46d3      	mov	fp, sl
87800f86:	f649 73cc 	movw	r3, #40908	; 0x9fcc
87800f8a:	bfb8      	it	lt
87800f8c:	46cb      	movlt	fp, r9
87800f8e:	462e      	mov	r6, r5
87800f90:	462c      	mov	r4, r5
87800f92:	f10b 0201 	add.w	r2, fp, #1
87800f96:	f2c8 7380 	movt	r3, #34688	; 0x8780
87800f9a:	9200      	str	r2, [sp, #0]
87800f9c:	9301      	str	r3, [sp, #4]
87800f9e:	9b01      	ldr	r3, [sp, #4]
87800fa0:	444e      	add	r6, r9
87800fa2:	fa1f f188 	uxth.w	r1, r8
87800fa6:	b2b8      	uxth	r0, r7
87800fa8:	699a      	ldr	r2, [r3, #24]
87800faa:	4455      	add	r5, sl
87800fac:	f000 fd72 	bl	87801a94 <lcd_drawpoint>
87800fb0:	455e      	cmp	r6, fp
87800fb2:	f104 0401 	add.w	r4, r4, #1
87800fb6:	bfc4      	itt	gt
87800fb8:	9b02      	ldrgt	r3, [sp, #8]
87800fba:	ebcb 0606 	rsbgt	r6, fp, r6
87800fbe:	b2a4      	uxth	r4, r4
87800fc0:	bfc8      	it	gt
87800fc2:	18ff      	addgt	r7, r7, r3
87800fc4:	455d      	cmp	r5, fp
87800fc6:	bfc2      	ittt	gt
87800fc8:	9b03      	ldrgt	r3, [sp, #12]
87800fca:	ebcb 0505 	rsbgt	r5, fp, r5
87800fce:	4498      	addgt	r8, r3
87800fd0:	9b00      	ldr	r3, [sp, #0]
87800fd2:	429c      	cmp	r4, r3
87800fd4:	dde3      	ble.n	87800f9e <lcd_drawline+0x4a>
87800fd6:	b005      	add	sp, #20
87800fd8:	e8bd 8ff0 	ldmia.w	sp!, {r4, r5, r6, r7, r8, r9, sl, fp, pc}
87800fdc:	bf1d      	ittte	ne
87800fde:	f04f 33ff 	movne.w	r3, #4294967295	; 0xffffffff
87800fe2:	f1c9 0900 	rsbne	r9, r9, #0
87800fe6:	9302      	strne	r3, [sp, #8]
87800fe8:	f8cd 9008 	streq.w	r9, [sp, #8]
87800fec:	e7c2      	b.n	87800f74 <lcd_drawline+0x20>
87800fee:	bf1d      	ittte	ne
87800ff0:	f04f 33ff 	movne.w	r3, #4294967295	; 0xffffffff
87800ff4:	f1ca 0a00 	rsbne	sl, sl, #0
87800ff8:	9303      	strne	r3, [sp, #12]
87800ffa:	f8cd a00c 	streq.w	sl, [sp, #12]
87800ffe:	e7bf      	b.n	87800f80 <lcd_drawline+0x2c>

87801000 <lcd_draw_rectangle>:
87801000:	e92d 41f0 	stmdb	sp!, {r4, r5, r6, r7, r8, lr}
87801004:	461c      	mov	r4, r3
87801006:	4606      	mov	r6, r0
87801008:	460d      	mov	r5, r1
8780100a:	460b      	mov	r3, r1
8780100c:	4617      	mov	r7, r2
8780100e:	f7ff ffa1 	bl	87800f54 <lcd_drawline>
87801012:	4623      	mov	r3, r4
87801014:	4632      	mov	r2, r6
87801016:	4629      	mov	r1, r5
87801018:	4630      	mov	r0, r6
8780101a:	f7ff ff9b 	bl	87800f54 <lcd_drawline>
8780101e:	4623      	mov	r3, r4
87801020:	463a      	mov	r2, r7
87801022:	4621      	mov	r1, r4
87801024:	4630      	mov	r0, r6
87801026:	f7ff ff95 	bl	87800f54 <lcd_drawline>
8780102a:	4623      	mov	r3, r4
8780102c:	463a      	mov	r2, r7
8780102e:	4629      	mov	r1, r5
87801030:	4638      	mov	r0, r7
87801032:	e8bd 41f0 	ldmia.w	sp!, {r4, r5, r6, r7, r8, lr}
87801036:	f7ff bf8d 	b.w	87800f54 <lcd_drawline>
8780103a:	bf00      	nop

8780103c <lcd_draw_Circle>:
8780103c:	4613      	mov	r3, r2
8780103e:	e92d 4ff0 	stmdb	sp!, {r4, r5, r6, r7, r8, r9, sl, fp, lr}
87801042:	f1c2 0201 	rsb	r2, r2, #1
87801046:	b085      	sub	sp, #20
87801048:	9000      	str	r0, [sp, #0]
8780104a:	9201      	str	r2, [sp, #4]
8780104c:	2b00      	cmp	r3, #0
8780104e:	d066      	beq.n	8780111e <lcd_draw_Circle+0xe2>
87801050:	f649 76cc 	movw	r6, #40908	; 0x9fcc
87801054:	2700      	movs	r7, #0
87801056:	f2c8 7680 	movt	r6, #34688	; 0x8780
8780105a:	468b      	mov	fp, r1
8780105c:	b29d      	uxth	r5, r3
8780105e:	9303      	str	r3, [sp, #12]
87801060:	9b00      	ldr	r3, [sp, #0]
87801062:	b2bc      	uxth	r4, r7
87801064:	eb05 0a0b 	add.w	sl, r5, fp
87801068:	69b2      	ldr	r2, [r6, #24]
8780106a:	fa1f fa8a 	uxth.w	sl, sl
8780106e:	eb0b 0904 	add.w	r9, fp, r4
87801072:	18e1      	adds	r1, r4, r3
87801074:	fa1f f989 	uxth.w	r9, r9
87801078:	b289      	uxth	r1, r1
8780107a:	4608      	mov	r0, r1
8780107c:	9102      	str	r1, [sp, #8]
8780107e:	4651      	mov	r1, sl
87801080:	f000 fd08 	bl	87801a94 <lcd_drawpoint>
87801084:	9a00      	ldr	r2, [sp, #0]
87801086:	4649      	mov	r1, r9
87801088:	eb05 0802 	add.w	r8, r5, r2
8780108c:	69b2      	ldr	r2, [r6, #24]
8780108e:	fa1f f888 	uxth.w	r8, r8
87801092:	4640      	mov	r0, r8
87801094:	f000 fcfe 	bl	87801a94 <lcd_drawpoint>
87801098:	9a00      	ldr	r2, [sp, #0]
8780109a:	4651      	mov	r1, sl
8780109c:	1b12      	subs	r2, r2, r4
8780109e:	ebc4 040b 	rsb	r4, r4, fp
878010a2:	fa1f fa82 	uxth.w	sl, r2
878010a6:	69b2      	ldr	r2, [r6, #24]
878010a8:	b2a4      	uxth	r4, r4
878010aa:	4650      	mov	r0, sl
878010ac:	f000 fcf2 	bl	87801a94 <lcd_drawpoint>
878010b0:	9a00      	ldr	r2, [sp, #0]
878010b2:	4649      	mov	r1, r9
878010b4:	1b52      	subs	r2, r2, r5
878010b6:	ebc5 050b 	rsb	r5, r5, fp
878010ba:	fa1f f982 	uxth.w	r9, r2
878010be:	b2ad      	uxth	r5, r5
878010c0:	69b2      	ldr	r2, [r6, #24]
878010c2:	4648      	mov	r0, r9
878010c4:	f000 fce6 	bl	87801a94 <lcd_drawpoint>
878010c8:	4650      	mov	r0, sl
878010ca:	69b2      	ldr	r2, [r6, #24]
878010cc:	4629      	mov	r1, r5
878010ce:	f000 fce1 	bl	87801a94 <lcd_drawpoint>
878010d2:	4648      	mov	r0, r9
878010d4:	69b2      	ldr	r2, [r6, #24]
878010d6:	4621      	mov	r1, r4
878010d8:	f000 fcdc 	bl	87801a94 <lcd_drawpoint>
878010dc:	4629      	mov	r1, r5
878010de:	9802      	ldr	r0, [sp, #8]
878010e0:	69b2      	ldr	r2, [r6, #24]
878010e2:	f000 fcd7 	bl	87801a94 <lcd_drawpoint>
878010e6:	4621      	mov	r1, r4
878010e8:	69b2      	ldr	r2, [r6, #24]
878010ea:	4640      	mov	r0, r8
878010ec:	f000 fcd2 	bl	87801a94 <lcd_drawpoint>
878010f0:	9901      	ldr	r1, [sp, #4]
878010f2:	9b03      	ldr	r3, [sp, #12]
878010f4:	2900      	cmp	r1, #0
878010f6:	eba7 0203 	sub.w	r2, r7, r3
878010fa:	bfa8      	it	ge
878010fc:	f103 33ff 	addge.w	r3, r3, #4294967295	; 0xffffffff
87801100:	eb01 0242 	add.w	r2, r1, r2, lsl #1
87801104:	bfba      	itte	lt
87801106:	460a      	movlt	r2, r1
87801108:	eb02 0247 	addlt.w	r2, r2, r7, lsl #1
8780110c:	3205      	addge	r2, #5
8780110e:	f107 0701 	add.w	r7, r7, #1
87801112:	bfae      	itee	ge
87801114:	9201      	strge	r2, [sp, #4]
87801116:	3203      	addlt	r2, #3
87801118:	9201      	strlt	r2, [sp, #4]
8780111a:	42bb      	cmp	r3, r7
8780111c:	dc9e      	bgt.n	8780105c <lcd_draw_Circle+0x20>
8780111e:	b005      	add	sp, #20
87801120:	e8bd 8ff0 	ldmia.w	sp!, {r4, r5, r6, r7, r8, r9, sl, fp, pc}

87801124 <lcd_showchar>:
87801124:	e92d 4ff0 	stmdb	sp!, {r4, r5, r6, r7, r8, r9, sl, fp, lr}
87801128:	461e      	mov	r6, r3
8780112a:	f013 0307 	ands.w	r3, r3, #7
8780112e:	ea4f 0456 	mov.w	r4, r6, lsr #1
87801132:	bf18      	it	ne
87801134:	2301      	movne	r3, #1
87801136:	eb03 05d6 	add.w	r5, r3, r6, lsr #3
8780113a:	4689      	mov	r9, r1
8780113c:	b087      	sub	sp, #28
8780113e:	fb15 f104 	smulbb	r1, r5, r4
87801142:	3a20      	subs	r2, #32
87801144:	b2d2      	uxtb	r2, r2
87801146:	9001      	str	r0, [sp, #4]
87801148:	f89d b040 	ldrb.w	fp, [sp, #64]	; 0x40
8780114c:	f011 01ff 	ands.w	r1, r1, #255	; 0xff
87801150:	d06c      	beq.n	8780122c <lcd_showchar+0x108>
87801152:	b217      	sxth	r7, r2
87801154:	483d      	ldr	r0, [pc, #244]	; (8780124c <lcd_showchar+0x128>)
87801156:	3901      	subs	r1, #1
87801158:	ea4f 0887 	mov.w	r8, r7, lsl #2
8780115c:	b2c9      	uxtb	r1, r1
8780115e:	013c      	lsls	r4, r7, #4
87801160:	eb08 1e47 	add.w	lr, r8, r7, lsl #5
87801164:	f644 15c4 	movw	r5, #18884	; 0x49c4
87801168:	f500 6cbe 	add.w	ip, r0, #1520	; 0x5f0
8780116c:	eb0c 13c7 	add.w	r3, ip, r7, lsl #7
87801170:	f2c8 7580 	movt	r5, #34688	; 0x8780
87801174:	f10e 0201 	add.w	r2, lr, #1
87801178:	440a      	add	r2, r1
8780117a:	f205 4a74 	addw	sl, r5, #1140	; 0x474
8780117e:	ebc8 0104 	rsb	r1, r8, r4
87801182:	9302      	str	r3, [sp, #8]
87801184:	eb0a 0302 	add.w	r3, sl, r2
87801188:	f649 77cc 	movw	r7, #40908	; 0x9fcc
8780118c:	9305      	str	r3, [sp, #20]
8780118e:	186b      	adds	r3, r5, r1
87801190:	9303      	str	r3, [sp, #12]
87801192:	1903      	adds	r3, r0, r4
87801194:	44f2      	add	sl, lr
87801196:	9304      	str	r3, [sp, #16]
87801198:	465b      	mov	r3, fp
8780119a:	f2c8 7780 	movt	r7, #34688	; 0x8780
8780119e:	46d3      	mov	fp, sl
878011a0:	464c      	mov	r4, r9
878011a2:	469a      	mov	sl, r3
878011a4:	2e0c      	cmp	r6, #12
878011a6:	d04a      	beq.n	8780123e <lcd_showchar+0x11a>
878011a8:	2e10      	cmp	r6, #16
878011aa:	d04b      	beq.n	87801244 <lcd_showchar+0x120>
878011ac:	2e18      	cmp	r6, #24
878011ae:	bf08      	it	eq
878011b0:	f89b 5000 	ldrbeq.w	r5, [fp]
878011b4:	d003      	beq.n	878011be <lcd_showchar+0x9a>
878011b6:	2e20      	cmp	r6, #32
878011b8:	d138      	bne.n	8780122c <lcd_showchar+0x108>
878011ba:	9b02      	ldr	r3, [sp, #8]
878011bc:	781d      	ldrb	r5, [r3, #0]
878011be:	f104 0808 	add.w	r8, r4, #8
878011c2:	fa1f f888 	uxth.w	r8, r8
878011c6:	e00c      	b.n	878011e2 <lcd_showchar+0xbe>
878011c8:	3401      	adds	r4, #1
878011ca:	883b      	ldrh	r3, [r7, #0]
878011cc:	b2a4      	uxth	r4, r4
878011ce:	006d      	lsls	r5, r5, #1
878011d0:	42a3      	cmp	r3, r4
878011d2:	ebc9 0204 	rsb	r2, r9, r4
878011d6:	b2ed      	uxtb	r5, r5
878011d8:	d928      	bls.n	8780122c <lcd_showchar+0x108>
878011da:	42b2      	cmp	r2, r6
878011dc:	d00c      	beq.n	878011f8 <lcd_showchar+0xd4>
878011de:	4544      	cmp	r4, r8
878011e0:	d016      	beq.n	87801210 <lcd_showchar+0xec>
878011e2:	062b      	lsls	r3, r5, #24
878011e4:	d425      	bmi.n	87801232 <lcd_showchar+0x10e>
878011e6:	f1ba 0f00 	cmp.w	sl, #0
878011ea:	d1ed      	bne.n	878011c8 <lcd_showchar+0xa4>
878011ec:	69fa      	ldr	r2, [r7, #28]
878011ee:	4621      	mov	r1, r4
878011f0:	9801      	ldr	r0, [sp, #4]
878011f2:	f000 fc4f 	bl	87801a94 <lcd_drawpoint>
878011f6:	e7e7      	b.n	878011c8 <lcd_showchar+0xa4>
878011f8:	9b01      	ldr	r3, [sp, #4]
878011fa:	f649 72cc 	movw	r2, #40908	; 0x9fcc
878011fe:	f2c8 7280 	movt	r2, #34688	; 0x8780
87801202:	8852      	ldrh	r2, [r2, #2]
87801204:	3301      	adds	r3, #1
87801206:	b29b      	uxth	r3, r3
87801208:	429a      	cmp	r2, r3
8780120a:	9301      	str	r3, [sp, #4]
8780120c:	d90e      	bls.n	8780122c <lcd_showchar+0x108>
8780120e:	464c      	mov	r4, r9
87801210:	9b03      	ldr	r3, [sp, #12]
87801212:	f10b 0b01 	add.w	fp, fp, #1
87801216:	3301      	adds	r3, #1
87801218:	9303      	str	r3, [sp, #12]
8780121a:	9b04      	ldr	r3, [sp, #16]
8780121c:	3301      	adds	r3, #1
8780121e:	9304      	str	r3, [sp, #16]
87801220:	9b02      	ldr	r3, [sp, #8]
87801222:	3301      	adds	r3, #1
87801224:	9302      	str	r3, [sp, #8]
87801226:	9b05      	ldr	r3, [sp, #20]
87801228:	459b      	cmp	fp, r3
8780122a:	d1bb      	bne.n	878011a4 <lcd_showchar+0x80>
8780122c:	b007      	add	sp, #28
8780122e:	e8bd 8ff0 	ldmia.w	sp!, {r4, r5, r6, r7, r8, r9, sl, fp, pc}
87801232:	69ba      	ldr	r2, [r7, #24]
87801234:	4621      	mov	r1, r4
87801236:	9801      	ldr	r0, [sp, #4]
87801238:	f000 fc2c 	bl	87801a94 <lcd_drawpoint>
8780123c:	e7c4      	b.n	878011c8 <lcd_showchar+0xa4>
8780123e:	9b03      	ldr	r3, [sp, #12]
87801240:	781d      	ldrb	r5, [r3, #0]
87801242:	e7bc      	b.n	878011be <lcd_showchar+0x9a>
87801244:	9b04      	ldr	r3, [sp, #16]
87801246:	781d      	ldrb	r5, [r3, #0]
87801248:	e7b9      	b.n	878011be <lcd_showchar+0x9a>
8780124a:	bf00      	nop
8780124c:	87805b94 			; <UNDEFINED> instruction: 0x87805b94

87801250 <lcd_pow>:
87801250:	1e4b      	subs	r3, r1, #1
87801252:	2201      	movs	r2, #1
87801254:	b2db      	uxtb	r3, r3
87801256:	b129      	cbz	r1, 87801264 <lcd_pow+0x14>
87801258:	3b01      	subs	r3, #1
8780125a:	fb00 f202 	mul.w	r2, r0, r2
8780125e:	b2db      	uxtb	r3, r3
87801260:	2bff      	cmp	r3, #255	; 0xff
87801262:	d1f9      	bne.n	87801258 <lcd_pow+0x8>
87801264:	4610      	mov	r0, r2
87801266:	4770      	bx	lr

87801268 <lcd_shownum>:
87801268:	e92d 4ff0 	stmdb	sp!, {r4, r5, r6, r7, r8, r9, sl, fp, lr}
8780126c:	b087      	sub	sp, #28
8780126e:	f89d a040 	ldrb.w	sl, [sp, #64]	; 0x40
87801272:	2b00      	cmp	r3, #0
87801274:	d042      	beq.n	878012fc <lcd_shownum+0x94>
87801276:	4617      	mov	r7, r2
87801278:	1e5a      	subs	r2, r3, #1
8780127a:	2500      	movs	r5, #0
8780127c:	fa5f f982 	uxtb.w	r9, r2
87801280:	f64c 48cd 	movw	r8, #52429	; 0xcccd
87801284:	ea4f 0b5a 	mov.w	fp, sl, lsr #1
87801288:	3b02      	subs	r3, #2
8780128a:	9104      	str	r1, [sp, #16]
8780128c:	4604      	mov	r4, r0
8780128e:	462e      	mov	r6, r5
87801290:	f6cc 48cc 	movt	r8, #52428	; 0xcccc
87801294:	9303      	str	r3, [sp, #12]
87801296:	f109 0301 	add.w	r3, r9, #1
8780129a:	9205      	str	r2, [sp, #20]
8780129c:	9302      	str	r3, [sp, #8]
8780129e:	b2ea      	uxtb	r2, r5
878012a0:	9b03      	ldr	r3, [sp, #12]
878012a2:	2101      	movs	r1, #1
878012a4:	454a      	cmp	r2, r9
878012a6:	eba3 0302 	sub.w	r3, r3, r2
878012aa:	b2db      	uxtb	r3, r3
878012ac:	d006      	beq.n	878012bc <lcd_shownum+0x54>
878012ae:	3b01      	subs	r3, #1
878012b0:	00ca      	lsls	r2, r1, #3
878012b2:	b2db      	uxtb	r3, r3
878012b4:	eb02 0141 	add.w	r1, r2, r1, lsl #1
878012b8:	2bff      	cmp	r3, #255	; 0xff
878012ba:	d1f8      	bne.n	878012ae <lcd_shownum+0x46>
878012bc:	4638      	mov	r0, r7
878012be:	f003 f8cf 	bl	87804460 <__aeabi_uidiv>
878012c2:	fba0 2308 	umull	r2, r3, r0, r8
878012c6:	08db      	lsrs	r3, r3, #3
878012c8:	00da      	lsls	r2, r3, #3
878012ca:	eb02 0343 	add.w	r3, r2, r3, lsl #1
878012ce:	1ac3      	subs	r3, r0, r3
878012d0:	b2da      	uxtb	r2, r3
878012d2:	b91e      	cbnz	r6, 878012dc <lcd_shownum+0x74>
878012d4:	9905      	ldr	r1, [sp, #20]
878012d6:	42a9      	cmp	r1, r5
878012d8:	dd01      	ble.n	878012de <lcd_shownum+0x76>
878012da:	b193      	cbz	r3, 87801302 <lcd_shownum+0x9a>
878012dc:	2601      	movs	r6, #1
878012de:	2300      	movs	r3, #0
878012e0:	3230      	adds	r2, #48	; 0x30
878012e2:	9300      	str	r3, [sp, #0]
878012e4:	b2d2      	uxtb	r2, r2
878012e6:	4653      	mov	r3, sl
878012e8:	9904      	ldr	r1, [sp, #16]
878012ea:	4620      	mov	r0, r4
878012ec:	f7ff ff1a 	bl	87801124 <lcd_showchar>
878012f0:	9b02      	ldr	r3, [sp, #8]
878012f2:	3501      	adds	r5, #1
878012f4:	445c      	add	r4, fp
878012f6:	b2a4      	uxth	r4, r4
878012f8:	429d      	cmp	r5, r3
878012fa:	d1d0      	bne.n	8780129e <lcd_shownum+0x36>
878012fc:	b007      	add	sp, #28
878012fe:	e8bd 8ff0 	ldmia.w	sp!, {r4, r5, r6, r7, r8, r9, sl, fp, pc}
87801302:	9600      	str	r6, [sp, #0]
87801304:	4653      	mov	r3, sl
87801306:	2220      	movs	r2, #32
87801308:	9904      	ldr	r1, [sp, #16]
8780130a:	4620      	mov	r0, r4
8780130c:	f7ff ff0a 	bl	87801124 <lcd_showchar>
87801310:	e7ee      	b.n	878012f0 <lcd_shownum+0x88>
87801312:	bf00      	nop

87801314 <lcd_showxnum>:
87801314:	e92d 4ff0 	stmdb	sp!, {r4, r5, r6, r7, r8, r9, sl, fp, lr}
87801318:	b089      	sub	sp, #36	; 0x24
8780131a:	f89d a048 	ldrb.w	sl, [sp, #72]	; 0x48
8780131e:	f89d e04c 	ldrb.w	lr, [sp, #76]	; 0x4c
87801322:	2b00      	cmp	r3, #0
87801324:	d04a      	beq.n	878013bc <lcd_showxnum+0xa8>
87801326:	4617      	mov	r7, r2
87801328:	1e5a      	subs	r2, r3, #1
8780132a:	fa5f f982 	uxtb.w	r9, r2
8780132e:	3b02      	subs	r3, #2
87801330:	2500      	movs	r5, #0
87801332:	ea4f 0b5a 	mov.w	fp, sl, lsr #1
87801336:	f64c 48cd 	movw	r8, #52429	; 0xcccd
8780133a:	9206      	str	r2, [sp, #24]
8780133c:	9303      	str	r3, [sp, #12]
8780133e:	fa4f f28e 	sxtb.w	r2, lr
87801342:	f109 0301 	add.w	r3, r9, #1
87801346:	9105      	str	r1, [sp, #20]
87801348:	4604      	mov	r4, r0
8780134a:	462e      	mov	r6, r5
8780134c:	f6cc 48cc 	movt	r8, #52428	; 0xcccc
87801350:	9302      	str	r3, [sp, #8]
87801352:	f00e 0301 	and.w	r3, lr, #1
87801356:	9207      	str	r2, [sp, #28]
87801358:	9304      	str	r3, [sp, #16]
8780135a:	b2ea      	uxtb	r2, r5
8780135c:	9b03      	ldr	r3, [sp, #12]
8780135e:	2101      	movs	r1, #1
87801360:	454a      	cmp	r2, r9
87801362:	eba3 0302 	sub.w	r3, r3, r2
87801366:	b2db      	uxtb	r3, r3
87801368:	d006      	beq.n	87801378 <lcd_showxnum+0x64>
8780136a:	3b01      	subs	r3, #1
8780136c:	00ca      	lsls	r2, r1, #3
8780136e:	b2db      	uxtb	r3, r3
87801370:	eb02 0141 	add.w	r1, r2, r1, lsl #1
87801374:	2bff      	cmp	r3, #255	; 0xff
87801376:	d1f8      	bne.n	8780136a <lcd_showxnum+0x56>
87801378:	4638      	mov	r0, r7
8780137a:	f003 f871 	bl	87804460 <__aeabi_uidiv>
8780137e:	fba0 2308 	umull	r2, r3, r0, r8
87801382:	08db      	lsrs	r3, r3, #3
87801384:	00da      	lsls	r2, r3, #3
87801386:	eb02 0343 	add.w	r3, r2, r3, lsl #1
8780138a:	1ac3      	subs	r3, r0, r3
8780138c:	b2da      	uxtb	r2, r3
8780138e:	b9c6      	cbnz	r6, 878013c2 <lcd_showxnum+0xae>
87801390:	9906      	ldr	r1, [sp, #24]
87801392:	42a9      	cmp	r1, r5
87801394:	dd16      	ble.n	878013c4 <lcd_showxnum+0xb0>
87801396:	b9a3      	cbnz	r3, 878013c2 <lcd_showxnum+0xae>
87801398:	9b07      	ldr	r3, [sp, #28]
8780139a:	4620      	mov	r0, r4
8780139c:	9905      	ldr	r1, [sp, #20]
8780139e:	2b00      	cmp	r3, #0
878013a0:	9b04      	ldr	r3, [sp, #16]
878013a2:	bfb4      	ite	lt
878013a4:	2230      	movlt	r2, #48	; 0x30
878013a6:	2220      	movge	r2, #32
878013a8:	9300      	str	r3, [sp, #0]
878013aa:	4653      	mov	r3, sl
878013ac:	f7ff feba 	bl	87801124 <lcd_showchar>
878013b0:	9b02      	ldr	r3, [sp, #8]
878013b2:	3501      	adds	r5, #1
878013b4:	445c      	add	r4, fp
878013b6:	b2a4      	uxth	r4, r4
878013b8:	429d      	cmp	r5, r3
878013ba:	d1ce      	bne.n	8780135a <lcd_showxnum+0x46>
878013bc:	b009      	add	sp, #36	; 0x24
878013be:	e8bd 8ff0 	ldmia.w	sp!, {r4, r5, r6, r7, r8, r9, sl, fp, pc}
878013c2:	2601      	movs	r6, #1
878013c4:	9b04      	ldr	r3, [sp, #16]
878013c6:	3230      	adds	r2, #48	; 0x30
878013c8:	b2d2      	uxtb	r2, r2
878013ca:	9905      	ldr	r1, [sp, #20]
878013cc:	4620      	mov	r0, r4
878013ce:	9300      	str	r3, [sp, #0]
878013d0:	4653      	mov	r3, sl
878013d2:	f7ff fea7 	bl	87801124 <lcd_showchar>
878013d6:	e7eb      	b.n	878013b0 <lcd_showxnum+0x9c>

878013d8 <lcd_show_string>:
878013d8:	e92d 4ff0 	stmdb	sp!, {r4, r5, r6, r7, r8, r9, sl, fp, lr}
878013dc:	b085      	sub	sp, #20
878013de:	9f0f      	ldr	r7, [sp, #60]	; 0x3c
878013e0:	4402      	add	r2, r0
878013e2:	fa1f f882 	uxth.w	r8, r2
878013e6:	440b      	add	r3, r1
878013e8:	fa1f f983 	uxth.w	r9, r3
878013ec:	460d      	mov	r5, r1
878013ee:	783a      	ldrb	r2, [r7, #0]
878013f0:	f89d 6038 	ldrb.w	r6, [sp, #56]	; 0x38
878013f4:	f1a2 0320 	sub.w	r3, r2, #32
878013f8:	2b5e      	cmp	r3, #94	; 0x5e
878013fa:	d81e      	bhi.n	8780143a <lcd_show_string+0x62>
878013fc:	b2c3      	uxtb	r3, r0
878013fe:	4604      	mov	r4, r0
87801400:	ea4f 0b56 	mov.w	fp, r6, lsr #1
87801404:	f04f 0a00 	mov.w	sl, #0
87801408:	9303      	str	r3, [sp, #12]
8780140a:	e00b      	b.n	87801424 <lcd_show_string+0x4c>
8780140c:	f8cd a000 	str.w	sl, [sp]
87801410:	445c      	add	r4, fp
87801412:	f7ff fe87 	bl	87801124 <lcd_showchar>
87801416:	f817 2f01 	ldrb.w	r2, [r7, #1]!
8780141a:	b2a4      	uxth	r4, r4
8780141c:	f1a2 0320 	sub.w	r3, r2, #32
87801420:	2b5e      	cmp	r3, #94	; 0x5e
87801422:	d80a      	bhi.n	8780143a <lcd_show_string+0x62>
87801424:	45a0      	cmp	r8, r4
87801426:	eb05 0106 	add.w	r1, r5, r6
8780142a:	bf9c      	itt	ls
8780142c:	b28d      	uxthls	r5, r1
8780142e:	9c03      	ldrls	r4, [sp, #12]
87801430:	4633      	mov	r3, r6
87801432:	454d      	cmp	r5, r9
87801434:	4629      	mov	r1, r5
87801436:	4620      	mov	r0, r4
87801438:	d3e8      	bcc.n	8780140c <lcd_show_string+0x34>
8780143a:	b005      	add	sp, #20
8780143c:	e8bd 8ff0 	ldmia.w	sp!, {r4, r5, r6, r7, r8, r9, sl, fp, pc}

87801440 <lcdclk_init>:
87801440:	b430      	push	{r4, r5}
87801442:	f44f 4380 	mov.w	r3, #16384	; 0x4000
87801446:	f44f 4400 	mov.w	r4, #32768	; 0x8000
8780144a:	f2c0 230c 	movt	r3, #524	; 0x20c
8780144e:	f2c0 240c 	movt	r4, #524	; 0x20c
87801452:	2500      	movs	r5, #0
87801454:	f440 1081 	orr.w	r0, r0, #1056768	; 0x102000
87801458:	f8c4 50b0 	str.w	r5, [r4, #176]	; 0xb0
8780145c:	f8c4 50c0 	str.w	r5, [r4, #192]	; 0xc0
87801460:	3901      	subs	r1, #1
87801462:	f8c4 00a0 	str.w	r0, [r4, #160]	; 0xa0
87801466:	3a01      	subs	r2, #1
87801468:	6b98      	ldr	r0, [r3, #56]	; 0x38
8780146a:	bc30      	pop	{r4, r5}
8780146c:	f420 3060 	bic.w	r0, r0, #229376	; 0x38000
87801470:	6398      	str	r0, [r3, #56]	; 0x38
87801472:	6b98      	ldr	r0, [r3, #56]	; 0x38
87801474:	f440 3080 	orr.w	r0, r0, #65536	; 0x10000
87801478:	6398      	str	r0, [r3, #56]	; 0x38
8780147a:	6b98      	ldr	r0, [r3, #56]	; 0x38
8780147c:	f420 40e0 	bic.w	r0, r0, #28672	; 0x7000
87801480:	6398      	str	r0, [r3, #56]	; 0x38
87801482:	6b98      	ldr	r0, [r3, #56]	; 0x38
87801484:	ea40 3101 	orr.w	r1, r0, r1, lsl #12
87801488:	6399      	str	r1, [r3, #56]	; 0x38
8780148a:	6999      	ldr	r1, [r3, #24]
8780148c:	f021 7160 	bic.w	r1, r1, #58720256	; 0x3800000
87801490:	6199      	str	r1, [r3, #24]
87801492:	6999      	ldr	r1, [r3, #24]
87801494:	ea41 52c2 	orr.w	r2, r1, r2, lsl #23
87801498:	619a      	str	r2, [r3, #24]
8780149a:	6b9a      	ldr	r2, [r3, #56]	; 0x38
8780149c:	f422 6260 	bic.w	r2, r2, #3584	; 0xe00
878014a0:	639a      	str	r2, [r3, #56]	; 0x38
878014a2:	6b9a      	ldr	r2, [r3, #56]	; 0x38
878014a4:	639a      	str	r2, [r3, #56]	; 0x38
878014a6:	4770      	bx	lr

878014a8 <lcd_reset>:
878014a8:	f44f 4300 	mov.w	r3, #32768	; 0x8000
878014ac:	f2c0 231c 	movt	r3, #540	; 0x21c
878014b0:	681a      	ldr	r2, [r3, #0]
878014b2:	f042 4200 	orr.w	r2, r2, #2147483648	; 0x80000000
878014b6:	601a      	str	r2, [r3, #0]
878014b8:	4770      	bx	lr
878014ba:	bf00      	nop

878014bc <lcd_noreset>:
878014bc:	f44f 4300 	mov.w	r3, #32768	; 0x8000
878014c0:	f2c0 231c 	movt	r3, #540	; 0x21c
878014c4:	681a      	ldr	r2, [r3, #0]
878014c6:	f022 4200 	bic.w	r2, r2, #2147483648	; 0x80000000
878014ca:	601a      	str	r2, [r3, #0]
878014cc:	4770      	bx	lr
878014ce:	bf00      	nop

878014d0 <lcd_enable>:
878014d0:	f44f 4300 	mov.w	r3, #32768	; 0x8000
878014d4:	f2c0 231c 	movt	r3, #540	; 0x21c
878014d8:	681a      	ldr	r2, [r3, #0]
878014da:	f042 0201 	orr.w	r2, r2, #1
878014de:	601a      	str	r2, [r3, #0]
878014e0:	4770      	bx	lr
878014e2:	bf00      	nop

878014e4 <lcd_read_panelid>:
878014e4:	f44f 7288 	mov.w	r2, #272	; 0x110
878014e8:	f44f 7367 	mov.w	r3, #924	; 0x39c
878014ec:	b570      	push	{r4, r5, r6, lr}
878014ee:	f2c0 220e 	movt	r2, #526	; 0x20e
878014f2:	b084      	sub	sp, #16
878014f4:	2405      	movs	r4, #5
878014f6:	f2c0 230e 	movt	r3, #526	; 0x20e
878014fa:	f241 01b0 	movw	r1, #4272	; 0x10b0
878014fe:	f44f 4080 	mov.w	r0, #16384	; 0x4000
87801502:	6014      	str	r4, [r2, #0]
87801504:	f2c0 200a 	movt	r0, #522	; 0x20a
87801508:	6019      	str	r1, [r3, #0]
8780150a:	aa01      	add	r2, sp, #4
8780150c:	2301      	movs	r3, #1
8780150e:	2103      	movs	r1, #3
87801510:	9301      	str	r3, [sp, #4]
87801512:	f88d 3008 	strb.w	r3, [sp, #8]
87801516:	f44f 7670 	mov.w	r6, #960	; 0x3c0
8780151a:	f7ff f967 	bl	878007ec <gpio_init>
8780151e:	f44f 739a 	mov.w	r3, #308	; 0x134
87801522:	f44f 70aa 	mov.w	r0, #340	; 0x154
87801526:	f2c0 230e 	movt	r3, #526	; 0x20e
8780152a:	f2c0 200e 	movt	r0, #526	; 0x20e
8780152e:	f44f 72ba 	mov.w	r2, #372	; 0x174
87801532:	f44f 7578 	mov.w	r5, #992	; 0x3e0
87801536:	f44f 6180 	mov.w	r1, #1024	; 0x400
8780153a:	601c      	str	r4, [r3, #0]
8780153c:	f2c0 220e 	movt	r2, #526	; 0x20e
87801540:	f24f 0380 	movw	r3, #61568	; 0xf080
87801544:	6004      	str	r4, [r0, #0]
87801546:	f2c0 250e 	movt	r5, #526	; 0x20e
8780154a:	f2c0 210e 	movt	r1, #526	; 0x20e
8780154e:	f2c0 260e 	movt	r6, #526	; 0x20e
87801552:	f44f 4080 	mov.w	r0, #16384	; 0x4000
87801556:	6014      	str	r4, [r2, #0]
87801558:	f2c0 200a 	movt	r0, #522	; 0x20a
8780155c:	6033      	str	r3, [r6, #0]
8780155e:	aa01      	add	r2, sp, #4
87801560:	602b      	str	r3, [r5, #0]
87801562:	2400      	movs	r4, #0
87801564:	600b      	str	r3, [r1, #0]
87801566:	210c      	movs	r1, #12
87801568:	9401      	str	r4, [sp, #4]
8780156a:	f7ff f93f 	bl	878007ec <gpio_init>
8780156e:	f44f 4080 	mov.w	r0, #16384	; 0x4000
87801572:	aa01      	add	r2, sp, #4
87801574:	2114      	movs	r1, #20
87801576:	f2c0 200a 	movt	r0, #522	; 0x20a
8780157a:	f7ff f937 	bl	878007ec <gpio_init>
8780157e:	f44f 4080 	mov.w	r0, #16384	; 0x4000
87801582:	aa01      	add	r2, sp, #4
87801584:	211c      	movs	r1, #28
87801586:	f2c0 200a 	movt	r0, #522	; 0x20a
8780158a:	f7ff f92f 	bl	878007ec <gpio_init>
8780158e:	f44f 4080 	mov.w	r0, #16384	; 0x4000
87801592:	211c      	movs	r1, #28
87801594:	f2c0 200a 	movt	r0, #522	; 0x20a
87801598:	f7ff f8cc 	bl	87800734 <gpio_pinread>
8780159c:	4604      	mov	r4, r0
8780159e:	f44f 4080 	mov.w	r0, #16384	; 0x4000
878015a2:	2114      	movs	r1, #20
878015a4:	f2c0 200a 	movt	r0, #522	; 0x20a
878015a8:	f7ff f8c4 	bl	87800734 <gpio_pinread>
878015ac:	4605      	mov	r5, r0
878015ae:	f44f 4080 	mov.w	r0, #16384	; 0x4000
878015b2:	f2c0 200a 	movt	r0, #522	; 0x20a
878015b6:	210c      	movs	r1, #12
878015b8:	f7ff f8bc 	bl	87800734 <gpio_pinread>
878015bc:	b2c0      	uxtb	r0, r0
878015be:	b2ed      	uxtb	r5, r5
878015c0:	0080      	lsls	r0, r0, #2
878015c2:	ea40 0045 	orr.w	r0, r0, r5, lsl #1
878015c6:	4320      	orrs	r0, r4
878015c8:	f010 00ff 	ands.w	r0, r0, #255	; 0xff
878015cc:	bf08      	it	eq
878015ce:	f244 3042 	movweq	r0, #17218	; 0x4342
878015d2:	d101      	bne.n	878015d8 <lcd_read_panelid+0xf4>
878015d4:	b004      	add	sp, #16
878015d6:	bd70      	pop	{r4, r5, r6, pc}
878015d8:	2801      	cmp	r0, #1
878015da:	bf08      	it	eq
878015dc:	f247 0084 	movweq	r0, #28804	; 0x7084
878015e0:	d0f8      	beq.n	878015d4 <lcd_read_panelid+0xf0>
878015e2:	2802      	cmp	r0, #2
878015e4:	bf08      	it	eq
878015e6:	f247 0016 	movweq	r0, #28694	; 0x7016
878015ea:	d0f3      	beq.n	878015d4 <lcd_read_panelid+0xf0>
878015ec:	2804      	cmp	r0, #4
878015ee:	bf08      	it	eq
878015f0:	f244 3084 	movweq	r0, #17284	; 0x4384
878015f4:	d0ee      	beq.n	878015d4 <lcd_read_panelid+0xf0>
878015f6:	2805      	cmp	r0, #5
878015f8:	f241 0018 	movw	r0, #4120	; 0x1018
878015fc:	bf18      	it	ne
878015fe:	2000      	movne	r0, #0
87801600:	e7e8      	b.n	878015d4 <lcd_read_panelid+0xf0>
87801602:	bf00      	nop

87801604 <lcdgpio_init>:
87801604:	b5f0      	push	{r4, r5, r6, r7, lr}
87801606:	f44f 748c 	mov.w	r4, #280	; 0x118
8780160a:	2300      	movs	r3, #0
8780160c:	f2c0 240e 	movt	r4, #526	; 0x20e
87801610:	f44f 728e 	mov.w	r2, #284	; 0x11c
87801614:	f44f 7190 	mov.w	r1, #288	; 0x120
87801618:	6023      	str	r3, [r4, #0]
8780161a:	f2c0 220e 	movt	r2, #526	; 0x20e
8780161e:	f2c0 210e 	movt	r1, #526	; 0x20e
87801622:	f44f 7792 	mov.w	r7, #292	; 0x124
87801626:	f44f 7694 	mov.w	r6, #296	; 0x128
8780162a:	f44f 7096 	mov.w	r0, #300	; 0x12c
8780162e:	f44f 7598 	mov.w	r5, #304	; 0x130
87801632:	f44f 749a 	mov.w	r4, #308	; 0x134
87801636:	6013      	str	r3, [r2, #0]
87801638:	f2c0 270e 	movt	r7, #526	; 0x20e
8780163c:	600b      	str	r3, [r1, #0]
8780163e:	f2c0 260e 	movt	r6, #526	; 0x20e
87801642:	f2c0 200e 	movt	r0, #526	; 0x20e
87801646:	f2c0 250e 	movt	r5, #526	; 0x20e
8780164a:	f2c0 240e 	movt	r4, #526	; 0x20e
8780164e:	f44f 729c 	mov.w	r2, #312	; 0x138
87801652:	f44f 719e 	mov.w	r1, #316	; 0x13c
87801656:	603b      	str	r3, [r7, #0]
87801658:	f2c0 220e 	movt	r2, #526	; 0x20e
8780165c:	6033      	str	r3, [r6, #0]
8780165e:	f2c0 210e 	movt	r1, #526	; 0x20e
87801662:	6003      	str	r3, [r0, #0]
87801664:	f44f 77a0 	mov.w	r7, #320	; 0x140
87801668:	602b      	str	r3, [r5, #0]
8780166a:	f44f 76a2 	mov.w	r6, #324	; 0x144
8780166e:	6023      	str	r3, [r4, #0]
87801670:	f44f 70a4 	mov.w	r0, #328	; 0x148
87801674:	f44f 75a6 	mov.w	r5, #332	; 0x14c
87801678:	f44f 74a8 	mov.w	r4, #336	; 0x150
8780167c:	6013      	str	r3, [r2, #0]
8780167e:	f2c0 270e 	movt	r7, #526	; 0x20e
87801682:	600b      	str	r3, [r1, #0]
87801684:	f2c0 260e 	movt	r6, #526	; 0x20e
87801688:	f2c0 200e 	movt	r0, #526	; 0x20e
8780168c:	f2c0 250e 	movt	r5, #526	; 0x20e
87801690:	f2c0 240e 	movt	r4, #526	; 0x20e
87801694:	f44f 72aa 	mov.w	r2, #340	; 0x154
87801698:	f44f 71ac 	mov.w	r1, #344	; 0x158
8780169c:	603b      	str	r3, [r7, #0]
8780169e:	f2c0 220e 	movt	r2, #526	; 0x20e
878016a2:	6033      	str	r3, [r6, #0]
878016a4:	f2c0 210e 	movt	r1, #526	; 0x20e
878016a8:	6003      	str	r3, [r0, #0]
878016aa:	f44f 77ae 	mov.w	r7, #348	; 0x15c
878016ae:	602b      	str	r3, [r5, #0]
878016b0:	f44f 76b0 	mov.w	r6, #352	; 0x160
878016b4:	6023      	str	r3, [r4, #0]
878016b6:	f44f 70b2 	mov.w	r0, #356	; 0x164
878016ba:	f44f 75b4 	mov.w	r5, #360	; 0x168
878016be:	f44f 74b6 	mov.w	r4, #364	; 0x16c
878016c2:	6013      	str	r3, [r2, #0]
878016c4:	f2c0 270e 	movt	r7, #526	; 0x20e
878016c8:	600b      	str	r3, [r1, #0]
878016ca:	f2c0 260e 	movt	r6, #526	; 0x20e
878016ce:	f2c0 200e 	movt	r0, #526	; 0x20e
878016d2:	f2c0 250e 	movt	r5, #526	; 0x20e
878016d6:	f2c0 240e 	movt	r4, #526	; 0x20e
878016da:	f44f 72b8 	mov.w	r2, #368	; 0x170
878016de:	f44f 71ba 	mov.w	r1, #372	; 0x174
878016e2:	603b      	str	r3, [r7, #0]
878016e4:	f2c0 220e 	movt	r2, #526	; 0x20e
878016e8:	6033      	str	r3, [r6, #0]
878016ea:	f2c0 210e 	movt	r1, #526	; 0x20e
878016ee:	6003      	str	r3, [r0, #0]
878016f0:	f44f 7782 	mov.w	r7, #260	; 0x104
878016f4:	602b      	str	r3, [r5, #0]
878016f6:	f44f 7684 	mov.w	r6, #264	; 0x108
878016fa:	6023      	str	r3, [r4, #0]
878016fc:	f44f 7086 	mov.w	r0, #268	; 0x10c
87801700:	f240 55dc 	movw	r5, #1500	; 0x5dc
87801704:	f44f 7488 	mov.w	r4, #272	; 0x110
87801708:	6013      	str	r3, [r2, #0]
8780170a:	f2c0 270e 	movt	r7, #526	; 0x20e
8780170e:	600b      	str	r3, [r1, #0]
87801710:	f2c0 260e 	movt	r6, #526	; 0x20e
87801714:	f2c0 200e 	movt	r0, #526	; 0x20e
87801718:	f2c0 250e 	movt	r5, #526	; 0x20e
8780171c:	f2c0 240e 	movt	r4, #526	; 0x20e
87801720:	f44f 7269 	mov.w	r2, #932	; 0x3a4
87801724:	f44f 716a 	mov.w	r1, #936	; 0x3a8
87801728:	603b      	str	r3, [r7, #0]
8780172a:	f2c0 220e 	movt	r2, #526	; 0x20e
8780172e:	6033      	str	r3, [r6, #0]
87801730:	f2c0 210e 	movt	r1, #526	; 0x20e
87801734:	6003      	str	r3, [r0, #0]
87801736:	f44f 776b 	mov.w	r7, #940	; 0x3ac
8780173a:	602b      	str	r3, [r5, #0]
8780173c:	f44f 766c 	mov.w	r6, #944	; 0x3b0
87801740:	6023      	str	r3, [r4, #0]
87801742:	f44f 706d 	mov.w	r0, #948	; 0x3b4
87801746:	23b9      	movs	r3, #185	; 0xb9
87801748:	f2c0 270e 	movt	r7, #526	; 0x20e
8780174c:	6013      	str	r3, [r2, #0]
8780174e:	f2c0 260e 	movt	r6, #526	; 0x20e
87801752:	600b      	str	r3, [r1, #0]
87801754:	f2c0 200e 	movt	r0, #526	; 0x20e
87801758:	f44f 756e 	mov.w	r5, #952	; 0x3b8
8780175c:	f44f 746f 	mov.w	r4, #956	; 0x3bc
87801760:	f44f 7270 	mov.w	r2, #960	; 0x3c0
87801764:	f44f 7171 	mov.w	r1, #964	; 0x3c4
87801768:	603b      	str	r3, [r7, #0]
8780176a:	f2c0 250e 	movt	r5, #526	; 0x20e
8780176e:	6033      	str	r3, [r6, #0]
87801770:	f2c0 240e 	movt	r4, #526	; 0x20e
87801774:	6003      	str	r3, [r0, #0]
87801776:	f2c0 220e 	movt	r2, #526	; 0x20e
8780177a:	f2c0 210e 	movt	r1, #526	; 0x20e
8780177e:	f44f 7772 	mov.w	r7, #968	; 0x3c8
87801782:	f44f 7673 	mov.w	r6, #972	; 0x3cc
87801786:	f44f 7074 	mov.w	r0, #976	; 0x3d0
8780178a:	602b      	str	r3, [r5, #0]
8780178c:	f2c0 270e 	movt	r7, #526	; 0x20e
87801790:	6023      	str	r3, [r4, #0]
87801792:	f2c0 260e 	movt	r6, #526	; 0x20e
87801796:	6013      	str	r3, [r2, #0]
87801798:	f2c0 200e 	movt	r0, #526	; 0x20e
8780179c:	600b      	str	r3, [r1, #0]
8780179e:	f44f 7575 	mov.w	r5, #980	; 0x3d4
878017a2:	f44f 7476 	mov.w	r4, #984	; 0x3d8
878017a6:	f44f 7277 	mov.w	r2, #988	; 0x3dc
878017aa:	f44f 7178 	mov.w	r1, #992	; 0x3e0
878017ae:	603b      	str	r3, [r7, #0]
878017b0:	f2c0 250e 	movt	r5, #526	; 0x20e
878017b4:	6033      	str	r3, [r6, #0]
878017b6:	f2c0 240e 	movt	r4, #526	; 0x20e
878017ba:	6003      	str	r3, [r0, #0]
878017bc:	f2c0 220e 	movt	r2, #526	; 0x20e
878017c0:	f2c0 210e 	movt	r1, #526	; 0x20e
878017c4:	f44f 7779 	mov.w	r7, #996	; 0x3e4
878017c8:	f44f 767a 	mov.w	r6, #1000	; 0x3e8
878017cc:	f44f 707b 	mov.w	r0, #1004	; 0x3ec
878017d0:	602b      	str	r3, [r5, #0]
878017d2:	f2c0 270e 	movt	r7, #526	; 0x20e
878017d6:	6023      	str	r3, [r4, #0]
878017d8:	f2c0 260e 	movt	r6, #526	; 0x20e
878017dc:	6013      	str	r3, [r2, #0]
878017de:	f2c0 200e 	movt	r0, #526	; 0x20e
878017e2:	600b      	str	r3, [r1, #0]
878017e4:	f44f 757c 	mov.w	r5, #1008	; 0x3f0
878017e8:	f44f 747d 	mov.w	r4, #1012	; 0x3f4
878017ec:	f44f 727e 	mov.w	r2, #1016	; 0x3f8
878017f0:	f44f 717f 	mov.w	r1, #1020	; 0x3fc
878017f4:	603b      	str	r3, [r7, #0]
878017f6:	f2c0 250e 	movt	r5, #526	; 0x20e
878017fa:	6033      	str	r3, [r6, #0]
878017fc:	f2c0 240e 	movt	r4, #526	; 0x20e
87801800:	6003      	str	r3, [r0, #0]
87801802:	f2c0 220e 	movt	r2, #526	; 0x20e
87801806:	f2c0 210e 	movt	r1, #526	; 0x20e
8780180a:	f44f 6780 	mov.w	r7, #1024	; 0x400
8780180e:	f44f 7664 	mov.w	r6, #912	; 0x390
87801812:	f44f 7065 	mov.w	r0, #916	; 0x394
87801816:	602b      	str	r3, [r5, #0]
87801818:	f2c0 270e 	movt	r7, #526	; 0x20e
8780181c:	6023      	str	r3, [r4, #0]
8780181e:	f2c0 260e 	movt	r6, #526	; 0x20e
87801822:	6013      	str	r3, [r2, #0]
87801824:	f2c0 200e 	movt	r0, #526	; 0x20e
87801828:	600b      	str	r3, [r1, #0]
8780182a:	f44f 7566 	mov.w	r5, #920	; 0x398
8780182e:	f44f 7467 	mov.w	r4, #924	; 0x39c
87801832:	227c      	movs	r2, #124	; 0x7c
87801834:	f44f 7142 	mov.w	r1, #776	; 0x308
87801838:	603b      	str	r3, [r7, #0]
8780183a:	b085      	sub	sp, #20
8780183c:	6033      	str	r3, [r6, #0]
8780183e:	f2c0 250e 	movt	r5, #526	; 0x20e
87801842:	6003      	str	r3, [r0, #0]
87801844:	f2c0 240e 	movt	r4, #526	; 0x20e
87801848:	f2c0 220e 	movt	r2, #526	; 0x20e
8780184c:	f2c0 210e 	movt	r1, #526	; 0x20e
87801850:	2705      	movs	r7, #5
87801852:	f241 06b0 	movw	r6, #4272	; 0x10b0
87801856:	f44f 4040 	mov.w	r0, #49152	; 0xc000
8780185a:	602b      	str	r3, [r5, #0]
8780185c:	f2c0 2009 	movt	r0, #521	; 0x209
87801860:	6023      	str	r3, [r4, #0]
87801862:	2301      	movs	r3, #1
87801864:	6017      	str	r7, [r2, #0]
87801866:	aa01      	add	r2, sp, #4
87801868:	600e      	str	r6, [r1, #0]
8780186a:	2108      	movs	r1, #8
8780186c:	9301      	str	r3, [sp, #4]
8780186e:	f88d 3008 	strb.w	r3, [sp, #8]
87801872:	f7fe ffbb 	bl	878007ec <gpio_init>
87801876:	b005      	add	sp, #20
87801878:	bdf0      	pop	{r4, r5, r6, r7, pc}
8780187a:	bf00      	nop

8780187c <lcd_init>:
8780187c:	e92d 4ff8 	stmdb	sp!, {r3, r4, r5, r6, r7, r8, r9, sl, fp, lr}
87801880:	f44f 4400 	mov.w	r4, #32768	; 0x8000
87801884:	f7ff fe2e 	bl	878014e4 <lcd_read_panelid>
87801888:	4601      	mov	r1, r0
8780188a:	4605      	mov	r5, r0
8780188c:	f249 1004 	movw	r0, #37124	; 0x9104
87801890:	f2c0 241c 	movt	r4, #540	; 0x21c
87801894:	f2c8 7080 	movt	r0, #34688	; 0x8780
87801898:	f001 f9c8 	bl	87802c2c <printf>
8780189c:	f7ff feb2 	bl	87801604 <lcdgpio_init>
878018a0:	6823      	ldr	r3, [r4, #0]
878018a2:	200a      	movs	r0, #10
878018a4:	f043 4300 	orr.w	r3, r3, #2147483648	; 0x80000000
878018a8:	6023      	str	r3, [r4, #0]
878018aa:	f7fe fe77 	bl	8780059c <delay_ms>
878018ae:	6823      	ldr	r3, [r4, #0]
878018b0:	f244 3242 	movw	r2, #17218	; 0x4342
878018b4:	4295      	cmp	r5, r2
878018b6:	f023 4300 	bic.w	r3, r3, #2147483648	; 0x80000000
878018ba:	6023      	str	r3, [r4, #0]
878018bc:	d07f      	beq.n	878019be <lcd_init+0x142>
878018be:	f244 3384 	movw	r3, #17284	; 0x4384
878018c2:	429d      	cmp	r5, r3
878018c4:	f000 8095 	beq.w	878019f2 <lcd_init+0x176>
878018c8:	f247 0384 	movw	r3, #28804	; 0x7084
878018cc:	429d      	cmp	r5, r3
878018ce:	f000 80ac 	beq.w	87801a2a <lcd_init+0x1ae>
878018d2:	f247 0316 	movw	r3, #28694	; 0x7016
878018d6:	f649 74cc 	movw	r4, #40908	; 0x9fcc
878018da:	429d      	cmp	r5, r3
878018dc:	bf18      	it	ne
878018de:	f2c8 7480 	movtne	r4, #34688	; 0x8780
878018e2:	f000 80bd 	beq.w	87801a60 <lcd_init+0x1e4>
878018e6:	f44f 027f 	mov.w	r2, #16711680	; 0xff0000
878018ea:	f44f 4300 	mov.w	r3, #32768	; 0x8000
878018ee:	f2c0 231c 	movt	r3, #540	; 0x21c
878018f2:	61a2      	str	r2, [r4, #24]
878018f4:	f04f 0c00 	mov.w	ip, #0
878018f8:	f04f 4909 	mov.w	r9, #2298478592	; 0x89000000
878018fc:	2104      	movs	r1, #4
878018fe:	f06f 427f 	mvn.w	r2, #4278190080	; 0xff000000
87801902:	61e2      	str	r2, [r4, #28]
87801904:	2014      	movs	r0, #20
87801906:	7121      	strb	r1, [r4, #4]
87801908:	f8c4 9014 	str.w	r9, [r4, #20]
8780190c:	f8c3 c000 	str.w	ip, [r3]
87801910:	6819      	ldr	r1, [r3, #0]
87801912:	8866      	ldrh	r6, [r4, #2]
87801914:	f8b4 a00c 	ldrh.w	sl, [r4, #12]
87801918:	f441 2120 	orr.w	r1, r1, #655360	; 0xa0000
8780191c:	f8b4 e000 	ldrh.w	lr, [r4]
87801920:	f441 6172 	orr.w	r1, r1, #3872	; 0xf20
87801924:	f8b4 800e 	ldrh.w	r8, [r4, #14]
87801928:	8922      	ldrh	r2, [r4, #8]
8780192a:	6019      	str	r1, [r3, #0]
8780192c:	f8c3 c010 	str.w	ip, [r3, #16]
87801930:	44d0      	add	r8, sl
87801932:	f8d3 b010 	ldr.w	fp, [r3, #16]
87801936:	eb06 0708 	add.w	r7, r6, r8
8780193a:	88e1      	ldrh	r1, [r4, #6]
8780193c:	8a25      	ldrh	r5, [r4, #16]
8780193e:	f44b 2be0 	orr.w	fp, fp, #458752	; 0x70000
87801942:	440a      	add	r2, r1
87801944:	f8c3 b010 	str.w	fp, [r3, #16]
87801948:	ea46 4b0e 	orr.w	fp, r6, lr, lsl #16
8780194c:	4496      	add	lr, r2
8780194e:	ea42 4208 	orr.w	r2, r2, r8, lsl #16
87801952:	f8b4 800a 	ldrh.w	r8, [r4, #10]
87801956:	442f      	add	r7, r5
87801958:	f8c3 c030 	str.w	ip, [r3, #48]	; 0x30
8780195c:	f041 5189 	orr.w	r1, r1, #287309824	; 0x11200000
87801960:	ea47 478a 	orr.w	r7, r7, sl, lsl #18
87801964:	f441 1180 	orr.w	r1, r1, #1048576	; 0x100000
87801968:	f8c3 b030 	str.w	fp, [r3, #48]	; 0x30
8780196c:	f446 2680 	orr.w	r6, r6, #262144	; 0x40000
87801970:	f8c3 c070 	str.w	ip, [r3, #112]	; 0x70
87801974:	6719      	str	r1, [r3, #112]	; 0x70
87801976:	eb0e 0108 	add.w	r1, lr, r8
8780197a:	f8c3 1080 	str.w	r1, [r3, #128]	; 0x80
8780197e:	f8c3 7090 	str.w	r7, [r3, #144]	; 0x90
87801982:	f8c3 20a0 	str.w	r2, [r3, #160]	; 0xa0
87801986:	f8c3 60b0 	str.w	r6, [r3, #176]	; 0xb0
8780198a:	f8c3 9040 	str.w	r9, [r3, #64]	; 0x40
8780198e:	f8c3 9050 	str.w	r9, [r3, #80]	; 0x50
87801992:	681a      	ldr	r2, [r3, #0]
87801994:	f042 0201 	orr.w	r2, r2, #1
87801998:	601a      	str	r2, [r3, #0]
8780199a:	f7fe fdff 	bl	8780059c <delay_ms>
8780199e:	8861      	ldrh	r1, [r4, #2]
878019a0:	8822      	ldrh	r2, [r4, #0]
878019a2:	6963      	ldr	r3, [r4, #20]
878019a4:	fb02 f201 	mul.w	r2, r2, r1
878019a8:	b13a      	cbz	r2, 878019ba <lcd_init+0x13e>
878019aa:	eb03 0282 	add.w	r2, r3, r2, lsl #2
878019ae:	f06f 457f 	mvn.w	r5, #4278190080	; 0xff000000
878019b2:	f843 5b04 	str.w	r5, [r3], #4
878019b6:	4293      	cmp	r3, r2
878019b8:	d1fb      	bne.n	878019b2 <lcd_init+0x136>
878019ba:	e8bd 8ff8 	ldmia.w	sp!, {r3, r4, r5, r6, r7, r8, r9, sl, fp, pc}
878019be:	f649 74cc 	movw	r4, #40908	; 0x9fcc
878019c2:	2308      	movs	r3, #8
878019c4:	f2c8 7480 	movt	r4, #34688	; 0x8780
878019c8:	f44f 7188 	mov.w	r1, #272	; 0x110
878019cc:	f44f 70f0 	mov.w	r0, #480	; 0x1e0
878019d0:	2501      	movs	r5, #1
878019d2:	2728      	movs	r7, #40	; 0x28
878019d4:	2605      	movs	r6, #5
878019d6:	8021      	strh	r1, [r4, #0]
878019d8:	461a      	mov	r2, r3
878019da:	8060      	strh	r0, [r4, #2]
878019dc:	4619      	mov	r1, r3
878019de:	201b      	movs	r0, #27
878019e0:	81e7      	strh	r7, [r4, #14]
878019e2:	8226      	strh	r6, [r4, #16]
878019e4:	80e5      	strh	r5, [r4, #6]
878019e6:	81a5      	strh	r5, [r4, #12]
878019e8:	8123      	strh	r3, [r4, #8]
878019ea:	8163      	strh	r3, [r4, #10]
878019ec:	f7ff fd28 	bl	87801440 <lcdclk_init>
878019f0:	e779      	b.n	878018e6 <lcd_init+0x6a>
878019f2:	f649 74cc 	movw	r4, #40908	; 0x9fcc
878019f6:	f44f 73f0 	mov.w	r3, #480	; 0x1e0
878019fa:	f2c8 7480 	movt	r4, #34688	; 0x8780
878019fe:	f44f 7248 	mov.w	r2, #800	; 0x320
87801a02:	2103      	movs	r1, #3
87801a04:	2020      	movs	r0, #32
87801a06:	270d      	movs	r7, #13
87801a08:	2630      	movs	r6, #48	; 0x30
87801a0a:	2558      	movs	r5, #88	; 0x58
87801a0c:	8023      	strh	r3, [r4, #0]
87801a0e:	8062      	strh	r2, [r4, #2]
87801a10:	2328      	movs	r3, #40	; 0x28
87801a12:	80e1      	strh	r1, [r4, #6]
87801a14:	2208      	movs	r2, #8
87801a16:	8120      	strh	r0, [r4, #8]
87801a18:	2104      	movs	r1, #4
87801a1a:	202a      	movs	r0, #42	; 0x2a
87801a1c:	8167      	strh	r7, [r4, #10]
87801a1e:	81a6      	strh	r6, [r4, #12]
87801a20:	81e5      	strh	r5, [r4, #14]
87801a22:	8223      	strh	r3, [r4, #16]
87801a24:	f7ff fd0c 	bl	87801440 <lcdclk_init>
87801a28:	e75d      	b.n	878018e6 <lcd_init+0x6a>
87801a2a:	f649 74cc 	movw	r4, #40908	; 0x9fcc
87801a2e:	f44f 72f0 	mov.w	r2, #480	; 0x1e0
87801a32:	f2c8 7480 	movt	r4, #34688	; 0x8780
87801a36:	f44f 7148 	mov.w	r1, #800	; 0x320
87801a3a:	2017      	movs	r0, #23
87801a3c:	2301      	movs	r3, #1
87801a3e:	2716      	movs	r7, #22
87801a40:	262e      	movs	r6, #46	; 0x2e
87801a42:	25d2      	movs	r5, #210	; 0xd2
87801a44:	8022      	strh	r2, [r4, #0]
87801a46:	8061      	strh	r1, [r4, #2]
87801a48:	2207      	movs	r2, #7
87801a4a:	8120      	strh	r0, [r4, #8]
87801a4c:	2103      	movs	r1, #3
87801a4e:	201e      	movs	r0, #30
87801a50:	8167      	strh	r7, [r4, #10]
87801a52:	81e6      	strh	r6, [r4, #14]
87801a54:	8225      	strh	r5, [r4, #16]
87801a56:	80e3      	strh	r3, [r4, #6]
87801a58:	81a3      	strh	r3, [r4, #12]
87801a5a:	f7ff fcf1 	bl	87801440 <lcdclk_init>
87801a5e:	e742      	b.n	878018e6 <lcd_init+0x6a>
87801a60:	f2c8 7480 	movt	r4, #34688	; 0x8780
87801a64:	2503      	movs	r5, #3
87801a66:	f44f 7316 	mov.w	r3, #600	; 0x258
87801a6a:	f44f 6280 	mov.w	r2, #1024	; 0x400
87801a6e:	200c      	movs	r0, #12
87801a70:	278c      	movs	r7, #140	; 0x8c
87801a72:	26a0      	movs	r6, #160	; 0xa0
87801a74:	8023      	strh	r3, [r4, #0]
87801a76:	8062      	strh	r2, [r4, #2]
87801a78:	2314      	movs	r3, #20
87801a7a:	8160      	strh	r0, [r4, #10]
87801a7c:	4629      	mov	r1, r5
87801a7e:	2205      	movs	r2, #5
87801a80:	2020      	movs	r0, #32
87801a82:	81e7      	strh	r7, [r4, #14]
87801a84:	8226      	strh	r6, [r4, #16]
87801a86:	80e5      	strh	r5, [r4, #6]
87801a88:	8123      	strh	r3, [r4, #8]
87801a8a:	81a3      	strh	r3, [r4, #12]
87801a8c:	f7ff fcd8 	bl	87801440 <lcdclk_init>
87801a90:	e729      	b.n	878018e6 <lcd_init+0x6a>
87801a92:	bf00      	nop

87801a94 <lcd_drawpoint>:
87801a94:	b430      	push	{r4, r5}
87801a96:	f649 74cc 	movw	r4, #40908	; 0x9fcc
87801a9a:	f2c8 7480 	movt	r4, #34688	; 0x8780
87801a9e:	8863      	ldrh	r3, [r4, #2]
87801aa0:	7925      	ldrb	r5, [r4, #4]
87801aa2:	6964      	ldr	r4, [r4, #20]
87801aa4:	fb01 0103 	mla	r1, r1, r3, r0
87801aa8:	fb01 f105 	mul.w	r1, r1, r5
87801aac:	510a      	str	r2, [r1, r4]
87801aae:	bc30      	pop	{r4, r5}
87801ab0:	4770      	bx	lr
87801ab2:	bf00      	nop

87801ab4 <lcd_readpoint>:
87801ab4:	f649 72cc 	movw	r2, #40908	; 0x9fcc
87801ab8:	b410      	push	{r4}
87801aba:	f2c8 7280 	movt	r2, #34688	; 0x8780
87801abe:	8853      	ldrh	r3, [r2, #2]
87801ac0:	7914      	ldrb	r4, [r2, #4]
87801ac2:	6952      	ldr	r2, [r2, #20]
87801ac4:	fb01 0103 	mla	r1, r1, r3, r0
87801ac8:	fb01 f104 	mul.w	r1, r1, r4
87801acc:	f85d 4b04 	ldr.w	r4, [sp], #4
87801ad0:	5888      	ldr	r0, [r1, r2]
87801ad2:	4770      	bx	lr

87801ad4 <lcd_clear>:
87801ad4:	f649 73cc 	movw	r3, #40908	; 0x9fcc
87801ad8:	f2c8 7380 	movt	r3, #34688	; 0x8780
87801adc:	8859      	ldrh	r1, [r3, #2]
87801ade:	881a      	ldrh	r2, [r3, #0]
87801ae0:	695b      	ldr	r3, [r3, #20]
87801ae2:	fb02 f201 	mul.w	r2, r2, r1
87801ae6:	b12a      	cbz	r2, 87801af4 <lcd_clear+0x20>
87801ae8:	eb03 0282 	add.w	r2, r3, r2, lsl #2
87801aec:	f843 0b04 	str.w	r0, [r3], #4
87801af0:	4293      	cmp	r3, r2
87801af2:	d1fb      	bne.n	87801aec <lcd_clear+0x18>
87801af4:	4770      	bx	lr
87801af6:	bf00      	nop

87801af8 <lcd_fill>:
87801af8:	e92d 43f0 	stmdb	sp!, {r4, r5, r6, r7, r8, r9, lr}
87801afc:	f649 76cc 	movw	r6, #40908	; 0x9fcc
87801b00:	f2c8 7680 	movt	r6, #34688	; 0x8780
87801b04:	4699      	mov	r9, r3
87801b06:	f8b6 8002 	ldrh.w	r8, [r6, #2]
87801b0a:	8834      	ldrh	r4, [r6, #0]
87801b0c:	9b07      	ldr	r3, [sp, #28]
87801b0e:	4590      	cmp	r8, r2
87801b10:	bf9c      	itt	ls
87801b12:	f108 32ff 	addls.w	r2, r8, #4294967295	; 0xffffffff
87801b16:	b292      	uxthls	r2, r2
87801b18:	454c      	cmp	r4, r9
87801b1a:	bf9c      	itt	ls
87801b1c:	f104 34ff 	addls.w	r4, r4, #4294967295	; 0xffffffff
87801b20:	fa1f f984 	uxthls.w	r9, r4
87801b24:	4589      	cmp	r9, r1
87801b26:	d316      	bcc.n	87801b56 <lcd_fill+0x5e>
87801b28:	4282      	cmp	r2, r0
87801b2a:	d30e      	bcc.n	87801b4a <lcd_fill+0x52>
87801b2c:	fb01 fc08 	mul.w	ip, r1, r8
87801b30:	4604      	mov	r4, r0
87801b32:	f896 e004 	ldrb.w	lr, [r6, #4]
87801b36:	eb04 050c 	add.w	r5, r4, ip
87801b3a:	3401      	adds	r4, #1
87801b3c:	6977      	ldr	r7, [r6, #20]
87801b3e:	b2a4      	uxth	r4, r4
87801b40:	fb05 f50e 	mul.w	r5, r5, lr
87801b44:	42a2      	cmp	r2, r4
87801b46:	51eb      	str	r3, [r5, r7]
87801b48:	d2f3      	bcs.n	87801b32 <lcd_fill+0x3a>
87801b4a:	3101      	adds	r1, #1
87801b4c:	b289      	uxth	r1, r1
87801b4e:	4589      	cmp	r9, r1
87801b50:	d2ea      	bcs.n	87801b28 <lcd_fill+0x30>
87801b52:	e8bd 83f0 	ldmia.w	sp!, {r4, r5, r6, r7, r8, r9, pc}
87801b56:	e8bd 83f0 	ldmia.w	sp!, {r4, r5, r6, r7, r8, r9, pc}
87801b5a:	bf00      	nop

87801b5c <rtc_isleapyear.part.0>:
87801b5c:	0783      	lsls	r3, r0, #30
87801b5e:	d111      	bne.n	87801b84 <rtc_isleapyear.part.0+0x28>
87801b60:	f248 521f 	movw	r2, #34079	; 0x851f
87801b64:	f2c5 12eb 	movt	r2, #20971	; 0x51eb
87801b68:	fba0 2302 	umull	r2, r3, r0, r2
87801b6c:	095a      	lsrs	r2, r3, #5
87801b6e:	0113      	lsls	r3, r2, #4
87801b70:	eb03 0382 	add.w	r3, r3, r2, lsl #2
87801b74:	eb03 0383 	add.w	r3, r3, r3, lsl #2
87801b78:	1ac0      	subs	r0, r0, r3
87801b7a:	b280      	uxth	r0, r0
87801b7c:	3000      	adds	r0, #0
87801b7e:	bf18      	it	ne
87801b80:	2001      	movne	r0, #1
87801b82:	4770      	bx	lr
87801b84:	2000      	movs	r0, #0
87801b86:	4770      	bx	lr

87801b88 <rtc_enable>:
87801b88:	f44f 4340 	mov.w	r3, #49152	; 0xc000
87801b8c:	f2c0 230c 	movt	r3, #524	; 0x20c
87801b90:	6b99      	ldr	r1, [r3, #56]	; 0x38
87801b92:	461a      	mov	r2, r3
87801b94:	f041 0101 	orr.w	r1, r1, #1
87801b98:	6399      	str	r1, [r3, #56]	; 0x38
87801b9a:	6b93      	ldr	r3, [r2, #56]	; 0x38
87801b9c:	07db      	lsls	r3, r3, #31
87801b9e:	d5fc      	bpl.n	87801b9a <rtc_enable+0x12>
87801ba0:	4770      	bx	lr
87801ba2:	bf00      	nop

87801ba4 <rtc_disable>:
87801ba4:	f44f 4340 	mov.w	r3, #49152	; 0xc000
87801ba8:	f2c0 230c 	movt	r3, #524	; 0x20c
87801bac:	6b99      	ldr	r1, [r3, #56]	; 0x38
87801bae:	461a      	mov	r2, r3
87801bb0:	f021 0101 	bic.w	r1, r1, #1
87801bb4:	6399      	str	r1, [r3, #56]	; 0x38
87801bb6:	6b93      	ldr	r3, [r2, #56]	; 0x38
87801bb8:	07db      	lsls	r3, r3, #31
87801bba:	d4fc      	bmi.n	87801bb6 <rtc_disable+0x12>
87801bbc:	4770      	bx	lr
87801bbe:	bf00      	nop

87801bc0 <rtc_coverdate_to_seconds>:
87801bc0:	e92d 41f0 	stmdb	sp!, {r4, r5, r6, r7, r8, lr}
87801bc4:	f249 1e14 	movw	lr, #37140	; 0x9114
87801bc8:	f2c8 7e80 	movt	lr, #34688	; 0x8780
87801bcc:	4605      	mov	r5, r0
87801bce:	b088      	sub	sp, #32
87801bd0:	f240 74b2 	movw	r4, #1970	; 0x7b2
87801bd4:	f8de 0000 	ldr.w	r0, [lr]
87801bd8:	ae01      	add	r6, sp, #4
87801bda:	f8de 1004 	ldr.w	r1, [lr, #4]
87801bde:	f8de 2008 	ldr.w	r2, [lr, #8]
87801be2:	f8de 300c 	ldr.w	r3, [lr, #12]
87801be6:	882f      	ldrh	r7, [r5, #0]
87801be8:	f8be c018 	ldrh.w	ip, [lr, #24]
87801bec:	c60f      	stmia	r6!, {r0, r1, r2, r3}
87801bee:	f8de 0010 	ldr.w	r0, [lr, #16]
87801bf2:	42a7      	cmp	r7, r4
87801bf4:	f8de 1014 	ldr.w	r1, [lr, #20]
87801bf8:	c603      	stmia	r6!, {r0, r1}
87801bfa:	f8a6 c000 	strh.w	ip, [r6]
87801bfe:	d958      	bls.n	87801cb2 <rtc_coverdate_to_seconds+0xf2>
87801c00:	f248 581f 	movw	r8, #34079	; 0x851f
87801c04:	2600      	movs	r6, #0
87801c06:	f2c5 18eb 	movt	r8, #20971	; 0x51eb
87801c0a:	e008      	b.n	87801c1e <rtc_coverdate_to_seconds+0x5e>
87801c0c:	f7ff ffa6 	bl	87801b5c <rtc_isleapyear.part.0>
87801c10:	b990      	cbnz	r0, 87801c38 <rtc_coverdate_to_seconds+0x78>
87801c12:	3401      	adds	r4, #1
87801c14:	f206 166d 	addw	r6, r6, #365	; 0x16d
87801c18:	b2a4      	uxth	r4, r4
87801c1a:	42bc      	cmp	r4, r7
87801c1c:	d012      	beq.n	87801c44 <rtc_coverdate_to_seconds+0x84>
87801c1e:	fba4 2308 	umull	r2, r3, r4, r8
87801c22:	4620      	mov	r0, r4
87801c24:	09da      	lsrs	r2, r3, #7
87801c26:	0193      	lsls	r3, r2, #6
87801c28:	eb03 1302 	add.w	r3, r3, r2, lsl #4
87801c2c:	eb03 0383 	add.w	r3, r3, r3, lsl #2
87801c30:	1ae3      	subs	r3, r4, r3
87801c32:	b29b      	uxth	r3, r3
87801c34:	2b00      	cmp	r3, #0
87801c36:	d1e9      	bne.n	87801c0c <rtc_coverdate_to_seconds+0x4c>
87801c38:	3401      	adds	r4, #1
87801c3a:	f506 76b7 	add.w	r6, r6, #366	; 0x16e
87801c3e:	b2a4      	uxth	r4, r4
87801c40:	42bc      	cmp	r4, r7
87801c42:	d1ec      	bne.n	87801c1e <rtc_coverdate_to_seconds+0x5e>
87801c44:	f248 521f 	movw	r2, #34079	; 0x851f
87801c48:	f895 8002 	ldrb.w	r8, [r5, #2]
87801c4c:	f2c5 12eb 	movt	r2, #20971	; 0x51eb
87801c50:	a908      	add	r1, sp, #32
87801c52:	fba7 2302 	umull	r2, r3, r7, r2
87801c56:	eb01 0248 	add.w	r2, r1, r8, lsl #1
87801c5a:	f832 0c1c 	ldrh.w	r0, [r2, #-28]
87801c5e:	09da      	lsrs	r2, r3, #7
87801c60:	0193      	lsls	r3, r2, #6
87801c62:	4406      	add	r6, r0
87801c64:	eb03 1302 	add.w	r3, r3, r2, lsl #4
87801c68:	eb03 0383 	add.w	r3, r3, r3, lsl #2
87801c6c:	1afb      	subs	r3, r7, r3
87801c6e:	b29b      	uxth	r3, r3
87801c70:	bb3b      	cbnz	r3, 87801cc2 <rtc_coverdate_to_seconds+0x102>
87801c72:	f1b8 0f02 	cmp.w	r8, #2
87801c76:	bf88      	it	hi
87801c78:	3601      	addhi	r6, #1
87801c7a:	792a      	ldrb	r2, [r5, #4]
87801c7c:	f44f 47a3 	mov.w	r7, #20864	; 0x5180
87801c80:	f895 e005 	ldrb.w	lr, [r5, #5]
87801c84:	f2c0 0701 	movt	r7, #1
87801c88:	78eb      	ldrb	r3, [r5, #3]
87801c8a:	79a8      	ldrb	r0, [r5, #6]
87801c8c:	0211      	lsls	r1, r2, #8
87801c8e:	ea4f 148e 	mov.w	r4, lr, lsl #6
87801c92:	3b01      	subs	r3, #1
87801c94:	eba1 1202 	sub.w	r2, r1, r2, lsl #4
87801c98:	441e      	add	r6, r3
87801c9a:	eba4 038e 	sub.w	r3, r4, lr, lsl #2
87801c9e:	2100      	movs	r1, #0
87801ca0:	ebc2 1202 	rsb	r2, r2, r2, lsl #4
87801ca4:	441a      	add	r2, r3
87801ca6:	4402      	add	r2, r0
87801ca8:	fb07 2006 	mla	r0, r7, r6, r2
87801cac:	b008      	add	sp, #32
87801cae:	e8bd 81f0 	ldmia.w	sp!, {r4, r5, r6, r7, r8, pc}
87801cb2:	f895 8002 	ldrb.w	r8, [r5, #2]
87801cb6:	ab08      	add	r3, sp, #32
87801cb8:	4627      	mov	r7, r4
87801cba:	eb03 0348 	add.w	r3, r3, r8, lsl #1
87801cbe:	f833 6c1c 	ldrh.w	r6, [r3, #-28]
87801cc2:	4638      	mov	r0, r7
87801cc4:	f7ff ff4a 	bl	87801b5c <rtc_isleapyear.part.0>
87801cc8:	2800      	cmp	r0, #0
87801cca:	d0d6      	beq.n	87801c7a <rtc_coverdate_to_seconds+0xba>
87801ccc:	e7d1      	b.n	87801c72 <rtc_coverdate_to_seconds+0xb2>
87801cce:	bf00      	nop

87801cd0 <rtc_setdatetime>:
87801cd0:	b538      	push	{r3, r4, r5, lr}
87801cd2:	f44f 4340 	mov.w	r3, #49152	; 0xc000
87801cd6:	f2c0 230c 	movt	r3, #524	; 0x20c
87801cda:	461a      	mov	r2, r3
87801cdc:	6b9d      	ldr	r5, [r3, #56]	; 0x38
87801cde:	6b99      	ldr	r1, [r3, #56]	; 0x38
87801ce0:	f021 0101 	bic.w	r1, r1, #1
87801ce4:	6399      	str	r1, [r3, #56]	; 0x38
87801ce6:	6b93      	ldr	r3, [r2, #56]	; 0x38
87801ce8:	f44f 4440 	mov.w	r4, #49152	; 0xc000
87801cec:	f2c0 240c 	movt	r4, #524	; 0x20c
87801cf0:	07d9      	lsls	r1, r3, #31
87801cf2:	d4f8      	bmi.n	87801ce6 <rtc_setdatetime+0x16>
87801cf4:	f7ff ff64 	bl	87801bc0 <rtc_coverdate_to_seconds>
87801cf8:	03c3      	lsls	r3, r0, #15
87801cfa:	0c40      	lsrs	r0, r0, #17
87801cfc:	07ea      	lsls	r2, r5, #31
87801cfe:	ea40 30c1 	orr.w	r0, r0, r1, lsl #15
87801d02:	6520      	str	r0, [r4, #80]	; 0x50
87801d04:	6563      	str	r3, [r4, #84]	; 0x54
87801d06:	d507      	bpl.n	87801d18 <rtc_setdatetime+0x48>
87801d08:	6ba3      	ldr	r3, [r4, #56]	; 0x38
87801d0a:	4622      	mov	r2, r4
87801d0c:	f043 0301 	orr.w	r3, r3, #1
87801d10:	63a3      	str	r3, [r4, #56]	; 0x38
87801d12:	6b93      	ldr	r3, [r2, #56]	; 0x38
87801d14:	07db      	lsls	r3, r3, #31
87801d16:	d5fc      	bpl.n	87801d12 <rtc_setdatetime+0x42>
87801d18:	bd38      	pop	{r3, r4, r5, pc}
87801d1a:	bf00      	nop

87801d1c <rtc_init>:
87801d1c:	b5f0      	push	{r4, r5, r6, r7, lr}
87801d1e:	f44f 4440 	mov.w	r4, #49152	; 0xc000
87801d22:	f2c0 240c 	movt	r4, #524	; 0x20c
87801d26:	b083      	sub	sp, #12
87801d28:	2200      	movs	r2, #0
87801d2a:	f240 7ee7 	movw	lr, #2023	; 0x7e7
87801d2e:	6863      	ldr	r3, [r4, #4]
87801d30:	2137      	movs	r1, #55	; 0x37
87801d32:	270c      	movs	r7, #12
87801d34:	2615      	movs	r6, #21
87801d36:	2517      	movs	r5, #23
87801d38:	4668      	mov	r0, sp
87801d3a:	f043 4300 	orr.w	r3, r3, #2147483648	; 0x80000000
87801d3e:	f443 7380 	orr.w	r3, r3, #256	; 0x100
87801d42:	6063      	str	r3, [r4, #4]
87801d44:	f88d 2006 	strb.w	r2, [sp, #6]
87801d48:	f8ad e000 	strh.w	lr, [sp]
87801d4c:	f88d 7002 	strb.w	r7, [sp, #2]
87801d50:	f88d 6003 	strb.w	r6, [sp, #3]
87801d54:	f88d 5004 	strb.w	r5, [sp, #4]
87801d58:	f88d 1005 	strb.w	r1, [sp, #5]
87801d5c:	f7ff ffb8 	bl	87801cd0 <rtc_setdatetime>
87801d60:	6ba3      	ldr	r3, [r4, #56]	; 0x38
87801d62:	4622      	mov	r2, r4
87801d64:	f043 0301 	orr.w	r3, r3, #1
87801d68:	63a3      	str	r3, [r4, #56]	; 0x38
87801d6a:	6b93      	ldr	r3, [r2, #56]	; 0x38
87801d6c:	07db      	lsls	r3, r3, #31
87801d6e:	d5fc      	bpl.n	87801d6a <rtc_init+0x4e>
87801d70:	b003      	add	sp, #12
87801d72:	bdf0      	pop	{r4, r5, r6, r7, pc}

87801d74 <rtc_getseconds>:
87801d74:	f44f 4240 	mov.w	r2, #49152	; 0xc000
87801d78:	2100      	movs	r1, #0
87801d7a:	f2c0 220c 	movt	r2, #524	; 0x20c
87801d7e:	6d13      	ldr	r3, [r2, #80]	; 0x50
87801d80:	6d50      	ldr	r0, [r2, #84]	; 0x54
87801d82:	045b      	lsls	r3, r3, #17
87801d84:	ea43 30d0 	orr.w	r0, r3, r0, lsr #15
87801d88:	4770      	bx	lr
87801d8a:	bf00      	nop

87801d8c <rtc_isleapyear>:
87801d8c:	b430      	push	{r4, r5}
87801d8e:	f248 541f 	movw	r4, #34079	; 0x851f
87801d92:	f2c5 14eb 	movt	r4, #20971	; 0x51eb
87801d96:	fba0 4504 	umull	r4, r5, r0, r4
87801d9a:	09e9      	lsrs	r1, r5, #7
87801d9c:	018a      	lsls	r2, r1, #6
87801d9e:	eb02 1201 	add.w	r2, r2, r1, lsl #4
87801da2:	eb02 0282 	add.w	r2, r2, r2, lsl #2
87801da6:	1a83      	subs	r3, r0, r2
87801da8:	b29b      	uxth	r3, r3
87801daa:	b10b      	cbz	r3, 87801db0 <rtc_isleapyear+0x24>
87801dac:	bc30      	pop	{r4, r5}
87801dae:	e6d5      	b.n	87801b5c <rtc_isleapyear.part.0>
87801db0:	2001      	movs	r0, #1
87801db2:	bc30      	pop	{r4, r5}
87801db4:	4770      	bx	lr
87801db6:	bf00      	nop

87801db8 <rtc_convertseconds_to_datetime>:
87801db8:	f244 5207 	movw	r2, #17671	; 0x4507
87801dbc:	e92d 43f0 	stmdb	sp!, {r4, r5, r6, r7, r8, r9, lr}
87801dc0:	f2cc 222e 	movt	r2, #49710	; 0xc22e
87801dc4:	f44f 4ca3 	mov.w	ip, #20864	; 0x5180
87801dc8:	fba0 2302 	umull	r2, r3, r0, r2
87801dcc:	f2c0 0c01 	movt	ip, #1
87801dd0:	f24b 38c5 	movw	r8, #46021	; 0xb3c5
87801dd4:	f8df e104 	ldr.w	lr, [pc, #260]	; 87801edc <rtc_convertseconds_to_datetime+0x124>
87801dd8:	f2c9 18a2 	movt	r8, #37282	; 0x91a2
87801ddc:	460f      	mov	r7, r1
87801dde:	b085      	sub	sp, #20
87801de0:	f8de 1004 	ldr.w	r1, [lr, #4]
87801de4:	466c      	mov	r4, sp
87801de6:	0c1d      	lsrs	r5, r3, #16
87801de8:	f8de 2008 	ldr.w	r2, [lr, #8]
87801dec:	f648 0689 	movw	r6, #34953	; 0x8889
87801df0:	fb0c 0315 	mls	r3, ip, r5, r0
87801df4:	f8de 0000 	ldr.w	r0, [lr]
87801df8:	f89e e00c 	ldrb.w	lr, [lr, #12]
87801dfc:	f6c8 0688 	movt	r6, #34952	; 0x8888
87801e00:	c407      	stmia	r4!, {r0, r1, r2}
87801e02:	f240 116d 	movw	r1, #365	; 0x16d
87801e06:	fba3 8908 	umull	r8, r9, r3, r8
87801e0a:	f248 581f 	movw	r8, #34079	; 0x851f
87801e0e:	3501      	adds	r5, #1
87801e10:	f2c5 18eb 	movt	r8, #20971	; 0x51eb
87801e14:	f884 e000 	strb.w	lr, [r4]
87801e18:	f240 74b2 	movw	r4, #1970	; 0x7b2
87801e1c:	803c      	strh	r4, [r7, #0]
87801e1e:	ea4f 20d9 	mov.w	r0, r9, lsr #11
87801e22:	0202      	lsls	r2, r0, #8
87801e24:	7138      	strb	r0, [r7, #4]
87801e26:	eba2 1000 	sub.w	r0, r2, r0, lsl #4
87801e2a:	ebc0 1000 	rsb	r0, r0, r0, lsl #4
87801e2e:	1a18      	subs	r0, r3, r0
87801e30:	fba0 2306 	umull	r2, r3, r0, r6
87801e34:	460e      	mov	r6, r1
87801e36:	095a      	lsrs	r2, r3, #5
87801e38:	0193      	lsls	r3, r2, #6
87801e3a:	717a      	strb	r2, [r7, #5]
87801e3c:	eba3 0382 	sub.w	r3, r3, r2, lsl #2
87801e40:	1ac3      	subs	r3, r0, r3
87801e42:	71bb      	strb	r3, [r7, #6]
87801e44:	428d      	cmp	r5, r1
87801e46:	f104 0301 	add.w	r3, r4, #1
87801e4a:	d91c      	bls.n	87801e86 <rtc_convertseconds_to_datetime+0xce>
87801e4c:	b29c      	uxth	r4, r3
87801e4e:	1a6d      	subs	r5, r5, r1
87801e50:	f44f 71b7 	mov.w	r1, #366	; 0x16e
87801e54:	fba4 2308 	umull	r2, r3, r4, r8
87801e58:	4620      	mov	r0, r4
87801e5a:	803c      	strh	r4, [r7, #0]
87801e5c:	09da      	lsrs	r2, r3, #7
87801e5e:	0193      	lsls	r3, r2, #6
87801e60:	eb03 1302 	add.w	r3, r3, r2, lsl #4
87801e64:	eb03 0383 	add.w	r3, r3, r3, lsl #2
87801e68:	1ae3      	subs	r3, r4, r3
87801e6a:	b29b      	uxth	r3, r3
87801e6c:	2b00      	cmp	r3, #0
87801e6e:	d0e9      	beq.n	87801e44 <rtc_convertseconds_to_datetime+0x8c>
87801e70:	f7ff fe74 	bl	87801b5c <rtc_isleapyear.part.0>
87801e74:	2800      	cmp	r0, #0
87801e76:	f104 0301 	add.w	r3, r4, #1
87801e7a:	bf0c      	ite	eq
87801e7c:	4631      	moveq	r1, r6
87801e7e:	f44f 71b7 	movne.w	r1, #366	; 0x16e
87801e82:	428d      	cmp	r5, r1
87801e84:	d8e2      	bhi.n	87801e4c <rtc_convertseconds_to_datetime+0x94>
87801e86:	f248 521f 	movw	r2, #34079	; 0x851f
87801e8a:	f2c5 12eb 	movt	r2, #20971	; 0x51eb
87801e8e:	fba4 2302 	umull	r2, r3, r4, r2
87801e92:	09da      	lsrs	r2, r3, #7
87801e94:	0193      	lsls	r3, r2, #6
87801e96:	eb03 1302 	add.w	r3, r3, r2, lsl #4
87801e9a:	eb03 0383 	add.w	r3, r3, r3, lsl #2
87801e9e:	1ae3      	subs	r3, r4, r3
87801ea0:	b29b      	uxth	r3, r3
87801ea2:	b18b      	cbz	r3, 87801ec8 <rtc_convertseconds_to_datetime+0x110>
87801ea4:	4620      	mov	r0, r4
87801ea6:	f7ff fe59 	bl	87801b5c <rtc_isleapyear.part.0>
87801eaa:	b968      	cbnz	r0, 87801ec8 <rtc_convertseconds_to_datetime+0x110>
87801eac:	4669      	mov	r1, sp
87801eae:	2301      	movs	r3, #1
87801eb0:	f811 2f01 	ldrb.w	r2, [r1, #1]!
87801eb4:	42aa      	cmp	r2, r5
87801eb6:	d20b      	bcs.n	87801ed0 <rtc_convertseconds_to_datetime+0x118>
87801eb8:	3301      	adds	r3, #1
87801eba:	1aad      	subs	r5, r5, r2
87801ebc:	2b0d      	cmp	r3, #13
87801ebe:	d1f7      	bne.n	87801eb0 <rtc_convertseconds_to_datetime+0xf8>
87801ec0:	70fd      	strb	r5, [r7, #3]
87801ec2:	b005      	add	sp, #20
87801ec4:	e8bd 83f0 	ldmia.w	sp!, {r4, r5, r6, r7, r8, r9, pc}
87801ec8:	231d      	movs	r3, #29
87801eca:	f88d 3002 	strb.w	r3, [sp, #2]
87801ece:	e7ed      	b.n	87801eac <rtc_convertseconds_to_datetime+0xf4>
87801ed0:	70bb      	strb	r3, [r7, #2]
87801ed2:	70fd      	strb	r5, [r7, #3]
87801ed4:	b005      	add	sp, #20
87801ed6:	e8bd 83f0 	ldmia.w	sp!, {r4, r5, r6, r7, r8, r9, pc}
87801eda:	bf00      	nop
87801edc:	87809130 			; <UNDEFINED> instruction: 0x87809130

87801ee0 <rtc_getdatetime>:
87801ee0:	f44f 4240 	mov.w	r2, #49152	; 0xc000
87801ee4:	4601      	mov	r1, r0
87801ee6:	f2c0 220c 	movt	r2, #524	; 0x20c
87801eea:	6d13      	ldr	r3, [r2, #80]	; 0x50
87801eec:	6d50      	ldr	r0, [r2, #84]	; 0x54
87801eee:	045b      	lsls	r3, r3, #17
87801ef0:	ea43 30d0 	orr.w	r0, r3, r0, lsr #15
87801ef4:	f7ff bf60 	b.w	87801db8 <rtc_convertseconds_to_datetime>

87801ef8 <i2c_check_and_clear_error.part.1>:
87801ef8:	4602      	mov	r2, r0
87801efa:	2004      	movs	r0, #4
87801efc:	8993      	ldrh	r3, [r2, #12]
87801efe:	f023 0310 	bic.w	r3, r3, #16
87801f02:	041b      	lsls	r3, r3, #16
87801f04:	0c1b      	lsrs	r3, r3, #16
87801f06:	8193      	strh	r3, [r2, #12]
87801f08:	8913      	ldrh	r3, [r2, #8]
87801f0a:	f023 0380 	bic.w	r3, r3, #128	; 0x80
87801f0e:	041b      	lsls	r3, r3, #16
87801f10:	0c1b      	lsrs	r3, r3, #16
87801f12:	8113      	strh	r3, [r2, #8]
87801f14:	8913      	ldrh	r3, [r2, #8]
87801f16:	b29b      	uxth	r3, r3
87801f18:	f043 0380 	orr.w	r3, r3, #128	; 0x80
87801f1c:	8113      	strh	r3, [r2, #8]
87801f1e:	4770      	bx	lr

87801f20 <i2c_init>:
87801f20:	8903      	ldrh	r3, [r0, #8]
87801f22:	2215      	movs	r2, #21
87801f24:	f023 0380 	bic.w	r3, r3, #128	; 0x80
87801f28:	041b      	lsls	r3, r3, #16
87801f2a:	0c1b      	lsrs	r3, r3, #16
87801f2c:	8103      	strh	r3, [r0, #8]
87801f2e:	8082      	strh	r2, [r0, #4]
87801f30:	8903      	ldrh	r3, [r0, #8]
87801f32:	b29b      	uxth	r3, r3
87801f34:	f043 0380 	orr.w	r3, r3, #128	; 0x80
87801f38:	8103      	strh	r3, [r0, #8]
87801f3a:	4770      	bx	lr

87801f3c <i2c_master_start>:
87801f3c:	8983      	ldrh	r3, [r0, #12]
87801f3e:	f003 0320 	and.w	r3, r3, #32
87801f42:	b29b      	uxth	r3, r3
87801f44:	b98b      	cbnz	r3, 87801f6a <i2c_master_start+0x2e>
87801f46:	b410      	push	{r4}
87801f48:	f1a2 0201 	sub.w	r2, r2, #1
87801f4c:	8904      	ldrh	r4, [r0, #8]
87801f4e:	fab2 f282 	clz	r2, r2
87801f52:	0952      	lsrs	r2, r2, #5
87801f54:	ea42 0141 	orr.w	r1, r2, r1, lsl #1
87801f58:	b2a2      	uxth	r2, r4
87801f5a:	f85d 4b04 	ldr.w	r4, [sp], #4
87801f5e:	f042 0230 	orr.w	r2, r2, #48	; 0x30
87801f62:	8102      	strh	r2, [r0, #8]
87801f64:	8201      	strh	r1, [r0, #16]
87801f66:	4618      	mov	r0, r3
87801f68:	4770      	bx	lr
87801f6a:	2301      	movs	r3, #1
87801f6c:	4618      	mov	r0, r3
87801f6e:	4770      	bx	lr

87801f70 <i2c_master_stop>:
87801f70:	8903      	ldrh	r3, [r0, #8]
87801f72:	f64f 72ff 	movw	r2, #65535	; 0xffff
87801f76:	f023 0338 	bic.w	r3, r3, #56	; 0x38
87801f7a:	041b      	lsls	r3, r3, #16
87801f7c:	0c1b      	lsrs	r3, r3, #16
87801f7e:	8103      	strh	r3, [r0, #8]
87801f80:	e000      	b.n	87801f84 <i2c_master_stop+0x14>
87801f82:	b14a      	cbz	r2, 87801f98 <i2c_master_stop+0x28>
87801f84:	8983      	ldrh	r3, [r0, #12]
87801f86:	3a01      	subs	r2, #1
87801f88:	b292      	uxth	r2, r2
87801f8a:	f003 0320 	and.w	r3, r3, #32
87801f8e:	b29b      	uxth	r3, r3
87801f90:	2b00      	cmp	r3, #0
87801f92:	d1f6      	bne.n	87801f82 <i2c_master_stop+0x12>
87801f94:	4618      	mov	r0, r3
87801f96:	4770      	bx	lr
87801f98:	2005      	movs	r0, #5
87801f9a:	4770      	bx	lr

87801f9c <i2c_master_repeated_start>:
87801f9c:	4603      	mov	r3, r0
87801f9e:	8900      	ldrh	r0, [r0, #8]
87801fa0:	b410      	push	{r4}
87801fa2:	0684      	lsls	r4, r0, #26
87801fa4:	d504      	bpl.n	87801fb0 <i2c_master_repeated_start+0x14>
87801fa6:	8918      	ldrh	r0, [r3, #8]
87801fa8:	0680      	lsls	r0, r0, #26
87801faa:	bf58      	it	pl
87801fac:	2001      	movpl	r0, #1
87801fae:	d50d      	bpl.n	87801fcc <i2c_master_repeated_start+0x30>
87801fb0:	891c      	ldrh	r4, [r3, #8]
87801fb2:	f1a2 0201 	sub.w	r2, r2, #1
87801fb6:	fab2 f282 	clz	r2, r2
87801fba:	2000      	movs	r0, #0
87801fbc:	0952      	lsrs	r2, r2, #5
87801fbe:	ea42 0141 	orr.w	r1, r2, r1, lsl #1
87801fc2:	b2a2      	uxth	r2, r4
87801fc4:	f042 0214 	orr.w	r2, r2, #20
87801fc8:	811a      	strh	r2, [r3, #8]
87801fca:	8219      	strh	r1, [r3, #16]
87801fcc:	f85d 4b04 	ldr.w	r4, [sp], #4
87801fd0:	4770      	bx	lr
87801fd2:	bf00      	nop

87801fd4 <i2c_check_and_clear_error>:
87801fd4:	06cb      	lsls	r3, r1, #27
87801fd6:	d500      	bpl.n	87801fda <i2c_check_and_clear_error+0x6>
87801fd8:	e78e      	b.n	87801ef8 <i2c_check_and_clear_error.part.1>
87801fda:	f011 0f01 	tst.w	r1, #1
87801fde:	bf14      	ite	ne
87801fe0:	2003      	movne	r0, #3
87801fe2:	2000      	moveq	r0, #0
87801fe4:	4770      	bx	lr
87801fe6:	bf00      	nop

87801fe8 <i2c_master_write>:
87801fe8:	b570      	push	{r4, r5, r6, lr}
87801fea:	4604      	mov	r4, r0
87801fec:	460d      	mov	r5, r1
87801fee:	89a3      	ldrh	r3, [r4, #12]
87801ff0:	0619      	lsls	r1, r3, #24
87801ff2:	d5fc      	bpl.n	87801fee <i2c_master_write+0x6>
87801ff4:	89a3      	ldrh	r3, [r4, #12]
87801ff6:	18ae      	adds	r6, r5, r2
87801ff8:	f023 0302 	bic.w	r3, r3, #2
87801ffc:	041b      	lsls	r3, r3, #16
87801ffe:	0c1b      	lsrs	r3, r3, #16
87802000:	81a3      	strh	r3, [r4, #12]
87802002:	8923      	ldrh	r3, [r4, #8]
87802004:	b29b      	uxth	r3, r3
87802006:	f043 0310 	orr.w	r3, r3, #16
8780200a:	8123      	strh	r3, [r4, #8]
8780200c:	42b5      	cmp	r5, r6
8780200e:	d011      	beq.n	87802034 <i2c_master_write+0x4c>
87802010:	f815 3b01 	ldrb.w	r3, [r5], #1
87802014:	8223      	strh	r3, [r4, #16]
87802016:	89a3      	ldrh	r3, [r4, #12]
87802018:	079b      	lsls	r3, r3, #30
8780201a:	d5fc      	bpl.n	87802016 <i2c_master_write+0x2e>
8780201c:	89a3      	ldrh	r3, [r4, #12]
8780201e:	f023 0302 	bic.w	r3, r3, #2
87802022:	041b      	lsls	r3, r3, #16
87802024:	0c1b      	lsrs	r3, r3, #16
87802026:	81a3      	strh	r3, [r4, #12]
87802028:	89a3      	ldrh	r3, [r4, #12]
8780202a:	b29b      	uxth	r3, r3
8780202c:	06d8      	lsls	r0, r3, #27
8780202e:	d417      	bmi.n	87802060 <i2c_master_write+0x78>
87802030:	07d9      	lsls	r1, r3, #31
87802032:	d5eb      	bpl.n	8780200c <i2c_master_write+0x24>
87802034:	89a2      	ldrh	r2, [r4, #12]
87802036:	f64f 73ff 	movw	r3, #65535	; 0xffff
8780203a:	f022 0202 	bic.w	r2, r2, #2
8780203e:	0412      	lsls	r2, r2, #16
87802040:	0c12      	lsrs	r2, r2, #16
87802042:	81a2      	strh	r2, [r4, #12]
87802044:	8922      	ldrh	r2, [r4, #8]
87802046:	f022 0238 	bic.w	r2, r2, #56	; 0x38
8780204a:	0412      	lsls	r2, r2, #16
8780204c:	0c12      	lsrs	r2, r2, #16
8780204e:	8122      	strh	r2, [r4, #8]
87802050:	e000      	b.n	87802054 <i2c_master_write+0x6c>
87802052:	b123      	cbz	r3, 8780205e <i2c_master_write+0x76>
87802054:	89a2      	ldrh	r2, [r4, #12]
87802056:	3b01      	subs	r3, #1
87802058:	b29b      	uxth	r3, r3
8780205a:	0692      	lsls	r2, r2, #26
8780205c:	d4f9      	bmi.n	87802052 <i2c_master_write+0x6a>
8780205e:	bd70      	pop	{r4, r5, r6, pc}
87802060:	4620      	mov	r0, r4
87802062:	f7ff ff49 	bl	87801ef8 <i2c_check_and_clear_error.part.1>
87802066:	2800      	cmp	r0, #0
87802068:	d0d0      	beq.n	8780200c <i2c_master_write+0x24>
8780206a:	e7e3      	b.n	87802034 <i2c_master_write+0x4c>

8780206c <i2c_master_read>:
8780206c:	b430      	push	{r4, r5}
8780206e:	2300      	movs	r3, #0
87802070:	b082      	sub	sp, #8
87802072:	f88d 3007 	strb.w	r3, [sp, #7]
87802076:	f89d 3007 	ldrb.w	r3, [sp, #7]
8780207a:	3301      	adds	r3, #1
8780207c:	b2db      	uxtb	r3, r3
8780207e:	f88d 3007 	strb.w	r3, [sp, #7]
87802082:	8983      	ldrh	r3, [r0, #12]
87802084:	061c      	lsls	r4, r3, #24
87802086:	d5fc      	bpl.n	87802082 <i2c_master_read+0x16>
87802088:	8983      	ldrh	r3, [r0, #12]
8780208a:	2a01      	cmp	r2, #1
8780208c:	f023 0302 	bic.w	r3, r3, #2
87802090:	ea4f 4303 	mov.w	r3, r3, lsl #16
87802094:	ea4f 4313 	mov.w	r3, r3, lsr #16
87802098:	8183      	strh	r3, [r0, #12]
8780209a:	8903      	ldrh	r3, [r0, #8]
8780209c:	f023 0318 	bic.w	r3, r3, #24
878020a0:	ea4f 4303 	mov.w	r3, r3, lsl #16
878020a4:	ea4f 4313 	mov.w	r3, r3, lsr #16
878020a8:	8103      	strh	r3, [r0, #8]
878020aa:	d02d      	beq.n	87802108 <i2c_master_read+0x9c>
878020ac:	8a03      	ldrh	r3, [r0, #16]
878020ae:	1e55      	subs	r5, r2, #1
878020b0:	b2db      	uxtb	r3, r3
878020b2:	f88d 3007 	strb.w	r3, [sp, #7]
878020b6:	b322      	cbz	r2, 87802102 <i2c_master_read+0x96>
878020b8:	462a      	mov	r2, r5
878020ba:	460c      	mov	r4, r1
878020bc:	8983      	ldrh	r3, [r0, #12]
878020be:	079b      	lsls	r3, r3, #30
878020c0:	d5fc      	bpl.n	878020bc <i2c_master_read+0x50>
878020c2:	8983      	ldrh	r3, [r0, #12]
878020c4:	f023 0302 	bic.w	r3, r3, #2
878020c8:	041b      	lsls	r3, r3, #16
878020ca:	0c1b      	lsrs	r3, r3, #16
878020cc:	8183      	strh	r3, [r0, #12]
878020ce:	b132      	cbz	r2, 878020de <i2c_master_read+0x72>
878020d0:	2a01      	cmp	r2, #1
878020d2:	d024      	beq.n	8780211e <i2c_master_read+0xb2>
878020d4:	8a03      	ldrh	r3, [r0, #16]
878020d6:	3a01      	subs	r2, #1
878020d8:	f804 3b01 	strb.w	r3, [r4], #1
878020dc:	e7ee      	b.n	878020bc <i2c_master_read+0x50>
878020de:	8903      	ldrh	r3, [r0, #8]
878020e0:	4429      	add	r1, r5
878020e2:	f64f 72ff 	movw	r2, #65535	; 0xffff
878020e6:	f023 0338 	bic.w	r3, r3, #56	; 0x38
878020ea:	041b      	lsls	r3, r3, #16
878020ec:	0c1b      	lsrs	r3, r3, #16
878020ee:	8103      	strh	r3, [r0, #8]
878020f0:	e000      	b.n	878020f4 <i2c_master_read+0x88>
878020f2:	b122      	cbz	r2, 878020fe <i2c_master_read+0x92>
878020f4:	8983      	ldrh	r3, [r0, #12]
878020f6:	3a01      	subs	r2, #1
878020f8:	b292      	uxth	r2, r2
878020fa:	069b      	lsls	r3, r3, #26
878020fc:	d4f9      	bmi.n	878020f2 <i2c_master_read+0x86>
878020fe:	8a03      	ldrh	r3, [r0, #16]
87802100:	700b      	strb	r3, [r1, #0]
87802102:	b002      	add	sp, #8
87802104:	bc30      	pop	{r4, r5}
87802106:	4770      	bx	lr
87802108:	8903      	ldrh	r3, [r0, #8]
8780210a:	2500      	movs	r5, #0
8780210c:	b29b      	uxth	r3, r3
8780210e:	f043 0308 	orr.w	r3, r3, #8
87802112:	8103      	strh	r3, [r0, #8]
87802114:	8a03      	ldrh	r3, [r0, #16]
87802116:	b2db      	uxtb	r3, r3
87802118:	f88d 3007 	strb.w	r3, [sp, #7]
8780211c:	e7cc      	b.n	878020b8 <i2c_master_read+0x4c>
8780211e:	8903      	ldrh	r3, [r0, #8]
87802120:	b29b      	uxth	r3, r3
87802122:	f043 0308 	orr.w	r3, r3, #8
87802126:	8103      	strh	r3, [r0, #8]
87802128:	e7d4      	b.n	878020d4 <i2c_master_read+0x68>
8780212a:	bf00      	nop

8780212c <i2c_master_transfer>:
8780212c:	b538      	push	{r3, r4, r5, lr}
8780212e:	8983      	ldrh	r3, [r0, #12]
87802130:	684a      	ldr	r2, [r1, #4]
87802132:	f023 0312 	bic.w	r3, r3, #18
87802136:	041b      	lsls	r3, r3, #16
87802138:	0c1b      	lsrs	r3, r3, #16
8780213a:	8183      	strh	r3, [r0, #12]
8780213c:	8983      	ldrh	r3, [r0, #12]
8780213e:	061b      	lsls	r3, r3, #24
87802140:	d5fc      	bpl.n	8780213c <i2c_master_transfer+0x10>
87802142:	7b0b      	ldrb	r3, [r1, #12]
87802144:	b14b      	cbz	r3, 8780215a <i2c_master_transfer+0x2e>
87802146:	8983      	ldrh	r3, [r0, #12]
87802148:	780c      	ldrb	r4, [r1, #0]
8780214a:	f003 0320 	and.w	r3, r3, #32
8780214e:	b29b      	uxth	r3, r3
87802150:	2b00      	cmp	r3, #0
87802152:	f000 8087 	beq.w	87802264 <i2c_master_transfer+0x138>
87802156:	2001      	movs	r0, #1
87802158:	bd38      	pop	{r3, r4, r5, pc}
8780215a:	8984      	ldrh	r4, [r0, #12]
8780215c:	780b      	ldrb	r3, [r1, #0]
8780215e:	06a5      	lsls	r5, r4, #26
87802160:	d4f9      	bmi.n	87802156 <i2c_master_transfer+0x2a>
87802162:	8905      	ldrh	r5, [r0, #8]
87802164:	005c      	lsls	r4, r3, #1
87802166:	f1a2 0301 	sub.w	r3, r2, #1
8780216a:	fab3 f383 	clz	r3, r3
8780216e:	095b      	lsrs	r3, r3, #5
87802170:	b2aa      	uxth	r2, r5
87802172:	f042 0230 	orr.w	r2, r2, #48	; 0x30
87802176:	8102      	strh	r2, [r0, #8]
87802178:	4323      	orrs	r3, r4
8780217a:	b29b      	uxth	r3, r3
8780217c:	8203      	strh	r3, [r0, #16]
8780217e:	8983      	ldrh	r3, [r0, #12]
87802180:	079c      	lsls	r4, r3, #30
87802182:	d5fc      	bpl.n	8780217e <i2c_master_transfer+0x52>
87802184:	8983      	ldrh	r3, [r0, #12]
87802186:	460d      	mov	r5, r1
87802188:	4604      	mov	r4, r0
8780218a:	b29b      	uxth	r3, r3
8780218c:	06da      	lsls	r2, r3, #27
8780218e:	d413      	bmi.n	878021b8 <i2c_master_transfer+0x8c>
87802190:	07db      	lsls	r3, r3, #31
87802192:	d515      	bpl.n	878021c0 <i2c_master_transfer+0x94>
87802194:	2003      	movs	r0, #3
87802196:	8922      	ldrh	r2, [r4, #8]
87802198:	f64f 73ff 	movw	r3, #65535	; 0xffff
8780219c:	f022 0238 	bic.w	r2, r2, #56	; 0x38
878021a0:	0412      	lsls	r2, r2, #16
878021a2:	0c12      	lsrs	r2, r2, #16
878021a4:	8122      	strh	r2, [r4, #8]
878021a6:	e000      	b.n	878021aa <i2c_master_transfer+0x7e>
878021a8:	b12b      	cbz	r3, 878021b6 <i2c_master_transfer+0x8a>
878021aa:	89a2      	ldrh	r2, [r4, #12]
878021ac:	3b01      	subs	r3, #1
878021ae:	b29b      	uxth	r3, r3
878021b0:	0695      	lsls	r5, r2, #26
878021b2:	d4f9      	bmi.n	878021a8 <i2c_master_transfer+0x7c>
878021b4:	bd38      	pop	{r3, r4, r5, pc}
878021b6:	bd38      	pop	{r3, r4, r5, pc}
878021b8:	f7ff fe9e 	bl	87801ef8 <i2c_check_and_clear_error.part.1>
878021bc:	2800      	cmp	r0, #0
878021be:	d1ea      	bne.n	87802196 <i2c_master_transfer+0x6a>
878021c0:	7b2b      	ldrb	r3, [r5, #12]
878021c2:	b96b      	cbnz	r3, 878021e0 <i2c_master_transfer+0xb4>
878021c4:	686b      	ldr	r3, [r5, #4]
878021c6:	2b00      	cmp	r3, #0
878021c8:	d141      	bne.n	8780224e <i2c_master_transfer+0x122>
878021ca:	696b      	ldr	r3, [r5, #20]
878021cc:	2b00      	cmp	r3, #0
878021ce:	d138      	bne.n	87802242 <i2c_master_transfer+0x116>
878021d0:	2000      	movs	r0, #0
878021d2:	bd38      	pop	{r3, r4, r5, pc}
878021d4:	4620      	mov	r0, r4
878021d6:	f7ff fe8f 	bl	87801ef8 <i2c_check_and_clear_error.part.1>
878021da:	b9d8      	cbnz	r0, 87802214 <i2c_master_transfer+0xe8>
878021dc:	7b2b      	ldrb	r3, [r5, #12]
878021de:	b353      	cbz	r3, 87802236 <i2c_master_transfer+0x10a>
878021e0:	89a3      	ldrh	r3, [r4, #12]
878021e2:	68aa      	ldr	r2, [r5, #8]
878021e4:	f023 0302 	bic.w	r3, r3, #2
878021e8:	041b      	lsls	r3, r3, #16
878021ea:	0c1b      	lsrs	r3, r3, #16
878021ec:	81a3      	strh	r3, [r4, #12]
878021ee:	7b2b      	ldrb	r3, [r5, #12]
878021f0:	3b01      	subs	r3, #1
878021f2:	b2db      	uxtb	r3, r3
878021f4:	00d9      	lsls	r1, r3, #3
878021f6:	732b      	strb	r3, [r5, #12]
878021f8:	fa22 f301 	lsr.w	r3, r2, r1
878021fc:	b29b      	uxth	r3, r3
878021fe:	8223      	strh	r3, [r4, #16]
87802200:	89a3      	ldrh	r3, [r4, #12]
87802202:	0799      	lsls	r1, r3, #30
87802204:	d5fc      	bpl.n	87802200 <i2c_master_transfer+0xd4>
87802206:	89a3      	ldrh	r3, [r4, #12]
87802208:	b29b      	uxth	r3, r3
8780220a:	06da      	lsls	r2, r3, #27
8780220c:	d4e2      	bmi.n	878021d4 <i2c_master_transfer+0xa8>
8780220e:	07db      	lsls	r3, r3, #31
87802210:	d5e4      	bpl.n	878021dc <i2c_master_transfer+0xb0>
87802212:	2003      	movs	r0, #3
87802214:	8922      	ldrh	r2, [r4, #8]
87802216:	f64f 73ff 	movw	r3, #65535	; 0xffff
8780221a:	f022 0238 	bic.w	r2, r2, #56	; 0x38
8780221e:	0412      	lsls	r2, r2, #16
87802220:	0c12      	lsrs	r2, r2, #16
87802222:	8122      	strh	r2, [r4, #8]
87802224:	e001      	b.n	8780222a <i2c_master_transfer+0xfe>
87802226:	2b00      	cmp	r3, #0
87802228:	d0c5      	beq.n	878021b6 <i2c_master_transfer+0x8a>
8780222a:	89a2      	ldrh	r2, [r4, #12]
8780222c:	3b01      	subs	r3, #1
8780222e:	b29b      	uxth	r3, r3
87802230:	0695      	lsls	r5, r2, #26
87802232:	d4f8      	bmi.n	87802226 <i2c_master_transfer+0xfa>
87802234:	bd38      	pop	{r3, r4, r5, pc}
87802236:	686b      	ldr	r3, [r5, #4]
87802238:	2b01      	cmp	r3, #1
8780223a:	d01a      	beq.n	87802272 <i2c_master_transfer+0x146>
8780223c:	2b00      	cmp	r3, #0
8780223e:	d0c4      	beq.n	878021ca <i2c_master_transfer+0x9e>
87802240:	e7c6      	b.n	878021d0 <i2c_master_transfer+0xa4>
87802242:	6929      	ldr	r1, [r5, #16]
87802244:	4620      	mov	r0, r4
87802246:	696a      	ldr	r2, [r5, #20]
87802248:	f7ff fece 	bl	87801fe8 <i2c_master_write>
8780224c:	686b      	ldr	r3, [r5, #4]
8780224e:	2b01      	cmp	r3, #1
87802250:	d1be      	bne.n	878021d0 <i2c_master_transfer+0xa4>
87802252:	696b      	ldr	r3, [r5, #20]
87802254:	2b00      	cmp	r3, #0
87802256:	d0bb      	beq.n	878021d0 <i2c_master_transfer+0xa4>
87802258:	6929      	ldr	r1, [r5, #16]
8780225a:	4620      	mov	r0, r4
8780225c:	696a      	ldr	r2, [r5, #20]
8780225e:	f7ff ff05 	bl	8780206c <i2c_master_read>
87802262:	e7b5      	b.n	878021d0 <i2c_master_transfer+0xa4>
87802264:	8902      	ldrh	r2, [r0, #8]
87802266:	0064      	lsls	r4, r4, #1
87802268:	b292      	uxth	r2, r2
8780226a:	f042 0230 	orr.w	r2, r2, #48	; 0x30
8780226e:	8102      	strh	r2, [r0, #8]
87802270:	e782      	b.n	87802178 <i2c_master_transfer+0x4c>
87802272:	89a3      	ldrh	r3, [r4, #12]
87802274:	f023 0302 	bic.w	r3, r3, #2
87802278:	041b      	lsls	r3, r3, #16
8780227a:	0c1b      	lsrs	r3, r3, #16
8780227c:	81a3      	strh	r3, [r4, #12]
8780227e:	8922      	ldrh	r2, [r4, #8]
87802280:	782b      	ldrb	r3, [r5, #0]
87802282:	0691      	lsls	r1, r2, #26
87802284:	d502      	bpl.n	8780228c <i2c_master_transfer+0x160>
87802286:	8922      	ldrh	r2, [r4, #8]
87802288:	0692      	lsls	r2, r2, #26
8780228a:	d508      	bpl.n	8780229e <i2c_master_transfer+0x172>
8780228c:	8922      	ldrh	r2, [r4, #8]
8780228e:	005b      	lsls	r3, r3, #1
87802290:	f043 0301 	orr.w	r3, r3, #1
87802294:	b292      	uxth	r2, r2
87802296:	f042 0214 	orr.w	r2, r2, #20
8780229a:	8122      	strh	r2, [r4, #8]
8780229c:	8223      	strh	r3, [r4, #16]
8780229e:	89a3      	ldrh	r3, [r4, #12]
878022a0:	079b      	lsls	r3, r3, #30
878022a2:	d5fc      	bpl.n	8780229e <i2c_master_transfer+0x172>
878022a4:	89a3      	ldrh	r3, [r4, #12]
878022a6:	b29b      	uxth	r3, r3
878022a8:	06d8      	lsls	r0, r3, #27
878022aa:	d412      	bmi.n	878022d2 <i2c_master_transfer+0x1a6>
878022ac:	07d9      	lsls	r1, r3, #31
878022ae:	d5d0      	bpl.n	87802252 <i2c_master_transfer+0x126>
878022b0:	8922      	ldrh	r2, [r4, #8]
878022b2:	f64f 73ff 	movw	r3, #65535	; 0xffff
878022b6:	f022 0238 	bic.w	r2, r2, #56	; 0x38
878022ba:	0412      	lsls	r2, r2, #16
878022bc:	0c12      	lsrs	r2, r2, #16
878022be:	8122      	strh	r2, [r4, #8]
878022c0:	e000      	b.n	878022c4 <i2c_master_transfer+0x198>
878022c2:	b123      	cbz	r3, 878022ce <i2c_master_transfer+0x1a2>
878022c4:	89a2      	ldrh	r2, [r4, #12]
878022c6:	3b01      	subs	r3, #1
878022c8:	b29b      	uxth	r3, r3
878022ca:	0692      	lsls	r2, r2, #26
878022cc:	d4f9      	bmi.n	878022c2 <i2c_master_transfer+0x196>
878022ce:	2006      	movs	r0, #6
878022d0:	bd38      	pop	{r3, r4, r5, pc}
878022d2:	4620      	mov	r0, r4
878022d4:	f7ff fe10 	bl	87801ef8 <i2c_check_and_clear_error.part.1>
878022d8:	2800      	cmp	r0, #0
878022da:	d1e9      	bne.n	878022b0 <i2c_master_transfer+0x184>
878022dc:	e772      	b.n	878021c4 <i2c_master_transfer+0x98>
878022de:	bf00      	nop

878022e0 <ap3216c_readonebyte>:
878022e0:	b510      	push	{r4, lr}
878022e2:	b088      	sub	sp, #32
878022e4:	f88d 0008 	strb.w	r0, [sp, #8]
878022e8:	2000      	movs	r0, #0
878022ea:	2301      	movs	r3, #1
878022ec:	2200      	movs	r2, #0
878022ee:	9104      	str	r1, [sp, #16]
878022f0:	f10d 0407 	add.w	r4, sp, #7
878022f4:	a902      	add	r1, sp, #8
878022f6:	f2c0 201a 	movt	r0, #538	; 0x21a
878022fa:	9406      	str	r4, [sp, #24]
878022fc:	f88d 2007 	strb.w	r2, [sp, #7]
87802300:	9303      	str	r3, [sp, #12]
87802302:	f88d 3014 	strb.w	r3, [sp, #20]
87802306:	9307      	str	r3, [sp, #28]
87802308:	f7ff ff10 	bl	8780212c <i2c_master_transfer>
8780230c:	f89d 0007 	ldrb.w	r0, [sp, #7]
87802310:	b008      	add	sp, #32
87802312:	bd10      	pop	{r4, pc}

87802314 <ap3216c_writeonebyte>:
87802314:	b530      	push	{r4, r5, lr}
87802316:	b089      	sub	sp, #36	; 0x24
87802318:	f88d 0008 	strb.w	r0, [sp, #8]
8780231c:	2000      	movs	r0, #0
8780231e:	2301      	movs	r3, #1
87802320:	2400      	movs	r4, #0
87802322:	9104      	str	r1, [sp, #16]
87802324:	f10d 0507 	add.w	r5, sp, #7
87802328:	a902      	add	r1, sp, #8
8780232a:	f2c0 201a 	movt	r0, #538	; 0x21a
8780232e:	9506      	str	r5, [sp, #24]
87802330:	f88d 2007 	strb.w	r2, [sp, #7]
87802334:	9403      	str	r4, [sp, #12]
87802336:	f88d 3014 	strb.w	r3, [sp, #20]
8780233a:	9307      	str	r3, [sp, #28]
8780233c:	f7ff fef6 	bl	8780212c <i2c_master_transfer>
87802340:	1b00      	subs	r0, r0, r4
87802342:	bf18      	it	ne
87802344:	2001      	movne	r0, #1
87802346:	b009      	add	sp, #36	; 0x24
87802348:	bd30      	pop	{r4, r5, pc}
8780234a:	bf00      	nop

8780234c <ap3216c_init>:
8780234c:	20b4      	movs	r0, #180	; 0xb4
8780234e:	f240 52a4 	movw	r2, #1444	; 0x5a4
87802352:	b5f8      	push	{r3, r4, r5, r6, r7, lr}
87802354:	f2c0 200e 	movt	r0, #526	; 0x20e
87802358:	f04f 0e01 	mov.w	lr, #1
8780235c:	2612      	movs	r6, #18
8780235e:	f2c0 220e 	movt	r2, #526	; 0x20e
87802362:	25b8      	movs	r5, #184	; 0xb8
87802364:	f44f 64b5 	mov.w	r4, #1448	; 0x5a8
87802368:	f44f 7150 	mov.w	r1, #832	; 0x340
8780236c:	f44f 7351 	mov.w	r3, #836	; 0x344
87802370:	6006      	str	r6, [r0, #0]
87802372:	f2c0 230e 	movt	r3, #526	; 0x20e
87802376:	f8c2 e000 	str.w	lr, [r2]
8780237a:	f2c0 210e 	movt	r1, #526	; 0x20e
8780237e:	f247 02b0 	movw	r2, #28848	; 0x70b0
87802382:	f2c0 250e 	movt	r5, #526	; 0x20e
87802386:	f2c0 240e 	movt	r4, #526	; 0x20e
8780238a:	2702      	movs	r7, #2
8780238c:	2000      	movs	r0, #0
8780238e:	602e      	str	r6, [r5, #0]
87802390:	f2c0 201a 	movt	r0, #538	; 0x21a
87802394:	6027      	str	r7, [r4, #0]
87802396:	600a      	str	r2, [r1, #0]
87802398:	601a      	str	r2, [r3, #0]
8780239a:	f7ff fdc1 	bl	87801f20 <i2c_init>
8780239e:	2204      	movs	r2, #4
878023a0:	2100      	movs	r1, #0
878023a2:	201e      	movs	r0, #30
878023a4:	f7ff ffb6 	bl	87802314 <ap3216c_writeonebyte>
878023a8:	2032      	movs	r0, #50	; 0x32
878023aa:	f7fe f8f7 	bl	8780059c <delay_ms>
878023ae:	2203      	movs	r2, #3
878023b0:	2100      	movs	r1, #0
878023b2:	201e      	movs	r0, #30
878023b4:	f7ff ffae 	bl	87802314 <ap3216c_writeonebyte>
878023b8:	2100      	movs	r1, #0
878023ba:	201e      	movs	r0, #30
878023bc:	f7ff ff90 	bl	878022e0 <ap3216c_readonebyte>
878023c0:	4604      	mov	r4, r0
878023c2:	4601      	mov	r1, r0
878023c4:	f249 1040 	movw	r0, #37184	; 0x9140
878023c8:	f2c8 7080 	movt	r0, #34688	; 0x8780
878023cc:	f000 fc2e 	bl	87802c2c <printf>
878023d0:	1ee0      	subs	r0, r4, #3
878023d2:	bf18      	it	ne
878023d4:	2001      	movne	r0, #1
878023d6:	bdf8      	pop	{r3, r4, r5, r6, r7, pc}

878023d8 <ap3216c_readdata>:
878023d8:	e92d 41f0 	stmdb	sp!, {r4, r5, r6, r7, r8, lr}
878023dc:	b082      	sub	sp, #8
878023de:	4680      	mov	r8, r0
878023e0:	460f      	mov	r7, r1
878023e2:	4616      	mov	r6, r2
878023e4:	466d      	mov	r5, sp
878023e6:	240a      	movs	r4, #10
878023e8:	4621      	mov	r1, r4
878023ea:	3401      	adds	r4, #1
878023ec:	b2e4      	uxtb	r4, r4
878023ee:	201e      	movs	r0, #30
878023f0:	f7ff ff76 	bl	878022e0 <ap3216c_readonebyte>
878023f4:	2c10      	cmp	r4, #16
878023f6:	f805 0b01 	strb.w	r0, [r5], #1
878023fa:	d1f5      	bne.n	878023e8 <ap3216c_readdata+0x10>
878023fc:	f89d 3000 	ldrb.w	r3, [sp]
87802400:	061a      	lsls	r2, r3, #24
87802402:	bf42      	ittt	mi
87802404:	2300      	movmi	r3, #0
87802406:	f8a8 3000 	strhmi.w	r3, [r8]
8780240a:	803b      	strhmi	r3, [r7, #0]
8780240c:	d412      	bmi.n	87802434 <ap3216c_readdata+0x5c>
8780240e:	f89d 0001 	ldrb.w	r0, [sp, #1]
87802412:	f003 0303 	and.w	r3, r3, #3
87802416:	f89d 1005 	ldrb.w	r1, [sp, #5]
8780241a:	f89d 2004 	ldrb.w	r2, [sp, #4]
8780241e:	f001 013f 	and.w	r1, r1, #63	; 0x3f
87802422:	ea43 0380 	orr.w	r3, r3, r0, lsl #2
87802426:	f002 020f 	and.w	r2, r2, #15
8780242a:	ea42 1201 	orr.w	r2, r2, r1, lsl #4
8780242e:	f8a8 3000 	strh.w	r3, [r8]
87802432:	803a      	strh	r2, [r7, #0]
87802434:	f89d 2003 	ldrb.w	r2, [sp, #3]
87802438:	f89d 3002 	ldrb.w	r3, [sp, #2]
8780243c:	ea43 2302 	orr.w	r3, r3, r2, lsl #8
87802440:	8033      	strh	r3, [r6, #0]
87802442:	b002      	add	sp, #8
87802444:	e8bd 81f0 	ldmia.w	sp!, {r4, r5, r6, r7, r8, pc}

87802448 <icm20608_read_reg>:
87802448:	b570      	push	{r4, r5, r6, lr}
8780244a:	f44f 4440 	mov.w	r4, #49152	; 0xc000
8780244e:	f2c0 2409 	movt	r4, #521	; 0x209
87802452:	2500      	movs	r5, #0
87802454:	462a      	mov	r2, r5
87802456:	4606      	mov	r6, r0
87802458:	f2c0 2501 	movt	r5, #513	; 0x201
8780245c:	4620      	mov	r0, r4
8780245e:	2114      	movs	r1, #20
87802460:	f7fe f95a 	bl	87800718 <gpio_pinwrite>
87802464:	f046 0180 	orr.w	r1, r6, #128	; 0x80
87802468:	4628      	mov	r0, r5
8780246a:	f000 f9ff 	bl	8780286c <spich0_readwrite_byte>
8780246e:	4628      	mov	r0, r5
87802470:	21ff      	movs	r1, #255	; 0xff
87802472:	f000 f9fb 	bl	8780286c <spich0_readwrite_byte>
87802476:	2201      	movs	r2, #1
87802478:	4605      	mov	r5, r0
8780247a:	2114      	movs	r1, #20
8780247c:	4620      	mov	r0, r4
8780247e:	f7fe f94b 	bl	87800718 <gpio_pinwrite>
87802482:	4628      	mov	r0, r5
87802484:	bd70      	pop	{r4, r5, r6, pc}
87802486:	bf00      	nop

87802488 <icm20608_write_reg>:
87802488:	b5f8      	push	{r3, r4, r5, r6, r7, lr}
8780248a:	f44f 4440 	mov.w	r4, #49152	; 0xc000
8780248e:	f2c0 2409 	movt	r4, #521	; 0x209
87802492:	2500      	movs	r5, #0
87802494:	462a      	mov	r2, r5
87802496:	4607      	mov	r7, r0
87802498:	460e      	mov	r6, r1
8780249a:	4620      	mov	r0, r4
8780249c:	f2c0 2501 	movt	r5, #513	; 0x201
878024a0:	2114      	movs	r1, #20
878024a2:	f7fe f939 	bl	87800718 <gpio_pinwrite>
878024a6:	f007 017f 	and.w	r1, r7, #127	; 0x7f
878024aa:	4628      	mov	r0, r5
878024ac:	f000 f9de 	bl	8780286c <spich0_readwrite_byte>
878024b0:	4631      	mov	r1, r6
878024b2:	4628      	mov	r0, r5
878024b4:	f000 f9da 	bl	8780286c <spich0_readwrite_byte>
878024b8:	4620      	mov	r0, r4
878024ba:	2201      	movs	r2, #1
878024bc:	2114      	movs	r1, #20
878024be:	e8bd 40f8 	ldmia.w	sp!, {r3, r4, r5, r6, r7, lr}
878024c2:	f7fe b929 	b.w	87800718 <gpio_pinwrite>
878024c6:	bf00      	nop

878024c8 <icm20608_init>:
878024c8:	b5f0      	push	{r4, r5, r6, r7, lr}
878024ca:	2498      	movs	r4, #152	; 0x98
878024cc:	2308      	movs	r3, #8
878024ce:	f2c0 240e 	movt	r4, #526	; 0x20e
878024d2:	f240 5e54 	movw	lr, #1364	; 0x554
878024d6:	259c      	movs	r5, #156	; 0x9c
878024d8:	f240 525c 	movw	r2, #1372	; 0x55c
878024dc:	21a0      	movs	r1, #160	; 0xa0
878024de:	6023      	str	r3, [r4, #0]
878024e0:	f2c0 2e0e 	movt	lr, #526	; 0x20e
878024e4:	2400      	movs	r4, #0
878024e6:	f2c0 250e 	movt	r5, #526	; 0x20e
878024ea:	f2c0 220e 	movt	r2, #526	; 0x20e
878024ee:	f2c0 210e 	movt	r1, #526	; 0x20e
878024f2:	f44f 67ab 	mov.w	r7, #1368	; 0x558
878024f6:	f44f 7049 	mov.w	r0, #804	; 0x324
878024fa:	f8ce 4000 	str.w	r4, [lr]
878024fe:	f2c0 270e 	movt	r7, #526	; 0x20e
87802502:	602b      	str	r3, [r5, #0]
87802504:	f2c0 200e 	movt	r0, #526	; 0x20e
87802508:	6014      	str	r4, [r2, #0]
8780250a:	f44f 764a 	mov.w	r6, #808	; 0x328
8780250e:	600b      	str	r3, [r1, #0]
87802510:	f44f 754b 	mov.w	r5, #812	; 0x32c
87802514:	f241 03b0 	movw	r3, #4272	; 0x10b0
87802518:	2294      	movs	r2, #148	; 0x94
8780251a:	f44f 7148 	mov.w	r1, #800	; 0x320
8780251e:	b085      	sub	sp, #20
87802520:	603c      	str	r4, [r7, #0]
87802522:	f2c0 250e 	movt	r5, #526	; 0x20e
87802526:	6003      	str	r3, [r0, #0]
87802528:	f2c0 220e 	movt	r2, #526	; 0x20e
8780252c:	f2c0 210e 	movt	r1, #526	; 0x20e
87802530:	f2c0 260e 	movt	r6, #526	; 0x20e
87802534:	2705      	movs	r7, #5
87802536:	f44f 4040 	mov.w	r0, #49152	; 0xc000
8780253a:	6033      	str	r3, [r6, #0]
8780253c:	f2c0 2009 	movt	r0, #521	; 0x209
87802540:	602b      	str	r3, [r5, #0]
87802542:	2501      	movs	r5, #1
87802544:	6017      	str	r7, [r2, #0]
87802546:	aa01      	add	r2, sp, #4
87802548:	600b      	str	r3, [r1, #0]
8780254a:	2114      	movs	r1, #20
8780254c:	f88d 4008 	strb.w	r4, [sp, #8]
87802550:	9501      	str	r5, [sp, #4]
87802552:	f7fe f94b 	bl	878007ec <gpio_init>
87802556:	4620      	mov	r0, r4
87802558:	f2c0 2001 	movt	r0, #513	; 0x201
8780255c:	f000 f970 	bl	87802840 <spi_init>
87802560:	2180      	movs	r1, #128	; 0x80
87802562:	206b      	movs	r0, #107	; 0x6b
87802564:	f7ff ff90 	bl	87802488 <icm20608_write_reg>
87802568:	2032      	movs	r0, #50	; 0x32
8780256a:	f7fe f817 	bl	8780059c <delay_ms>
8780256e:	4629      	mov	r1, r5
87802570:	206b      	movs	r0, #107	; 0x6b
87802572:	f7ff ff89 	bl	87802488 <icm20608_write_reg>
87802576:	2032      	movs	r0, #50	; 0x32
87802578:	f7fe f810 	bl	8780059c <delay_ms>
8780257c:	2075      	movs	r0, #117	; 0x75
8780257e:	f7ff ff63 	bl	87802448 <icm20608_read_reg>
87802582:	3052      	adds	r0, #82	; 0x52
87802584:	b2c0      	uxtb	r0, r0
87802586:	42a8      	cmp	r0, r5
87802588:	bf88      	it	hi
8780258a:	4628      	movhi	r0, r5
8780258c:	d901      	bls.n	87802592 <icm20608_init+0xca>
8780258e:	b005      	add	sp, #20
87802590:	bdf0      	pop	{r4, r5, r6, r7, pc}
87802592:	4621      	mov	r1, r4
87802594:	2019      	movs	r0, #25
87802596:	f7ff ff77 	bl	87802488 <icm20608_write_reg>
8780259a:	2118      	movs	r1, #24
8780259c:	201b      	movs	r0, #27
8780259e:	f7ff ff73 	bl	87802488 <icm20608_write_reg>
878025a2:	2118      	movs	r1, #24
878025a4:	201c      	movs	r0, #28
878025a6:	f7ff ff6f 	bl	87802488 <icm20608_write_reg>
878025aa:	2104      	movs	r1, #4
878025ac:	201a      	movs	r0, #26
878025ae:	f7ff ff6b 	bl	87802488 <icm20608_write_reg>
878025b2:	2104      	movs	r1, #4
878025b4:	201d      	movs	r0, #29
878025b6:	f7ff ff67 	bl	87802488 <icm20608_write_reg>
878025ba:	4621      	mov	r1, r4
878025bc:	206c      	movs	r0, #108	; 0x6c
878025be:	f7ff ff63 	bl	87802488 <icm20608_write_reg>
878025c2:	4621      	mov	r1, r4
878025c4:	201e      	movs	r0, #30
878025c6:	f7ff ff5f 	bl	87802488 <icm20608_write_reg>
878025ca:	4621      	mov	r1, r4
878025cc:	2023      	movs	r0, #35	; 0x23
878025ce:	f7ff ff5b 	bl	87802488 <icm20608_write_reg>
878025d2:	201b      	movs	r0, #27
878025d4:	f7ff ff38 	bl	87802448 <icm20608_read_reg>
878025d8:	4601      	mov	r1, r0
878025da:	f249 1064 	movw	r0, #37220	; 0x9164
878025de:	f2c8 7080 	movt	r0, #34688	; 0x8780
878025e2:	f000 fb23 	bl	87802c2c <printf>
878025e6:	4620      	mov	r0, r4
878025e8:	b005      	add	sp, #20
878025ea:	bdf0      	pop	{r4, r5, r6, r7, pc}

878025ec <icm20608_read_len>:
878025ec:	b570      	push	{r4, r5, r6, lr}
878025ee:	4606      	mov	r6, r0
878025f0:	f44f 4040 	mov.w	r0, #49152	; 0xc000
878025f4:	4615      	mov	r5, r2
878025f6:	f2c0 2009 	movt	r0, #521	; 0x209
878025fa:	460c      	mov	r4, r1
878025fc:	2200      	movs	r2, #0
878025fe:	2114      	movs	r1, #20
87802600:	f7fe f88a 	bl	87800718 <gpio_pinwrite>
87802604:	2000      	movs	r0, #0
87802606:	f046 0180 	orr.w	r1, r6, #128	; 0x80
8780260a:	f2c0 2001 	movt	r0, #513	; 0x201
8780260e:	f000 f92d 	bl	8780286c <spich0_readwrite_byte>
87802612:	b155      	cbz	r5, 8780262a <icm20608_read_len+0x3e>
87802614:	4425      	add	r5, r4
87802616:	2000      	movs	r0, #0
87802618:	21ff      	movs	r1, #255	; 0xff
8780261a:	f2c0 2001 	movt	r0, #513	; 0x201
8780261e:	f000 f925 	bl	8780286c <spich0_readwrite_byte>
87802622:	f804 0b01 	strb.w	r0, [r4], #1
87802626:	42ac      	cmp	r4, r5
87802628:	d1f5      	bne.n	87802616 <icm20608_read_len+0x2a>
8780262a:	f44f 4040 	mov.w	r0, #49152	; 0xc000
8780262e:	2201      	movs	r2, #1
87802630:	f2c0 2009 	movt	r0, #521	; 0x209
87802634:	2114      	movs	r1, #20
87802636:	e8bd 4070 	ldmia.w	sp!, {r4, r5, r6, lr}
8780263a:	f7fe b86d 	b.w	87800718 <gpio_pinwrite>
8780263e:	bf00      	nop

87802640 <icm20608_gyro_scaleget>:
87802640:	b508      	push	{r3, lr}
87802642:	201b      	movs	r0, #27
87802644:	f7ff ff00 	bl	87802448 <icm20608_read_reg>
87802648:	f3c0 00c1 	ubfx	r0, r0, #3, #2
8780264c:	2802      	cmp	r0, #2
8780264e:	d00a      	beq.n	87802666 <icm20608_gyro_scaleget+0x26>
87802650:	2803      	cmp	r0, #3
87802652:	d00b      	beq.n	8780266c <icm20608_gyro_scaleget+0x2c>
87802654:	eddf 7a07 	vldr	s15, [pc, #28]	; 87802674 <icm20608_gyro_scaleget+0x34>
87802658:	2801      	cmp	r0, #1
8780265a:	ed9f 0a07 	vldr	s0, [pc, #28]	; 87802678 <icm20608_gyro_scaleget+0x38>
8780265e:	bf08      	it	eq
87802660:	eeb0 0a67 	vmoveq.f32	s0, s15
87802664:	bd08      	pop	{r3, pc}
87802666:	ed9f 0a05 	vldr	s0, [pc, #20]	; 8780267c <icm20608_gyro_scaleget+0x3c>
8780266a:	bd08      	pop	{r3, pc}
8780266c:	ed9f 0a04 	vldr	s0, [pc, #16]	; 87802680 <icm20608_gyro_scaleget+0x40>
87802670:	bd08      	pop	{r3, pc}
87802672:	bf00      	nop
87802674:	42830000 	addmi	r0, r3, #0
87802678:	43030000 	movwmi	r0, #12288	; 0x3000
8780267c:	42033333 	andmi	r3, r3, #-872415232	; 0xcc000000
87802680:	41833333 	orrmi	r3, r3, r3, lsr r3

87802684 <icm20608_accel_scaleget>:
87802684:	b508      	push	{r3, lr}
87802686:	201c      	movs	r0, #28
87802688:	f7ff fede 	bl	87802448 <icm20608_read_reg>
8780268c:	f3c0 00c1 	ubfx	r0, r0, #3, #2
87802690:	2802      	cmp	r0, #2
87802692:	d008      	beq.n	878026a6 <icm20608_accel_scaleget+0x22>
87802694:	2803      	cmp	r0, #3
87802696:	d009      	beq.n	878026ac <icm20608_accel_scaleget+0x28>
87802698:	2801      	cmp	r0, #1
8780269a:	bf0c      	ite	eq
8780269c:	f44f 5000 	moveq.w	r0, #8192	; 0x2000
878026a0:	f44f 4080 	movne.w	r0, #16384	; 0x4000
878026a4:	bd08      	pop	{r3, pc}
878026a6:	f44f 5080 	mov.w	r0, #4096	; 0x1000
878026aa:	bd08      	pop	{r3, pc}
878026ac:	f44f 6000 	mov.w	r0, #2048	; 0x800
878026b0:	bd08      	pop	{r3, pc}
878026b2:	bf00      	nop

878026b4 <icm20608_getdata>:
878026b4:	b5f0      	push	{r4, r5, r6, r7, lr}
878026b6:	220e      	movs	r2, #14
878026b8:	ed2d 8b02 	vpush	{d8}
878026bc:	b085      	sub	sp, #20
878026be:	4669      	mov	r1, sp
878026c0:	203b      	movs	r0, #59	; 0x3b
878026c2:	f7ff ff93 	bl	878025ec <icm20608_read_len>
878026c6:	f7ff ffbb 	bl	87802640 <icm20608_gyro_scaleget>
878026ca:	eeb0 8a40 	vmov.f32	s16, s0
878026ce:	f7ff ffd9 	bl	87802684 <icm20608_accel_scaleget>
878026d2:	f89d 1007 	ldrb.w	r1, [sp, #7]
878026d6:	f649 73ec 	movw	r3, #40940	; 0x9fec
878026da:	f89d 5006 	ldrb.w	r5, [sp, #6]
878026de:	f2c8 7380 	movt	r3, #34688	; 0x8780
878026e2:	ee07 0a90 	vmov	s15, r0
878026e6:	eeb8 4ae7 	vcvt.f32.s32	s8, s15
878026ea:	f89d 2009 	ldrb.w	r2, [sp, #9]
878026ee:	ea41 2505 	orr.w	r5, r1, r5, lsl #8
878026f2:	f89d e008 	ldrb.w	lr, [sp, #8]
878026f6:	eeb3 7a09 	vmov.f32	s14, #57	; 0x39
878026fa:	b22d      	sxth	r5, r5
878026fc:	f89d 400c 	ldrb.w	r4, [sp, #12]
87802700:	f89d 100b 	ldrb.w	r1, [sp, #11]
87802704:	ea42 2e0e 	orr.w	lr, r2, lr, lsl #8
87802708:	f89d 200d 	ldrb.w	r2, [sp, #13]
8780270c:	ee07 5a90 	vmov	s15, r5
87802710:	f89d 700a 	ldrb.w	r7, [sp, #10]
87802714:	fa0f fe8e 	sxth.w	lr, lr
87802718:	eef8 7ae7 	vcvt.f32.s32	s15, s15
8780271c:	eddf 2b42 	vldr	d18, [pc, #264]	; 87802828 <icm20608_getdata+0x174>
87802720:	ea42 2404 	orr.w	r4, r2, r4, lsl #8
87802724:	f89d 6000 	ldrb.w	r6, [sp]
87802728:	f89d 2001 	ldrb.w	r2, [sp, #1]
8780272c:	ea41 2707 	orr.w	r7, r1, r7, lsl #8
87802730:	ee77 7ac7 	vsub.f32	s15, s15, s14
87802734:	b224      	sxth	r4, r4
87802736:	b23f      	sxth	r7, r7
87802738:	f89d c002 	ldrb.w	ip, [sp, #2]
8780273c:	f89d 0003 	ldrb.w	r0, [sp, #3]
87802740:	ea42 2606 	orr.w	r6, r2, r6, lsl #8
87802744:	f89d 1004 	ldrb.w	r1, [sp, #4]
87802748:	eef7 1ae7 	vcvt.f64.f32	d17, s15
8780274c:	f89d 2005 	ldrb.w	r2, [sp, #5]
87802750:	b236      	sxth	r6, r6
87802752:	ee07 ea10 	vmov	s14, lr
87802756:	ea40 200c 	orr.w	r0, r0, ip, lsl #8
8780275a:	eef8 5ac7 	vcvt.f32.s32	s11, s14
8780275e:	eec1 1ba2 	vdiv.f64	d17, d17, d18
87802762:	b200      	sxth	r0, r0
87802764:	ee07 7a10 	vmov	s14, r7
87802768:	ea42 2101 	orr.w	r1, r2, r1, lsl #8
8780276c:	ee07 4a90 	vmov	s15, r4
87802770:	eeb8 0ae7 	vcvt.f32.s32	s0, s15
87802774:	b209      	sxth	r1, r1
87802776:	ee07 6a90 	vmov	s15, r6
8780277a:	eeb8 6ac7 	vcvt.f32.s32	s12, s14
8780277e:	eeb8 7ae7 	vcvt.f32.s32	s14, s15
87802782:	ee07 0a90 	vmov	s15, r0
87802786:	eeb8 5ae7 	vcvt.f32.s32	s10, s15
8780278a:	ee07 1a90 	vmov	s15, r1
8780278e:	eec7 6a04 	vdiv.f32	s13, s14, s8
87802792:	ee86 6a08 	vdiv.f32	s12, s12, s16
87802796:	eeb8 7ae7 	vcvt.f32.s32	s14, s15
8780279a:	eec5 5a88 	vdiv.f32	s11, s11, s16
8780279e:	ee80 0a08 	vdiv.f32	s0, s0, s16
878027a2:	ee85 5a04 	vdiv.f32	s10, s10, s8
878027a6:	eec7 7a04 	vdiv.f32	s15, s14, s8
878027aa:	eddf 4a23 	vldr	s9, [pc, #140]	; 87802838 <icm20608_getdata+0x184>
878027ae:	eef3 0b09 	vmov.f64	d16, #57	; 0x39
878027b2:	eddf 2b1f 	vldr	d18, [pc, #124]	; 87802830 <icm20608_getdata+0x17c>
878027b6:	619d      	str	r5, [r3, #24]
878027b8:	f8c3 e000 	str.w	lr, [r3]
878027bc:	605f      	str	r7, [r3, #4]
878027be:	609c      	str	r4, [r3, #8]
878027c0:	60de      	str	r6, [r3, #12]
878027c2:	ee71 0ba0 	vadd.f64	d16, d17, d16
878027c6:	ee26 6a24 	vmul.f32	s12, s12, s9
878027ca:	ee26 7aa4 	vmul.f32	s14, s13, s9
878027ce:	ee65 5aa4 	vmul.f32	s11, s11, s9
878027d2:	ee60 0ba2 	vmul.f64	d16, d16, d18
878027d6:	eebd 6ac6 	vcvt.s32.f32	s12, s12
878027da:	ee20 0a24 	vmul.f32	s0, s0, s9
878027de:	ee65 6a24 	vmul.f32	s13, s10, s9
878027e2:	ee67 7aa4 	vmul.f32	s15, s15, s9
878027e6:	eefd 5ae5 	vcvt.s32.f32	s11, s11
878027ea:	eebd 0ac0 	vcvt.s32.f32	s0, s0
878027ee:	eebd 7ac7 	vcvt.s32.f32	s14, s14
878027f2:	ed83 6a08 	vstr	s12, [r3, #32]
878027f6:	eefd 6ae6 	vcvt.s32.f32	s13, s13
878027fa:	eebd 6be0 	vcvt.s32.f64	s12, d16
878027fe:	eefd 7ae7 	vcvt.s32.f32	s15, s15
87802802:	edc3 5a07 	vstr	s11, [r3, #28]
87802806:	ed83 0a09 	vstr	s0, [r3, #36]	; 0x24
8780280a:	ed83 7a0a 	vstr	s14, [r3, #40]	; 0x28
8780280e:	6118      	str	r0, [r3, #16]
87802810:	edc3 6a0b 	vstr	s13, [r3, #44]	; 0x2c
87802814:	6159      	str	r1, [r3, #20]
87802816:	edc3 7a0c 	vstr	s15, [r3, #48]	; 0x30
8780281a:	ed83 6a0d 	vstr	s12, [r3, #52]	; 0x34
8780281e:	b005      	add	sp, #20
87802820:	ecbd 8b02 	vpop	{d8}
87802824:	bdf0      	pop	{r4, r5, r6, r7, pc}
87802826:	bf00      	nop
87802828:	cccccccd 	stclgt	12, cr12, [ip], {205}	; 0xcd
8780282c:	40746ccc 	rsbsmi	r6, r4, ip, asr #25
87802830:	00000000 	andeq	r0, r0, r0
87802834:	40590000 	subsmi	r0, r9, r0
87802838:	42c80000 	sbcmi	r0, r8, #0
8780283c:	f3af 8000 	nop.w

87802840 <spi_init>:
87802840:	2200      	movs	r2, #0
87802842:	f44f 5100 	mov.w	r1, #8192	; 0x2000
87802846:	6082      	str	r2, [r0, #8]
87802848:	6883      	ldr	r3, [r0, #8]
8780284a:	f443 03e0 	orr.w	r3, r3, #7340032	; 0x700000
8780284e:	f043 0319 	orr.w	r3, r3, #25
87802852:	6083      	str	r3, [r0, #8]
87802854:	60c2      	str	r2, [r0, #12]
87802856:	61c1      	str	r1, [r0, #28]
87802858:	6883      	ldr	r3, [r0, #8]
8780285a:	f423 437f 	bic.w	r3, r3, #65280	; 0xff00
8780285e:	6083      	str	r3, [r0, #8]
87802860:	6883      	ldr	r3, [r0, #8]
87802862:	f443 4310 	orr.w	r3, r3, #36864	; 0x9000
87802866:	6083      	str	r3, [r0, #8]
87802868:	4770      	bx	lr
8780286a:	bf00      	nop

8780286c <spich0_readwrite_byte>:
8780286c:	6883      	ldr	r3, [r0, #8]
8780286e:	f423 2340 	bic.w	r3, r3, #786432	; 0xc0000
87802872:	6083      	str	r3, [r0, #8]
87802874:	6883      	ldr	r3, [r0, #8]
87802876:	6083      	str	r3, [r0, #8]
87802878:	6983      	ldr	r3, [r0, #24]
8780287a:	07da      	lsls	r2, r3, #31
8780287c:	d5fc      	bpl.n	87802878 <spich0_readwrite_byte+0xc>
8780287e:	6041      	str	r1, [r0, #4]
87802880:	6983      	ldr	r3, [r0, #24]
87802882:	071b      	lsls	r3, r3, #28
87802884:	d5fc      	bpl.n	87802880 <spich0_readwrite_byte+0x14>
87802886:	6800      	ldr	r0, [r0, #0]
87802888:	b2c0      	uxtb	r0, r0
8780288a:	4770      	bx	lr

8780288c <ft5426_write_byte>:
8780288c:	b530      	push	{r4, r5, lr}
8780288e:	b089      	sub	sp, #36	; 0x24
87802890:	f88d 0008 	strb.w	r0, [sp, #8]
87802894:	f44f 4080 	mov.w	r0, #16384	; 0x4000
87802898:	2301      	movs	r3, #1
8780289a:	2400      	movs	r4, #0
8780289c:	9104      	str	r1, [sp, #16]
8780289e:	f10d 0507 	add.w	r5, sp, #7
878028a2:	a902      	add	r1, sp, #8
878028a4:	f2c0 201a 	movt	r0, #538	; 0x21a
878028a8:	9506      	str	r5, [sp, #24]
878028aa:	f88d 2007 	strb.w	r2, [sp, #7]
878028ae:	9403      	str	r4, [sp, #12]
878028b0:	f88d 3014 	strb.w	r3, [sp, #20]
878028b4:	9307      	str	r3, [sp, #28]
878028b6:	f7ff fc39 	bl	8780212c <i2c_master_transfer>
878028ba:	1b00      	subs	r0, r0, r4
878028bc:	bf18      	it	ne
878028be:	2001      	movne	r0, #1
878028c0:	b009      	add	sp, #36	; 0x24
878028c2:	bd30      	pop	{r4, r5, pc}

878028c4 <ft5426_init>:
878028c4:	e92d 43f0 	stmdb	sp!, {r4, r5, r6, r7, r8, r9, lr}
878028c8:	23bc      	movs	r3, #188	; 0xbc
878028ca:	f240 57ac 	movw	r7, #1452	; 0x5ac
878028ce:	2612      	movs	r6, #18
878028d0:	f04f 0802 	mov.w	r8, #2
878028d4:	f2c0 230e 	movt	r3, #526	; 0x20e
878028d8:	f2c0 270e 	movt	r7, #526	; 0x20e
878028dc:	20c0      	movs	r0, #192	; 0xc0
878028de:	f44f 64b6 	mov.w	r4, #1456	; 0x5b0
878028e2:	601e      	str	r6, [r3, #0]
878028e4:	f2c0 200e 	movt	r0, #526	; 0x20e
878028e8:	f8c7 8000 	str.w	r8, [r7]
878028ec:	f2c0 240e 	movt	r4, #526	; 0x20e
878028f0:	f44f 7552 	mov.w	r5, #840	; 0x348
878028f4:	f44f 7153 	mov.w	r1, #844	; 0x34c
878028f8:	2280      	movs	r2, #128	; 0x80
878028fa:	f44f 7343 	mov.w	r3, #780	; 0x30c
878028fe:	f44f 4740 	mov.w	r7, #49152	; 0xc000
87802902:	6006      	str	r6, [r0, #0]
87802904:	b08f      	sub	sp, #60	; 0x3c
87802906:	f8c4 8000 	str.w	r8, [r4]
8780290a:	f2c0 230e 	movt	r3, #526	; 0x20e
8780290e:	f247 00b0 	movw	r0, #28848	; 0x70b0
87802912:	2405      	movs	r4, #5
87802914:	f2c0 250e 	movt	r5, #526	; 0x20e
87802918:	f2c0 210e 	movt	r1, #526	; 0x20e
8780291c:	f2c0 220e 	movt	r2, #526	; 0x20e
87802920:	f2c0 2709 	movt	r7, #521	; 0x209
87802924:	f24f 0680 	movw	r6, #61568	; 0xf080
87802928:	6028      	str	r0, [r5, #0]
8780292a:	6008      	str	r0, [r1, #0]
8780292c:	2500      	movs	r5, #0
8780292e:	6014      	str	r4, [r2, #0]
87802930:	4638      	mov	r0, r7
87802932:	601e      	str	r6, [r3, #0]
87802934:	aa02      	add	r2, sp, #8
87802936:	2109      	movs	r1, #9
87802938:	9404      	str	r4, [sp, #16]
8780293a:	9502      	str	r5, [sp, #8]
8780293c:	f7fd ff56 	bl	878007ec <gpio_init>
87802940:	ee9f 3f10 	mrc	15, 4, r3, cr15, cr0, {0}
87802944:	0c1b      	lsrs	r3, r3, #16
87802946:	f241 120c 	movw	r2, #4364	; 0x110c
8780294a:	2004      	movs	r0, #4
8780294c:	041b      	lsls	r3, r3, #16
8780294e:	f642 3105 	movw	r1, #11013	; 0x2b05
87802952:	f2c8 7180 	movt	r1, #34688	; 0x8780
87802956:	5098      	str	r0, [r3, r2]
87802958:	462a      	mov	r2, r5
8780295a:	2062      	movs	r0, #98	; 0x62
8780295c:	f44f 4640 	mov.w	r6, #49152	; 0xc000
87802960:	f7fd ff84 	bl	8780086c <system_register_irqhandler>
87802964:	4638      	mov	r0, r7
87802966:	2109      	movs	r1, #9
87802968:	f7fd feea 	bl	87800740 <gpio_enableint>
8780296c:	222c      	movs	r2, #44	; 0x2c
8780296e:	2370      	movs	r3, #112	; 0x70
87802970:	f2c0 2329 	movt	r3, #553	; 0x229
87802974:	f2c0 260a 	movt	r6, #522	; 0x20a
87802978:	f2c0 2229 	movt	r2, #553	; 0x229
8780297c:	f241 01b0 	movw	r1, #4272	; 0x10b0
87802980:	6014      	str	r4, [r2, #0]
87802982:	4630      	mov	r0, r6
87802984:	6019      	str	r1, [r3, #0]
87802986:	2401      	movs	r4, #1
87802988:	aa05      	add	r2, sp, #20
8780298a:	2109      	movs	r1, #9
8780298c:	9405      	str	r4, [sp, #20]
8780298e:	f44f 4980 	mov.w	r9, #16384	; 0x4000
87802992:	f88d 4018 	strb.w	r4, [sp, #24]
87802996:	f2c0 291a 	movt	r9, #538	; 0x21a
8780299a:	f7fd ff27 	bl	878007ec <gpio_init>
8780299e:	462a      	mov	r2, r5
878029a0:	4630      	mov	r0, r6
878029a2:	2109      	movs	r1, #9
878029a4:	2738      	movs	r7, #56	; 0x38
878029a6:	f7fd feb7 	bl	87800718 <gpio_pinwrite>
878029aa:	2032      	movs	r0, #50	; 0x32
878029ac:	f7fd fdf6 	bl	8780059c <delay_ms>
878029b0:	4622      	mov	r2, r4
878029b2:	2109      	movs	r1, #9
878029b4:	4630      	mov	r0, r6
878029b6:	f7fd feaf 	bl	87800718 <gpio_pinwrite>
878029ba:	2032      	movs	r0, #50	; 0x32
878029bc:	f7fd fdee 	bl	8780059c <delay_ms>
878029c0:	4648      	mov	r0, r9
878029c2:	f7ff faad 	bl	87801f20 <i2c_init>
878029c6:	aa01      	add	r2, sp, #4
878029c8:	23a1      	movs	r3, #161	; 0xa1
878029ca:	a908      	add	r1, sp, #32
878029cc:	4648      	mov	r0, r9
878029ce:	920c      	str	r2, [sp, #48]	; 0x30
878029d0:	930a      	str	r3, [sp, #40]	; 0x28
878029d2:	9409      	str	r4, [sp, #36]	; 0x24
878029d4:	f88d 402c 	strb.w	r4, [sp, #44]	; 0x2c
878029d8:	f8cd 8034 	str.w	r8, [sp, #52]	; 0x34
878029dc:	f88d 7020 	strb.w	r7, [sp, #32]
878029e0:	f7ff fba4 	bl	8780212c <i2c_master_transfer>
878029e4:	f89d 3005 	ldrb.w	r3, [sp, #5]
878029e8:	f249 1080 	movw	r0, #37248	; 0x9180
878029ec:	f89d 1004 	ldrb.w	r1, [sp, #4]
878029f0:	f2c8 7080 	movt	r0, #34688	; 0x8780
878029f4:	ea43 2101 	orr.w	r1, r3, r1, lsl #8
878029f8:	f000 f918 	bl	87802c2c <printf>
878029fc:	462a      	mov	r2, r5
878029fe:	4629      	mov	r1, r5
87802a00:	4638      	mov	r0, r7
87802a02:	f7ff ff43 	bl	8780288c <ft5426_write_byte>
87802a06:	4622      	mov	r2, r4
87802a08:	4638      	mov	r0, r7
87802a0a:	21a4      	movs	r1, #164	; 0xa4
87802a0c:	f7ff ff3e 	bl	8780288c <ft5426_write_byte>
87802a10:	f24a 0324 	movw	r3, #40996	; 0xa024
87802a14:	f2c8 7380 	movt	r3, #34688	; 0x8780
87802a18:	701c      	strb	r4, [r3, #0]
87802a1a:	b00f      	add	sp, #60	; 0x3c
87802a1c:	e8bd 83f0 	ldmia.w	sp!, {r4, r5, r6, r7, r8, r9, pc}

87802a20 <ft5426_read_byte>:
87802a20:	b510      	push	{r4, lr}
87802a22:	b088      	sub	sp, #32
87802a24:	f88d 0008 	strb.w	r0, [sp, #8]
87802a28:	f44f 4080 	mov.w	r0, #16384	; 0x4000
87802a2c:	2301      	movs	r3, #1
87802a2e:	2200      	movs	r2, #0
87802a30:	9104      	str	r1, [sp, #16]
87802a32:	f10d 0407 	add.w	r4, sp, #7
87802a36:	a902      	add	r1, sp, #8
87802a38:	f2c0 201a 	movt	r0, #538	; 0x21a
87802a3c:	9406      	str	r4, [sp, #24]
87802a3e:	f88d 2007 	strb.w	r2, [sp, #7]
87802a42:	9303      	str	r3, [sp, #12]
87802a44:	f88d 3014 	strb.w	r3, [sp, #20]
87802a48:	9307      	str	r3, [sp, #28]
87802a4a:	f7ff fb6f 	bl	8780212c <i2c_master_transfer>
87802a4e:	f89d 0007 	ldrb.w	r0, [sp, #7]
87802a52:	b008      	add	sp, #32
87802a54:	bd10      	pop	{r4, pc}
87802a56:	bf00      	nop

87802a58 <ft5426_read_len>:
87802a58:	b510      	push	{r4, lr}
87802a5a:	b086      	sub	sp, #24
87802a5c:	f88d 0000 	strb.w	r0, [sp]
87802a60:	f44f 4080 	mov.w	r0, #16384	; 0x4000
87802a64:	2401      	movs	r4, #1
87802a66:	f2c0 201a 	movt	r0, #538	; 0x21a
87802a6a:	9102      	str	r1, [sp, #8]
87802a6c:	4669      	mov	r1, sp
87802a6e:	9304      	str	r3, [sp, #16]
87802a70:	9401      	str	r4, [sp, #4]
87802a72:	9205      	str	r2, [sp, #20]
87802a74:	f88d 400c 	strb.w	r4, [sp, #12]
87802a78:	f7ff fb58 	bl	8780212c <i2c_master_transfer>
87802a7c:	b006      	add	sp, #24
87802a7e:	bd10      	pop	{r4, pc}

87802a80 <ft5426_read_tpcoord>:
87802a80:	b5f0      	push	{r4, r5, r6, r7, lr}
87802a82:	f24a 0424 	movw	r4, #40996	; 0xa024
87802a86:	b08f      	sub	sp, #60	; 0x3c
87802a88:	2102      	movs	r1, #2
87802a8a:	f2c8 7480 	movt	r4, #34688	; 0x8780
87802a8e:	2038      	movs	r0, #56	; 0x38
87802a90:	f7ff ffc6 	bl	87802a20 <ft5426_read_byte>
87802a94:	7060      	strb	r0, [r4, #1]
87802a96:	f44f 4080 	mov.w	r0, #16384	; 0x4000
87802a9a:	2201      	movs	r2, #1
87802a9c:	231e      	movs	r3, #30
87802a9e:	ad06      	add	r5, sp, #24
87802aa0:	f2c0 201a 	movt	r0, #538	; 0x21a
87802aa4:	2738      	movs	r7, #56	; 0x38
87802aa6:	2603      	movs	r6, #3
87802aa8:	4669      	mov	r1, sp
87802aaa:	9504      	str	r5, [sp, #16]
87802aac:	9201      	str	r2, [sp, #4]
87802aae:	f88d 200c 	strb.w	r2, [sp, #12]
87802ab2:	f88d 7000 	strb.w	r7, [sp]
87802ab6:	9602      	str	r6, [sp, #8]
87802ab8:	9305      	str	r3, [sp, #20]
87802aba:	f7ff fb37 	bl	8780212c <i2c_master_transfer>
87802abe:	7862      	ldrb	r2, [r4, #1]
87802ac0:	b1ea      	cbz	r2, 87802afe <ft5426_read_tpcoord+0x7e>
87802ac2:	1e56      	subs	r6, r2, #1
87802ac4:	462b      	mov	r3, r5
87802ac6:	b2f6      	uxtb	r6, r6
87802ac8:	4620      	mov	r0, r4
87802aca:	3601      	adds	r6, #1
87802acc:	00f2      	lsls	r2, r6, #3
87802ace:	eba2 0646 	sub.w	r6, r2, r6, lsl #1
87802ad2:	442e      	add	r6, r5
87802ad4:	781d      	ldrb	r5, [r3, #0]
87802ad6:	3306      	adds	r3, #6
87802ad8:	f813 1c05 	ldrb.w	r1, [r3, #-5]
87802adc:	f813 4c04 	ldrb.w	r4, [r3, #-4]
87802ae0:	f813 2c03 	ldrb.w	r2, [r3, #-3]
87802ae4:	42b3      	cmp	r3, r6
87802ae6:	ea41 2105 	orr.w	r1, r1, r5, lsl #8
87802aea:	ea42 2204 	orr.w	r2, r2, r4, lsl #8
87802aee:	f3c1 010b 	ubfx	r1, r1, #0, #12
87802af2:	8181      	strh	r1, [r0, #12]
87802af4:	f3c2 020b 	ubfx	r2, r2, #0, #12
87802af8:	f820 2f02 	strh.w	r2, [r0, #2]!
87802afc:	d1ea      	bne.n	87802ad4 <ft5426_read_tpcoord+0x54>
87802afe:	b00f      	add	sp, #60	; 0x3c
87802b00:	bdf0      	pop	{r4, r5, r6, r7, pc}
87802b02:	bf00      	nop

87802b04 <gpio1_io09_irqhandler>:
87802b04:	b508      	push	{r3, lr}
87802b06:	f24a 0324 	movw	r3, #40996	; 0xa024
87802b0a:	f2c8 7380 	movt	r3, #34688	; 0x8780
87802b0e:	781b      	ldrb	r3, [r3, #0]
87802b10:	2b01      	cmp	r3, #1
87802b12:	d008      	beq.n	87802b26 <gpio1_io09_irqhandler+0x22>
87802b14:	f44f 4040 	mov.w	r0, #49152	; 0xc000
87802b18:	2109      	movs	r1, #9
87802b1a:	f2c0 2009 	movt	r0, #521	; 0x209
87802b1e:	e8bd 4008 	ldmia.w	sp!, {r3, lr}
87802b22:	f7fd be1b 	b.w	8780075c <gpio_clearintflags>
87802b26:	f7ff ffab 	bl	87802a80 <ft5426_read_tpcoord>
87802b2a:	e7f3      	b.n	87802b14 <gpio1_io09_irqhandler+0x10>

87802b2c <__div64_32>:
87802b2c:	e92d 4ff8 	stmdb	sp!, {r3, r4, r5, r6, r7, r8, r9, sl, fp, lr}
87802b30:	4688      	mov	r8, r1
87802b32:	e9d0 6700 	ldrd	r6, r7, [r0]
87802b36:	f04f 0b00 	mov.w	fp, #0
87802b3a:	4681      	mov	r9, r0
87802b3c:	468a      	mov	sl, r1
87802b3e:	4644      	mov	r4, r8
87802b40:	465d      	mov	r5, fp
87802b42:	42b9      	cmp	r1, r7
87802b44:	bf84      	itt	hi
87802b46:	2200      	movhi	r2, #0
87802b48:	2300      	movhi	r3, #0
87802b4a:	d80b      	bhi.n	87802b64 <__div64_32+0x38>
87802b4c:	4638      	mov	r0, r7
87802b4e:	f001 fc87 	bl	87804460 <__aeabi_uidiv>
87802b52:	4686      	mov	lr, r0
87802b54:	2000      	movs	r0, #0
87802b56:	fb08 f10e 	mul.w	r1, r8, lr
87802b5a:	4602      	mov	r2, r0
87802b5c:	4673      	mov	r3, lr
87802b5e:	1a36      	subs	r6, r6, r0
87802b60:	eb67 0701 	sbc.w	r7, r7, r1
87802b64:	45bb      	cmp	fp, r7
87802b66:	bf08      	it	eq
87802b68:	45b2      	cmpeq	sl, r6
87802b6a:	bf34      	ite	cc
87802b6c:	2101      	movcc	r1, #1
87802b6e:	2100      	movcs	r1, #0
87802b70:	f1ba 0f01 	cmp.w	sl, #1
87802b74:	f001 0101 	and.w	r1, r1, #1
87802b78:	f17b 0000 	sbcs.w	r0, fp, #0
87802b7c:	f04f 0001 	mov.w	r0, #1
87802b80:	bfb8      	it	lt
87802b82:	2100      	movlt	r1, #0
87802b84:	b371      	cbz	r1, 87802be4 <__div64_32+0xb8>
87802b86:	2100      	movs	r1, #0
87802b88:	1924      	adds	r4, r4, r4
87802b8a:	416d      	adcs	r5, r5
87802b8c:	1800      	adds	r0, r0, r0
87802b8e:	4149      	adcs	r1, r1
87802b90:	2c01      	cmp	r4, #1
87802b92:	f175 0e00 	sbcs.w	lr, r5, #0
87802b96:	bfac      	ite	ge
87802b98:	f04f 0e01 	movge.w	lr, #1
87802b9c:	f04f 0e00 	movlt.w	lr, #0
87802ba0:	42bd      	cmp	r5, r7
87802ba2:	f00e 0e01 	and.w	lr, lr, #1
87802ba6:	bf08      	it	eq
87802ba8:	42b4      	cmpeq	r4, r6
87802baa:	bf28      	it	cs
87802bac:	f04f 0e00 	movcs.w	lr, #0
87802bb0:	f1be 0f00 	cmp.w	lr, #0
87802bb4:	d1e8      	bne.n	87802b88 <__div64_32+0x5c>
87802bb6:	42af      	cmp	r7, r5
87802bb8:	bf08      	it	eq
87802bba:	42a6      	cmpeq	r6, r4
87802bbc:	d304      	bcc.n	87802bc8 <__div64_32+0x9c>
87802bbe:	1b36      	subs	r6, r6, r4
87802bc0:	eb67 0705 	sbc.w	r7, r7, r5
87802bc4:	1812      	adds	r2, r2, r0
87802bc6:	414b      	adcs	r3, r1
87802bc8:	0849      	lsrs	r1, r1, #1
87802bca:	ea4f 0030 	mov.w	r0, r0, rrx
87802bce:	086d      	lsrs	r5, r5, #1
87802bd0:	ea4f 0434 	mov.w	r4, r4, rrx
87802bd4:	ea50 0e01 	orrs.w	lr, r0, r1
87802bd8:	d1ed      	bne.n	87802bb6 <__div64_32+0x8a>
87802bda:	e9c9 2300 	strd	r2, r3, [r9]
87802bde:	4630      	mov	r0, r6
87802be0:	e8bd 8ff8 	ldmia.w	sp!, {r3, r4, r5, r6, r7, r8, r9, sl, fp, pc}
87802be4:	2100      	movs	r1, #0
87802be6:	e7e6      	b.n	87802bb6 <__div64_32+0x8a>

87802be8 <__muldi3>:
87802be8:	fb02 f101 	mul.w	r1, r2, r1
87802bec:	b4f0      	push	{r4, r5, r6, r7}
87802bee:	4604      	mov	r4, r0
87802bf0:	ea4f 4610 	mov.w	r6, r0, lsr #16
87802bf4:	ea4f 4512 	mov.w	r5, r2, lsr #16
87802bf8:	ea20 4706 	bic.w	r7, r0, r6, lsl #16
87802bfc:	ea22 4205 	bic.w	r2, r2, r5, lsl #16
87802c00:	fb07 f002 	mul.w	r0, r7, r2
87802c04:	fb06 f202 	mul.w	r2, r6, r2
87802c08:	fb05 f707 	mul.w	r7, r5, r7
87802c0c:	fb06 f505 	mul.w	r5, r6, r5
87802c10:	19d7      	adds	r7, r2, r7
87802c12:	bf28      	it	cs
87802c14:	f505 3580 	addcs.w	r5, r5, #65536	; 0x10000
87802c18:	eb10 4007 	adds.w	r0, r0, r7, lsl #16
87802c1c:	eb45 4517 	adc.w	r5, r5, r7, lsr #16
87802c20:	fb03 1104 	mla	r1, r3, r4, r1
87802c24:	4429      	add	r1, r5
87802c26:	bcf0      	pop	{r4, r5, r6, r7}
87802c28:	4770      	bx	lr
87802c2a:	bf00      	nop

87802c2c <printf>:
87802c2c:	b40f      	push	{r0, r1, r2, r3}
87802c2e:	f249 70cc 	movw	r0, #38860	; 0x97cc
87802c32:	b570      	push	{r4, r5, r6, lr}
87802c34:	f2c8 7080 	movt	r0, #34688	; 0x8780
87802c38:	aa05      	add	r2, sp, #20
87802c3a:	2400      	movs	r4, #0
87802c3c:	9904      	ldr	r1, [sp, #16]
87802c3e:	f001 f923 	bl	87803e88 <vsprintf>
87802c42:	4d0b      	ldr	r5, [pc, #44]	; (87802c70 <printf+0x44>)
87802c44:	4606      	mov	r6, r0
87802c46:	e003      	b.n	87802c50 <printf+0x24>
87802c48:	f815 0f01 	ldrb.w	r0, [r5, #1]!
87802c4c:	f7fe f952 	bl	87800ef4 <putc>
87802c50:	f249 70cc 	movw	r0, #38860	; 0x97cc
87802c54:	f2c8 7080 	movt	r0, #34688	; 0x8780
87802c58:	f000 f8fc 	bl	87802e54 <strlen>
87802c5c:	4284      	cmp	r4, r0
87802c5e:	f104 0401 	add.w	r4, r4, #1
87802c62:	d3f1      	bcc.n	87802c48 <printf+0x1c>
87802c64:	4630      	mov	r0, r6
87802c66:	e8bd 4070 	ldmia.w	sp!, {r4, r5, r6, lr}
87802c6a:	b004      	add	sp, #16
87802c6c:	4770      	bx	lr
87802c6e:	bf00      	nop
87802c70:	878097cb 	strhi	r9, [r0, fp, asr #15]

87802c74 <scanf>:
87802c74:	b40f      	push	{r0, r1, r2, r3}
87802c76:	b570      	push	{r4, r5, r6, lr}
87802c78:	2500      	movs	r5, #0
87802c7a:	4e10      	ldr	r6, [pc, #64]	; (87802cbc <scanf+0x48>)
87802c7c:	e002      	b.n	87802c84 <scanf+0x10>
87802c7e:	3501      	adds	r5, #1
87802c80:	f806 4f01 	strb.w	r4, [r6, #1]!
87802c84:	f7fe f942 	bl	87800f0c <getc>
87802c88:	4604      	mov	r4, r0
87802c8a:	f7fe f933 	bl	87800ef4 <putc>
87802c8e:	2c0d      	cmp	r4, #13
87802c90:	bf18      	it	ne
87802c92:	2c0a      	cmpne	r4, #10
87802c94:	d1f3      	bne.n	87802c7e <scanf+0xa>
87802c96:	f249 70cc 	movw	r0, #38860	; 0x97cc
87802c9a:	2300      	movs	r3, #0
87802c9c:	f2c8 7080 	movt	r0, #34688	; 0x8780
87802ca0:	aa05      	add	r2, sp, #20
87802ca2:	4405      	add	r5, r0
87802ca4:	9904      	ldr	r1, [sp, #16]
87802ca6:	f500 6080 	add.w	r0, r0, #1024	; 0x400
87802caa:	f885 3400 	strb.w	r3, [r5, #1024]	; 0x400
87802cae:	f001 f8fd 	bl	87803eac <vsscanf>
87802cb2:	e8bd 4070 	ldmia.w	sp!, {r4, r5, r6, lr}
87802cb6:	b004      	add	sp, #16
87802cb8:	4770      	bx	lr
87802cba:	bf00      	nop
87802cbc:	87809bcb 	strhi	r9, [r0, fp, asr #23]

87802cc0 <strnicmp>:
87802cc0:	b322      	cbz	r2, 87802d0c <strnicmp+0x4c>
87802cc2:	b5f0      	push	{r4, r5, r6, r7, lr}
87802cc4:	f249 15c4 	movw	r5, #37316	; 0x91c4
87802cc8:	3801      	subs	r0, #1
87802cca:	f2c8 7580 	movt	r5, #34688	; 0x8780
87802cce:	e008      	b.n	87802ce2 <strnicmp+0x22>
87802cd0:	07f6      	lsls	r6, r6, #31
87802cd2:	fa5f f38e 	uxtb.w	r3, lr
87802cd6:	d500      	bpl.n	87802cda <strnicmp+0x1a>
87802cd8:	b2fc      	uxtb	r4, r7
87802cda:	42a3      	cmp	r3, r4
87802cdc:	d114      	bne.n	87802d08 <strnicmp+0x48>
87802cde:	3a01      	subs	r2, #1
87802ce0:	d01a      	beq.n	87802d18 <strnicmp+0x58>
87802ce2:	f810 3f01 	ldrb.w	r3, [r0, #1]!
87802ce6:	f811 4b01 	ldrb.w	r4, [r1], #1
87802cea:	b18b      	cbz	r3, 87802d10 <strnicmp+0x50>
87802cec:	b194      	cbz	r4, 87802d14 <strnicmp+0x54>
87802cee:	42a3      	cmp	r3, r4
87802cf0:	d0f5      	beq.n	87802cde <strnicmp+0x1e>
87802cf2:	5cee      	ldrb	r6, [r5, r3]
87802cf4:	f104 0720 	add.w	r7, r4, #32
87802cf8:	f103 0e20 	add.w	lr, r3, #32
87802cfc:	f016 0f01 	tst.w	r6, #1
87802d00:	5d2e      	ldrb	r6, [r5, r4]
87802d02:	d1e5      	bne.n	87802cd0 <strnicmp+0x10>
87802d04:	07f6      	lsls	r6, r6, #31
87802d06:	d4e7      	bmi.n	87802cd8 <strnicmp+0x18>
87802d08:	1b18      	subs	r0, r3, r4
87802d0a:	bdf0      	pop	{r4, r5, r6, r7, pc}
87802d0c:	4610      	mov	r0, r2
87802d0e:	4770      	bx	lr
87802d10:	4260      	negs	r0, r4
87802d12:	bdf0      	pop	{r4, r5, r6, r7, pc}
87802d14:	4618      	mov	r0, r3
87802d16:	bdf0      	pop	{r4, r5, r6, r7, pc}
87802d18:	4610      	mov	r0, r2
87802d1a:	bdf0      	pop	{r4, r5, r6, r7, pc}

87802d1c <strcpy>:
87802d1c:	1e42      	subs	r2, r0, #1
87802d1e:	f811 3b01 	ldrb.w	r3, [r1], #1
87802d22:	f802 3f01 	strb.w	r3, [r2, #1]!
87802d26:	2b00      	cmp	r3, #0
87802d28:	d1f9      	bne.n	87802d1e <strcpy+0x2>
87802d2a:	4770      	bx	lr

87802d2c <strncpy>:
87802d2c:	b410      	push	{r4}
87802d2e:	440a      	add	r2, r1
87802d30:	1e44      	subs	r4, r0, #1
87802d32:	e004      	b.n	87802d3e <strncpy+0x12>
87802d34:	f811 3b01 	ldrb.w	r3, [r1], #1
87802d38:	f804 3f01 	strb.w	r3, [r4, #1]!
87802d3c:	b10b      	cbz	r3, 87802d42 <strncpy+0x16>
87802d3e:	4291      	cmp	r1, r2
87802d40:	d1f8      	bne.n	87802d34 <strncpy+0x8>
87802d42:	f85d 4b04 	ldr.w	r4, [sp], #4
87802d46:	4770      	bx	lr

87802d48 <strcat>:
87802d48:	7803      	ldrb	r3, [r0, #0]
87802d4a:	b163      	cbz	r3, 87802d66 <strcat+0x1e>
87802d4c:	4603      	mov	r3, r0
87802d4e:	f813 2f01 	ldrb.w	r2, [r3, #1]!
87802d52:	2a00      	cmp	r2, #0
87802d54:	d1fb      	bne.n	87802d4e <strcat+0x6>
87802d56:	3b01      	subs	r3, #1
87802d58:	f811 2b01 	ldrb.w	r2, [r1], #1
87802d5c:	f803 2f01 	strb.w	r2, [r3, #1]!
87802d60:	2a00      	cmp	r2, #0
87802d62:	d1f9      	bne.n	87802d58 <strcat+0x10>
87802d64:	4770      	bx	lr
87802d66:	4603      	mov	r3, r0
87802d68:	e7f5      	b.n	87802d56 <strcat+0xe>
87802d6a:	bf00      	nop

87802d6c <strncat>:
87802d6c:	b1ba      	cbz	r2, 87802d9e <strncat+0x32>
87802d6e:	7803      	ldrb	r3, [r0, #0]
87802d70:	b430      	push	{r4, r5}
87802d72:	b1bb      	cbz	r3, 87802da4 <strncat+0x38>
87802d74:	4603      	mov	r3, r0
87802d76:	f813 4f01 	ldrb.w	r4, [r3, #1]!
87802d7a:	2c00      	cmp	r4, #0
87802d7c:	d1fb      	bne.n	87802d76 <strncat+0xa>
87802d7e:	f811 4b01 	ldrb.w	r4, [r1], #1
87802d82:	461d      	mov	r5, r3
87802d84:	f803 4b01 	strb.w	r4, [r3], #1
87802d88:	b144      	cbz	r4, 87802d9c <strncat+0x30>
87802d8a:	3a01      	subs	r2, #1
87802d8c:	d008      	beq.n	87802da0 <strncat+0x34>
87802d8e:	f811 4b01 	ldrb.w	r4, [r1], #1
87802d92:	461d      	mov	r5, r3
87802d94:	f803 4b01 	strb.w	r4, [r3], #1
87802d98:	2c00      	cmp	r4, #0
87802d9a:	d1f6      	bne.n	87802d8a <strncat+0x1e>
87802d9c:	bc30      	pop	{r4, r5}
87802d9e:	4770      	bx	lr
87802da0:	706a      	strb	r2, [r5, #1]
87802da2:	e7fb      	b.n	87802d9c <strncat+0x30>
87802da4:	4603      	mov	r3, r0
87802da6:	e7f2      	b.n	87802d8e <strncat+0x22>

87802da8 <strcmp>:
87802da8:	1e42      	subs	r2, r0, #1
87802daa:	e000      	b.n	87802dae <strcmp+0x6>
87802dac:	b148      	cbz	r0, 87802dc2 <strcmp+0x1a>
87802dae:	f812 0f01 	ldrb.w	r0, [r2, #1]!
87802db2:	f811 3b01 	ldrb.w	r3, [r1], #1
87802db6:	1ac3      	subs	r3, r0, r3
87802db8:	f013 03ff 	ands.w	r3, r3, #255	; 0xff
87802dbc:	d0f6      	beq.n	87802dac <strcmp+0x4>
87802dbe:	b258      	sxtb	r0, r3
87802dc0:	4770      	bx	lr
87802dc2:	4770      	bx	lr

87802dc4 <strncmp>:
87802dc4:	b302      	cbz	r2, 87802e08 <strncmp+0x44>
87802dc6:	b470      	push	{r4, r5, r6}
87802dc8:	1c4d      	adds	r5, r1, #1
87802dca:	7803      	ldrb	r3, [r0, #0]
87802dcc:	780e      	ldrb	r6, [r1, #0]
87802dce:	1b9e      	subs	r6, r3, r6
87802dd0:	f016 06ff 	ands.w	r6, r6, #255	; 0xff
87802dd4:	bf18      	it	ne
87802dd6:	b270      	sxtbne	r0, r6
87802dd8:	d10e      	bne.n	87802df8 <strncmp+0x34>
87802dda:	b1bb      	cbz	r3, 87802e0c <strncmp+0x48>
87802ddc:	440a      	add	r2, r1
87802dde:	e008      	b.n	87802df2 <strncmp+0x2e>
87802de0:	f810 4f01 	ldrb.w	r4, [r0, #1]!
87802de4:	f815 3b01 	ldrb.w	r3, [r5], #1
87802de8:	1ae3      	subs	r3, r4, r3
87802dea:	f013 03ff 	ands.w	r3, r3, #255	; 0xff
87802dee:	d105      	bne.n	87802dfc <strncmp+0x38>
87802df0:	b13c      	cbz	r4, 87802e02 <strncmp+0x3e>
87802df2:	4295      	cmp	r5, r2
87802df4:	d1f4      	bne.n	87802de0 <strncmp+0x1c>
87802df6:	2000      	movs	r0, #0
87802df8:	bc70      	pop	{r4, r5, r6}
87802dfa:	4770      	bx	lr
87802dfc:	b258      	sxtb	r0, r3
87802dfe:	bc70      	pop	{r4, r5, r6}
87802e00:	4770      	bx	lr
87802e02:	4620      	mov	r0, r4
87802e04:	bc70      	pop	{r4, r5, r6}
87802e06:	4770      	bx	lr
87802e08:	4610      	mov	r0, r2
87802e0a:	4770      	bx	lr
87802e0c:	4618      	mov	r0, r3
87802e0e:	e7f3      	b.n	87802df8 <strncmp+0x34>

87802e10 <strchr>:
87802e10:	7803      	ldrb	r3, [r0, #0]
87802e12:	b2c9      	uxtb	r1, r1
87802e14:	428b      	cmp	r3, r1
87802e16:	d006      	beq.n	87802e26 <strchr+0x16>
87802e18:	b123      	cbz	r3, 87802e24 <strchr+0x14>
87802e1a:	f810 3f01 	ldrb.w	r3, [r0, #1]!
87802e1e:	428b      	cmp	r3, r1
87802e20:	d1fa      	bne.n	87802e18 <strchr+0x8>
87802e22:	4770      	bx	lr
87802e24:	4618      	mov	r0, r3
87802e26:	4770      	bx	lr

87802e28 <strrchr>:
87802e28:	7803      	ldrb	r3, [r0, #0]
87802e2a:	b18b      	cbz	r3, 87802e50 <strrchr+0x28>
87802e2c:	4603      	mov	r3, r0
87802e2e:	f813 2f01 	ldrb.w	r2, [r3, #1]!
87802e32:	2a00      	cmp	r2, #0
87802e34:	d1fb      	bne.n	87802e2e <strrchr+0x6>
87802e36:	b2c9      	uxtb	r1, r1
87802e38:	2200      	movs	r2, #0
87802e3a:	e003      	b.n	87802e44 <strrchr+0x1c>
87802e3c:	3b01      	subs	r3, #1
87802e3e:	4298      	cmp	r0, r3
87802e40:	d804      	bhi.n	87802e4c <strrchr+0x24>
87802e42:	781a      	ldrb	r2, [r3, #0]
87802e44:	428a      	cmp	r2, r1
87802e46:	d1f9      	bne.n	87802e3c <strrchr+0x14>
87802e48:	4618      	mov	r0, r3
87802e4a:	4770      	bx	lr
87802e4c:	2000      	movs	r0, #0
87802e4e:	4770      	bx	lr
87802e50:	4603      	mov	r3, r0
87802e52:	e7f0      	b.n	87802e36 <strrchr+0xe>

87802e54 <strlen>:
87802e54:	7802      	ldrb	r2, [r0, #0]
87802e56:	b132      	cbz	r2, 87802e66 <strlen+0x12>
87802e58:	4603      	mov	r3, r0
87802e5a:	f813 1f01 	ldrb.w	r1, [r3, #1]!
87802e5e:	2900      	cmp	r1, #0
87802e60:	d1fb      	bne.n	87802e5a <strlen+0x6>
87802e62:	1a18      	subs	r0, r3, r0
87802e64:	4770      	bx	lr
87802e66:	4610      	mov	r0, r2
87802e68:	4770      	bx	lr
87802e6a:	bf00      	nop

87802e6c <strnlen>:
87802e6c:	b199      	cbz	r1, 87802e96 <strnlen+0x2a>
87802e6e:	7803      	ldrb	r3, [r0, #0]
87802e70:	b19b      	cbz	r3, 87802e9a <strnlen+0x2e>
87802e72:	b410      	push	{r4}
87802e74:	4401      	add	r1, r0
87802e76:	1c43      	adds	r3, r0, #1
87802e78:	e002      	b.n	87802e80 <strnlen+0x14>
87802e7a:	781c      	ldrb	r4, [r3, #0]
87802e7c:	3301      	adds	r3, #1
87802e7e:	b134      	cbz	r4, 87802e8e <strnlen+0x22>
87802e80:	428b      	cmp	r3, r1
87802e82:	461a      	mov	r2, r3
87802e84:	d1f9      	bne.n	87802e7a <strnlen+0xe>
87802e86:	1a18      	subs	r0, r3, r0
87802e88:	f85d 4b04 	ldr.w	r4, [sp], #4
87802e8c:	4770      	bx	lr
87802e8e:	1a10      	subs	r0, r2, r0
87802e90:	f85d 4b04 	ldr.w	r4, [sp], #4
87802e94:	4770      	bx	lr
87802e96:	4608      	mov	r0, r1
87802e98:	4770      	bx	lr
87802e9a:	4618      	mov	r0, r3
87802e9c:	4770      	bx	lr
87802e9e:	bf00      	nop

87802ea0 <strspn>:
87802ea0:	b470      	push	{r4, r5, r6}
87802ea2:	4605      	mov	r5, r0
87802ea4:	7804      	ldrb	r4, [r0, #0]
87802ea6:	b1ac      	cbz	r4, 87802ed4 <strspn+0x34>
87802ea8:	780e      	ldrb	r6, [r1, #0]
87802eaa:	2000      	movs	r0, #0
87802eac:	b14e      	cbz	r6, 87802ec2 <strspn+0x22>
87802eae:	42a6      	cmp	r6, r4
87802eb0:	d009      	beq.n	87802ec6 <strspn+0x26>
87802eb2:	460a      	mov	r2, r1
87802eb4:	e001      	b.n	87802eba <strspn+0x1a>
87802eb6:	429c      	cmp	r4, r3
87802eb8:	d005      	beq.n	87802ec6 <strspn+0x26>
87802eba:	f812 3f01 	ldrb.w	r3, [r2, #1]!
87802ebe:	2b00      	cmp	r3, #0
87802ec0:	d1f9      	bne.n	87802eb6 <strspn+0x16>
87802ec2:	bc70      	pop	{r4, r5, r6}
87802ec4:	4770      	bx	lr
87802ec6:	f815 4f01 	ldrb.w	r4, [r5, #1]!
87802eca:	3001      	adds	r0, #1
87802ecc:	2c00      	cmp	r4, #0
87802ece:	d1ed      	bne.n	87802eac <strspn+0xc>
87802ed0:	bc70      	pop	{r4, r5, r6}
87802ed2:	4770      	bx	lr
87802ed4:	4620      	mov	r0, r4
87802ed6:	e7f4      	b.n	87802ec2 <strspn+0x22>

87802ed8 <strpbrk>:
87802ed8:	b430      	push	{r4, r5}
87802eda:	7804      	ldrb	r4, [r0, #0]
87802edc:	b17c      	cbz	r4, 87802efe <strpbrk+0x26>
87802ede:	780d      	ldrb	r5, [r1, #0]
87802ee0:	b14d      	cbz	r5, 87802ef6 <strpbrk+0x1e>
87802ee2:	42a5      	cmp	r5, r4
87802ee4:	d00c      	beq.n	87802f00 <strpbrk+0x28>
87802ee6:	460a      	mov	r2, r1
87802ee8:	e001      	b.n	87802eee <strpbrk+0x16>
87802eea:	429c      	cmp	r4, r3
87802eec:	d008      	beq.n	87802f00 <strpbrk+0x28>
87802eee:	f812 3f01 	ldrb.w	r3, [r2, #1]!
87802ef2:	2b00      	cmp	r3, #0
87802ef4:	d1f9      	bne.n	87802eea <strpbrk+0x12>
87802ef6:	f810 4f01 	ldrb.w	r4, [r0, #1]!
87802efa:	2c00      	cmp	r4, #0
87802efc:	d1f0      	bne.n	87802ee0 <strpbrk+0x8>
87802efe:	4620      	mov	r0, r4
87802f00:	bc30      	pop	{r4, r5}
87802f02:	4770      	bx	lr

87802f04 <strtok>:
87802f04:	b5f0      	push	{r4, r5, r6, r7, lr}
87802f06:	f24a 0e3c 	movw	lr, #41020	; 0xa03c
87802f0a:	f2c8 7e80 	movt	lr, #34688	; 0x8780
87802f0e:	2800      	cmp	r0, #0
87802f10:	d03e      	beq.n	87802f90 <strtok+0x8c>
87802f12:	7804      	ldrb	r4, [r0, #0]
87802f14:	2c00      	cmp	r4, #0
87802f16:	d037      	beq.n	87802f88 <strtok+0x84>
87802f18:	780d      	ldrb	r5, [r1, #0]
87802f1a:	4607      	mov	r7, r0
87802f1c:	2600      	movs	r6, #0
87802f1e:	b14d      	cbz	r5, 87802f34 <strtok+0x30>
87802f20:	42a5      	cmp	r5, r4
87802f22:	d01e      	beq.n	87802f62 <strtok+0x5e>
87802f24:	460a      	mov	r2, r1
87802f26:	e001      	b.n	87802f2c <strtok+0x28>
87802f28:	429c      	cmp	r4, r3
87802f2a:	d01a      	beq.n	87802f62 <strtok+0x5e>
87802f2c:	f812 3f01 	ldrb.w	r3, [r2, #1]!
87802f30:	2b00      	cmp	r3, #0
87802f32:	d1f9      	bne.n	87802f28 <strtok+0x24>
87802f34:	5d84      	ldrb	r4, [r0, r6]
87802f36:	4430      	add	r0, r6
87802f38:	4606      	mov	r6, r0
87802f3a:	b32c      	cbz	r4, 87802f88 <strtok+0x84>
87802f3c:	b14d      	cbz	r5, 87802f52 <strtok+0x4e>
87802f3e:	42a5      	cmp	r5, r4
87802f40:	d01a      	beq.n	87802f78 <strtok+0x74>
87802f42:	460a      	mov	r2, r1
87802f44:	e001      	b.n	87802f4a <strtok+0x46>
87802f46:	429c      	cmp	r4, r3
87802f48:	d016      	beq.n	87802f78 <strtok+0x74>
87802f4a:	f812 3f01 	ldrb.w	r3, [r2, #1]!
87802f4e:	2b00      	cmp	r3, #0
87802f50:	d1f9      	bne.n	87802f46 <strtok+0x42>
87802f52:	f816 4f01 	ldrb.w	r4, [r6, #1]!
87802f56:	2c00      	cmp	r4, #0
87802f58:	d1f0      	bne.n	87802f3c <strtok+0x38>
87802f5a:	4626      	mov	r6, r4
87802f5c:	f8ce 6000 	str.w	r6, [lr]
87802f60:	bdf0      	pop	{r4, r5, r6, r7, pc}
87802f62:	f817 4f01 	ldrb.w	r4, [r7, #1]!
87802f66:	3601      	adds	r6, #1
87802f68:	2c00      	cmp	r4, #0
87802f6a:	d1d8      	bne.n	87802f1e <strtok+0x1a>
87802f6c:	5d84      	ldrb	r4, [r0, r6]
87802f6e:	4430      	add	r0, r6
87802f70:	4606      	mov	r6, r0
87802f72:	2c00      	cmp	r4, #0
87802f74:	d1e2      	bne.n	87802f3c <strtok+0x38>
87802f76:	e007      	b.n	87802f88 <strtok+0x84>
87802f78:	7833      	ldrb	r3, [r6, #0]
87802f7a:	4632      	mov	r2, r6
87802f7c:	2b00      	cmp	r3, #0
87802f7e:	d0ed      	beq.n	87802f5c <strtok+0x58>
87802f80:	2300      	movs	r3, #0
87802f82:	3601      	adds	r6, #1
87802f84:	7013      	strb	r3, [r2, #0]
87802f86:	e7e9      	b.n	87802f5c <strtok+0x58>
87802f88:	2000      	movs	r0, #0
87802f8a:	f8ce 0000 	str.w	r0, [lr]
87802f8e:	bdf0      	pop	{r4, r5, r6, r7, pc}
87802f90:	f8de 0000 	ldr.w	r0, [lr]
87802f94:	2800      	cmp	r0, #0
87802f96:	d1bc      	bne.n	87802f12 <strtok+0xe>
87802f98:	e7e2      	b.n	87802f60 <strtok+0x5c>
87802f9a:	bf00      	nop

87802f9c <strsep>:
87802f9c:	b4f0      	push	{r4, r5, r6, r7}
87802f9e:	4607      	mov	r7, r0
87802fa0:	6800      	ldr	r0, [r0, #0]
87802fa2:	b198      	cbz	r0, 87802fcc <strsep+0x30>
87802fa4:	7804      	ldrb	r4, [r0, #0]
87802fa6:	b184      	cbz	r4, 87802fca <strsep+0x2e>
87802fa8:	780e      	ldrb	r6, [r1, #0]
87802faa:	4605      	mov	r5, r0
87802fac:	b14e      	cbz	r6, 87802fc2 <strsep+0x26>
87802fae:	42a6      	cmp	r6, r4
87802fb0:	d00e      	beq.n	87802fd0 <strsep+0x34>
87802fb2:	460a      	mov	r2, r1
87802fb4:	e001      	b.n	87802fba <strsep+0x1e>
87802fb6:	429c      	cmp	r4, r3
87802fb8:	d00a      	beq.n	87802fd0 <strsep+0x34>
87802fba:	f812 3f01 	ldrb.w	r3, [r2, #1]!
87802fbe:	2b00      	cmp	r3, #0
87802fc0:	d1f9      	bne.n	87802fb6 <strsep+0x1a>
87802fc2:	f815 4f01 	ldrb.w	r4, [r5, #1]!
87802fc6:	2c00      	cmp	r4, #0
87802fc8:	d1f0      	bne.n	87802fac <strsep+0x10>
87802fca:	603c      	str	r4, [r7, #0]
87802fcc:	bcf0      	pop	{r4, r5, r6, r7}
87802fce:	4770      	bx	lr
87802fd0:	2300      	movs	r3, #0
87802fd2:	1c6c      	adds	r4, r5, #1
87802fd4:	702b      	strb	r3, [r5, #0]
87802fd6:	e7f8      	b.n	87802fca <strsep+0x2e>

87802fd8 <memset>:
87802fd8:	b132      	cbz	r2, 87802fe8 <memset+0x10>
87802fda:	b2c9      	uxtb	r1, r1
87802fdc:	4402      	add	r2, r0
87802fde:	4603      	mov	r3, r0
87802fe0:	f803 1b01 	strb.w	r1, [r3], #1
87802fe4:	4293      	cmp	r3, r2
87802fe6:	d1fb      	bne.n	87802fe0 <memset+0x8>
87802fe8:	4770      	bx	lr
87802fea:	bf00      	nop

87802fec <bcopy>:
87802fec:	b13a      	cbz	r2, 87802ffe <bcopy+0x12>
87802fee:	3901      	subs	r1, #1
87802ff0:	4402      	add	r2, r0
87802ff2:	f810 3b01 	ldrb.w	r3, [r0], #1
87802ff6:	4290      	cmp	r0, r2
87802ff8:	f801 3f01 	strb.w	r3, [r1, #1]!
87802ffc:	d1f9      	bne.n	87802ff2 <bcopy+0x6>
87802ffe:	4770      	bx	lr

87803000 <memcpy>:
87803000:	b152      	cbz	r2, 87803018 <memcpy+0x18>
87803002:	440a      	add	r2, r1
87803004:	1e43      	subs	r3, r0, #1
87803006:	b410      	push	{r4}
87803008:	f811 4b01 	ldrb.w	r4, [r1], #1
8780300c:	4291      	cmp	r1, r2
8780300e:	f803 4f01 	strb.w	r4, [r3, #1]!
87803012:	d1f9      	bne.n	87803008 <memcpy+0x8>
87803014:	f85d 4b04 	ldr.w	r4, [sp], #4
87803018:	4770      	bx	lr
8780301a:	bf00      	nop

8780301c <memmove>:
8780301c:	4288      	cmp	r0, r1
8780301e:	b410      	push	{r4}
87803020:	d80b      	bhi.n	8780303a <memmove+0x1e>
87803022:	b13a      	cbz	r2, 87803034 <memmove+0x18>
87803024:	440a      	add	r2, r1
87803026:	1e43      	subs	r3, r0, #1
87803028:	f811 4b01 	ldrb.w	r4, [r1], #1
8780302c:	4291      	cmp	r1, r2
8780302e:	f803 4f01 	strb.w	r4, [r3, #1]!
87803032:	d1f9      	bne.n	87803028 <memmove+0xc>
87803034:	f85d 4b04 	ldr.w	r4, [sp], #4
87803038:	4770      	bx	lr
8780303a:	4411      	add	r1, r2
8780303c:	1883      	adds	r3, r0, r2
8780303e:	2a00      	cmp	r2, #0
87803040:	d0f8      	beq.n	87803034 <memmove+0x18>
87803042:	1a8a      	subs	r2, r1, r2
87803044:	f811 4d01 	ldrb.w	r4, [r1, #-1]!
87803048:	4291      	cmp	r1, r2
8780304a:	f803 4d01 	strb.w	r4, [r3, #-1]!
8780304e:	d1f9      	bne.n	87803044 <memmove+0x28>
87803050:	f85d 4b04 	ldr.w	r4, [sp], #4
87803054:	4770      	bx	lr
87803056:	bf00      	nop

87803058 <memcmp>:
87803058:	b1aa      	cbz	r2, 87803086 <memcmp+0x2e>
8780305a:	b430      	push	{r4, r5}
8780305c:	4604      	mov	r4, r0
8780305e:	7803      	ldrb	r3, [r0, #0]
87803060:	7808      	ldrb	r0, [r1, #0]
87803062:	1a18      	subs	r0, r3, r0
87803064:	d10a      	bne.n	8780307c <memcmp+0x24>
87803066:	4422      	add	r2, r4
87803068:	3401      	adds	r4, #1
8780306a:	e005      	b.n	87803078 <memcmp+0x20>
8780306c:	f814 3b01 	ldrb.w	r3, [r4], #1
87803070:	f811 5f01 	ldrb.w	r5, [r1, #1]!
87803074:	1b5b      	subs	r3, r3, r5
87803076:	d103      	bne.n	87803080 <memcmp+0x28>
87803078:	4294      	cmp	r4, r2
8780307a:	d1f7      	bne.n	8780306c <memcmp+0x14>
8780307c:	bc30      	pop	{r4, r5}
8780307e:	4770      	bx	lr
87803080:	4618      	mov	r0, r3
87803082:	bc30      	pop	{r4, r5}
87803084:	4770      	bx	lr
87803086:	4610      	mov	r0, r2
87803088:	4770      	bx	lr
8780308a:	bf00      	nop

8780308c <memscan>:
8780308c:	b182      	cbz	r2, 878030b0 <memscan+0x24>
8780308e:	7803      	ldrb	r3, [r0, #0]
87803090:	428b      	cmp	r3, r1
87803092:	d00d      	beq.n	878030b0 <memscan+0x24>
87803094:	b410      	push	{r4}
87803096:	4402      	add	r2, r0
87803098:	1c43      	adds	r3, r0, #1
8780309a:	e002      	b.n	878030a2 <memscan+0x16>
8780309c:	7804      	ldrb	r4, [r0, #0]
8780309e:	428c      	cmp	r4, r1
878030a0:	d004      	beq.n	878030ac <memscan+0x20>
878030a2:	4293      	cmp	r3, r2
878030a4:	4618      	mov	r0, r3
878030a6:	f103 0301 	add.w	r3, r3, #1
878030aa:	d1f7      	bne.n	8780309c <memscan+0x10>
878030ac:	f85d 4b04 	ldr.w	r4, [sp], #4
878030b0:	4770      	bx	lr
878030b2:	bf00      	nop

878030b4 <strstr>:
878030b4:	b5f0      	push	{r4, r5, r6, r7, lr}
878030b6:	468e      	mov	lr, r1
878030b8:	f891 c000 	ldrb.w	ip, [r1]
878030bc:	f1bc 0f00 	cmp.w	ip, #0
878030c0:	d028      	beq.n	87803114 <strstr+0x60>
878030c2:	460e      	mov	r6, r1
878030c4:	f816 3f01 	ldrb.w	r3, [r6, #1]!
878030c8:	2b00      	cmp	r3, #0
878030ca:	d1fb      	bne.n	878030c4 <strstr+0x10>
878030cc:	ebb6 010e 	subs.w	r1, r6, lr
878030d0:	d020      	beq.n	87803114 <strstr+0x60>
878030d2:	7807      	ldrb	r7, [r0, #0]
878030d4:	b12f      	cbz	r7, 878030e2 <strstr+0x2e>
878030d6:	4607      	mov	r7, r0
878030d8:	f817 3f01 	ldrb.w	r3, [r7, #1]!
878030dc:	2b00      	cmp	r3, #0
878030de:	d1fb      	bne.n	878030d8 <strstr+0x24>
878030e0:	1a3f      	subs	r7, r7, r0
878030e2:	42b9      	cmp	r1, r7
878030e4:	dc15      	bgt.n	87803112 <strstr+0x5e>
878030e6:	3f01      	subs	r7, #1
878030e8:	b1a1      	cbz	r1, 87803114 <strstr+0x60>
878030ea:	7803      	ldrb	r3, [r0, #0]
878030ec:	4563      	cmp	r3, ip
878030ee:	d10c      	bne.n	8780310a <strstr+0x56>
878030f0:	4602      	mov	r2, r0
878030f2:	f10e 0301 	add.w	r3, lr, #1
878030f6:	e005      	b.n	87803104 <strstr+0x50>
878030f8:	f813 4b01 	ldrb.w	r4, [r3], #1
878030fc:	f812 5f01 	ldrb.w	r5, [r2, #1]!
87803100:	42a5      	cmp	r5, r4
87803102:	d102      	bne.n	8780310a <strstr+0x56>
87803104:	42b3      	cmp	r3, r6
87803106:	d1f7      	bne.n	878030f8 <strstr+0x44>
87803108:	bdf0      	pop	{r4, r5, r6, r7, pc}
8780310a:	428f      	cmp	r7, r1
8780310c:	f100 0001 	add.w	r0, r0, #1
87803110:	dae9      	bge.n	878030e6 <strstr+0x32>
87803112:	2000      	movs	r0, #0
87803114:	bdf0      	pop	{r4, r5, r6, r7, pc}
87803116:	bf00      	nop

87803118 <memchr>:
87803118:	b410      	push	{r4}
8780311a:	b2c9      	uxtb	r1, r1
8780311c:	4402      	add	r2, r0
8780311e:	e004      	b.n	8780312a <memchr+0x12>
87803120:	f813 4b01 	ldrb.w	r4, [r3], #1
87803124:	428c      	cmp	r4, r1
87803126:	d004      	beq.n	87803132 <memchr+0x1a>
87803128:	4618      	mov	r0, r3
8780312a:	4290      	cmp	r0, r2
8780312c:	4603      	mov	r3, r0
8780312e:	d1f7      	bne.n	87803120 <memchr+0x8>
87803130:	2000      	movs	r0, #0
87803132:	f85d 4b04 	ldr.w	r4, [sp], #4
87803136:	4770      	bx	lr

87803138 <number>:
87803138:	e92d 4ff0 	stmdb	sp!, {r4, r5, r6, r7, r8, r9, sl, fp, lr}
8780313c:	b0a7      	sub	sp, #156	; 0x9c
8780313e:	460e      	mov	r6, r1
87803140:	9930      	ldr	r1, [sp, #192]	; 0xc0
87803142:	4604      	mov	r4, r0
87803144:	f8dd 80cc 	ldr.w	r8, [sp, #204]	; 0xcc
87803148:	390a      	subs	r1, #10
8780314a:	bf18      	it	ne
8780314c:	2101      	movne	r1, #1
8780314e:	f008 0520 	and.w	r5, r8, #32
87803152:	ea01 1058 	and.w	r0, r1, r8, lsr #5
87803156:	b2ed      	uxtb	r5, r5
87803158:	9000      	str	r0, [sp, #0]
8780315a:	f018 0010 	ands.w	r0, r8, #16
8780315e:	bf18      	it	ne
87803160:	f028 0801 	bicne.w	r8, r8, #1
87803164:	9006      	str	r0, [sp, #24]
87803166:	f018 0002 	ands.w	r0, r8, #2
8780316a:	d011      	beq.n	87803190 <number+0x58>
8780316c:	2a00      	cmp	r2, #0
8780316e:	f173 0000 	sbcs.w	r0, r3, #0
87803172:	f2c0 80e6 	blt.w	87803342 <number+0x20a>
87803176:	f018 0f04 	tst.w	r8, #4
8780317a:	f040 80c7 	bne.w	8780330c <number+0x1d4>
8780317e:	f018 0008 	ands.w	r0, r8, #8
87803182:	d005      	beq.n	87803190 <number+0x58>
87803184:	9831      	ldr	r0, [sp, #196]	; 0xc4
87803186:	3801      	subs	r0, #1
87803188:	9031      	str	r0, [sp, #196]	; 0xc4
8780318a:	2020      	movs	r0, #32
8780318c:	9001      	str	r0, [sp, #4]
8780318e:	e000      	b.n	87803192 <number+0x5a>
87803190:	9001      	str	r0, [sp, #4]
87803192:	9800      	ldr	r0, [sp, #0]
87803194:	b130      	cbz	r0, 878031a4 <number+0x6c>
87803196:	9830      	ldr	r0, [sp, #192]	; 0xc0
87803198:	2810      	cmp	r0, #16
8780319a:	f000 80c6 	beq.w	8780332a <number+0x1f2>
8780319e:	9831      	ldr	r0, [sp, #196]	; 0xc4
878031a0:	3801      	subs	r0, #1
878031a2:	9031      	str	r0, [sp, #196]	; 0xc4
878031a4:	ea52 0003 	orrs.w	r0, r2, r3
878031a8:	d17c      	bne.n	878032a4 <number+0x16c>
878031aa:	2200      	movs	r2, #0
878031ac:	2701      	movs	r7, #1
878031ae:	2330      	movs	r3, #48	; 0x30
878031b0:	f88d 3034 	strb.w	r3, [sp, #52]	; 0x34
878031b4:	9b32      	ldr	r3, [sp, #200]	; 0xc8
878031b6:	9931      	ldr	r1, [sp, #196]	; 0xc4
878031b8:	42bb      	cmp	r3, r7
878031ba:	bfb8      	it	lt
878031bc:	463b      	movlt	r3, r7
878031be:	f018 0f11 	tst.w	r8, #17
878031c2:	eba1 0003 	sub.w	r0, r1, r3
878031c6:	d110      	bne.n	878031ea <number+0xb2>
878031c8:	f1b0 0c01 	subs.w	ip, r0, #1
878031cc:	f100 81d0 	bmi.w	87803570 <number+0x438>
878031d0:	1821      	adds	r1, r4, r0
878031d2:	f04f 0e20 	mov.w	lr, #32
878031d6:	42a6      	cmp	r6, r4
878031d8:	f104 0401 	add.w	r4, r4, #1
878031dc:	bf88      	it	hi
878031de:	f804 ec01 	strbhi.w	lr, [r4, #-1]
878031e2:	428c      	cmp	r4, r1
878031e4:	d1f7      	bne.n	878031d6 <number+0x9e>
878031e6:	ebc0 000c 	rsb	r0, r0, ip
878031ea:	9901      	ldr	r1, [sp, #4]
878031ec:	b139      	cbz	r1, 878031fe <number+0xc6>
878031ee:	42b4      	cmp	r4, r6
878031f0:	f104 0401 	add.w	r4, r4, #1
878031f4:	bf3c      	itt	cc
878031f6:	f89d 1004 	ldrbcc.w	r1, [sp, #4]
878031fa:	f804 1c01 	strbcc.w	r1, [r4, #-1]
878031fe:	9900      	ldr	r1, [sp, #0]
87803200:	b151      	cbz	r1, 87803218 <number+0xe0>
87803202:	42b4      	cmp	r4, r6
87803204:	f104 0e01 	add.w	lr, r4, #1
87803208:	bf3c      	itt	cc
8780320a:	2130      	movcc	r1, #48	; 0x30
8780320c:	7021      	strbcc	r1, [r4, #0]
8780320e:	9930      	ldr	r1, [sp, #192]	; 0xc0
87803210:	2910      	cmp	r1, #16
87803212:	bf18      	it	ne
87803214:	4674      	movne	r4, lr
87803216:	d07f      	beq.n	87803318 <number+0x1e0>
87803218:	9906      	ldr	r1, [sp, #24]
8780321a:	b991      	cbnz	r1, 87803242 <number+0x10a>
8780321c:	f018 0f01 	tst.w	r8, #1
87803220:	bf14      	ite	ne
87803222:	2130      	movne	r1, #48	; 0x30
87803224:	2120      	moveq	r1, #32
87803226:	1e45      	subs	r5, r0, #1
87803228:	f100 81a4 	bmi.w	87803574 <number+0x43c>
8780322c:	4420      	add	r0, r4
8780322e:	42a6      	cmp	r6, r4
87803230:	f104 0401 	add.w	r4, r4, #1
87803234:	bf88      	it	hi
87803236:	f804 1c01 	strbhi.w	r1, [r4, #-1]
8780323a:	4284      	cmp	r4, r0
8780323c:	d1f7      	bne.n	8780322e <number+0xf6>
8780323e:	f04f 30ff 	mov.w	r0, #4294967295	; 0xffffffff
87803242:	429f      	cmp	r7, r3
87803244:	f280 8122 	bge.w	8780348c <number+0x354>
87803248:	1bdb      	subs	r3, r3, r7
8780324a:	2130      	movs	r1, #48	; 0x30
8780324c:	4423      	add	r3, r4
8780324e:	42a6      	cmp	r6, r4
87803250:	f104 0401 	add.w	r4, r4, #1
87803254:	bf88      	it	hi
87803256:	f804 1c01 	strbhi.w	r1, [r4, #-1]
8780325a:	429c      	cmp	r4, r3
8780325c:	d1f7      	bne.n	8780324e <number+0x116>
8780325e:	2a00      	cmp	r2, #0
87803260:	f2c0 8110 	blt.w	87803484 <number+0x34c>
87803264:	1c51      	adds	r1, r2, #1
87803266:	ac0d      	add	r4, sp, #52	; 0x34
87803268:	4422      	add	r2, r4
8780326a:	4419      	add	r1, r3
8780326c:	429e      	cmp	r6, r3
8780326e:	f103 0301 	add.w	r3, r3, #1
87803272:	bf88      	it	hi
87803274:	7814      	ldrbhi	r4, [r2, #0]
87803276:	f102 32ff 	add.w	r2, r2, #4294967295	; 0xffffffff
8780327a:	bf88      	it	hi
8780327c:	f803 4c01 	strbhi.w	r4, [r3, #-1]
87803280:	428b      	cmp	r3, r1
87803282:	d1f3      	bne.n	8780326c <number+0x134>
87803284:	2800      	cmp	r0, #0
87803286:	f340 80ff 	ble.w	87803488 <number+0x350>
8780328a:	4408      	add	r0, r1
8780328c:	2320      	movs	r3, #32
8780328e:	428e      	cmp	r6, r1
87803290:	f101 0101 	add.w	r1, r1, #1
87803294:	bf88      	it	hi
87803296:	f801 3c01 	strbhi.w	r3, [r1, #-1]
8780329a:	4281      	cmp	r1, r0
8780329c:	d1f7      	bne.n	8780328e <number+0x156>
8780329e:	b027      	add	sp, #156	; 0x9c
878032a0:	e8bd 8ff0 	ldmia.w	sp!, {r4, r5, r6, r7, r8, r9, sl, fp, pc}
878032a4:	2900      	cmp	r1, #0
878032a6:	d055      	beq.n	87803354 <number+0x21c>
878032a8:	9930      	ldr	r1, [sp, #192]	; 0xc0
878032aa:	2910      	cmp	r1, #16
878032ac:	f101 3eff 	add.w	lr, r1, #4294967295	; 0xffffffff
878032b0:	bf12      	itee	ne
878032b2:	f04f 0903 	movne.w	r9, #3
878032b6:	f04f 0e0f 	moveq.w	lr, #15
878032ba:	f04f 0904 	moveq.w	r9, #4
878032be:	f249 1ca0 	movw	ip, #37280	; 0x91a0
878032c2:	f10d 0033 	add.w	r0, sp, #51	; 0x33
878032c6:	f2c8 7c80 	movt	ip, #34688	; 0x8780
878032ca:	2700      	movs	r7, #0
878032cc:	b2d1      	uxtb	r1, r2
878032ce:	f1c9 0a20 	rsb	sl, r9, #32
878032d2:	f1b9 0b20 	subs.w	fp, r9, #32
878032d6:	fa03 fa0a 	lsl.w	sl, r3, sl
878032da:	ea01 010e 	and.w	r1, r1, lr
878032de:	fa22 f209 	lsr.w	r2, r2, r9
878032e2:	f81c 1001 	ldrb.w	r1, [ip, r1]
878032e6:	bf58      	it	pl
878032e8:	fa43 fb0b 	asrpl.w	fp, r3, fp
878032ec:	ea42 020a 	orr.w	r2, r2, sl
878032f0:	fa43 f309 	asr.w	r3, r3, r9
878032f4:	bf58      	it	pl
878032f6:	ea42 020b 	orrpl.w	r2, r2, fp
878032fa:	4329      	orrs	r1, r5
878032fc:	3701      	adds	r7, #1
878032fe:	f800 1f01 	strb.w	r1, [r0, #1]!
87803302:	ea52 0103 	orrs.w	r1, r2, r3
87803306:	d1e1      	bne.n	878032cc <number+0x194>
87803308:	1e7a      	subs	r2, r7, #1
8780330a:	e753      	b.n	878031b4 <number+0x7c>
8780330c:	9831      	ldr	r0, [sp, #196]	; 0xc4
8780330e:	3801      	subs	r0, #1
87803310:	9031      	str	r0, [sp, #196]	; 0xc4
87803312:	202b      	movs	r0, #43	; 0x2b
87803314:	9001      	str	r0, [sp, #4]
87803316:	e73c      	b.n	87803192 <number+0x5a>
87803318:	4576      	cmp	r6, lr
8780331a:	f104 0402 	add.w	r4, r4, #2
8780331e:	bf84      	itt	hi
87803320:	f045 0558 	orrhi.w	r5, r5, #88	; 0x58
87803324:	f804 5c01 	strbhi.w	r5, [r4, #-1]
87803328:	e776      	b.n	87803218 <number+0xe0>
8780332a:	9931      	ldr	r1, [sp, #196]	; 0xc4
8780332c:	3902      	subs	r1, #2
8780332e:	9131      	str	r1, [sp, #196]	; 0xc4
87803330:	ea52 0103 	orrs.w	r1, r2, r3
87803334:	bf1c      	itt	ne
87803336:	f04f 0e0f 	movne.w	lr, #15
8780333a:	f04f 0904 	movne.w	r9, #4
8780333e:	d1be      	bne.n	878032be <number+0x186>
87803340:	e733      	b.n	878031aa <number+0x72>
87803342:	9831      	ldr	r0, [sp, #196]	; 0xc4
87803344:	4252      	negs	r2, r2
87803346:	eb63 0343 	sbc.w	r3, r3, r3, lsl #1
8780334a:	3801      	subs	r0, #1
8780334c:	9031      	str	r0, [sp, #196]	; 0xc4
8780334e:	202d      	movs	r0, #45	; 0x2d
87803350:	9001      	str	r0, [sp, #4]
87803352:	e71e      	b.n	87803192 <number+0x5a>
87803354:	4610      	mov	r0, r2
87803356:	4619      	mov	r1, r3
87803358:	f248 629f 	movw	r2, #34463	; 0x869f
8780335c:	2300      	movs	r3, #0
8780335e:	f2c0 0201 	movt	r2, #1
87803362:	428b      	cmp	r3, r1
87803364:	bf08      	it	eq
87803366:	4282      	cmpeq	r2, r0
87803368:	e9cd 0104 	strd	r0, r1, [sp, #16]
8780336c:	e9cd 010a 	strd	r0, r1, [sp, #40]	; 0x28
87803370:	f080 8102 	bcs.w	87803578 <number+0x440>
87803374:	f248 61a0 	movw	r1, #34464	; 0x86a0
87803378:	f645 20c5 	movw	r0, #23237	; 0x5ac5
8780337c:	f2c0 0101 	movt	r1, #1
87803380:	f6c0 207c 	movt	r0, #2684	; 0xa7c
87803384:	9507      	str	r5, [sp, #28]
87803386:	f10d 0939 	add.w	r9, sp, #57	; 0x39
8780338a:	9609      	str	r6, [sp, #36]	; 0x24
8780338c:	4605      	mov	r5, r0
8780338e:	f8cd 80cc 	str.w	r8, [sp, #204]	; 0xcc
87803392:	4688      	mov	r8, r1
87803394:	e9cd 2302 	strd	r2, r3, [sp, #8]
87803398:	9408      	str	r4, [sp, #32]
8780339a:	e9dd 6704 	ldrd	r6, r7, [sp, #16]
8780339e:	e05f      	b.n	87803460 <number+0x328>
878033a0:	09d8      	lsrs	r0, r3, #7
878033a2:	2700      	movs	r7, #0
878033a4:	4603      	mov	r3, r0
878033a6:	fb08 6010 	mls	r0, r8, r0, r6
878033aa:	461e      	mov	r6, r3
878033ac:	e9cd 670a 	strd	r6, r7, [sp, #40]	; 0x28
878033b0:	f3c0 1a03 	ubfx	sl, r0, #4, #4
878033b4:	f3c0 2303 	ubfx	r3, r0, #8, #4
878033b8:	0b02      	lsrs	r2, r0, #12
878033ba:	eb0a 0103 	add.w	r1, sl, r3
878033be:	f000 0e0f 	and.w	lr, r0, #15
878033c2:	eb03 0c83 	add.w	ip, r3, r3, lsl #2
878033c6:	4411      	add	r1, r2
878033c8:	eb02 00c2 	add.w	r0, r2, r2, lsl #3
878033cc:	00cc      	lsls	r4, r1, #3
878033ce:	46cb      	mov	fp, r9
878033d0:	4450      	add	r0, sl
878033d2:	eba4 0141 	sub.w	r1, r4, r1, lsl #1
878033d6:	24cd      	movs	r4, #205	; 0xcd
878033d8:	4460      	add	r0, ip
878033da:	4471      	add	r1, lr
878033dc:	f109 0905 	add.w	r9, r9, #5
878033e0:	fb04 fa01 	mul.w	sl, r4, r1
878033e4:	ea4f 2ada 	mov.w	sl, sl, lsr #11
878033e8:	4450      	add	r0, sl
878033ea:	ea4f 0eca 	mov.w	lr, sl, lsl #3
878033ee:	fb04 fc00 	mul.w	ip, r4, r0
878033f2:	eb0e 0e4a 	add.w	lr, lr, sl, lsl #1
878033f6:	ebce 0101 	rsb	r1, lr, r1
878033fa:	ea4f 2cdc 	mov.w	ip, ip, lsr #11
878033fe:	3130      	adds	r1, #48	; 0x30
87803400:	f809 1c0a 	strb.w	r1, [r9, #-10]
87803404:	eb0c 0343 	add.w	r3, ip, r3, lsl #1
87803408:	ea4f 0ecc 	mov.w	lr, ip, lsl #3
8780340c:	0119      	lsls	r1, r3, #4
8780340e:	eb0e 0c4c 	add.w	ip, lr, ip, lsl #1
87803412:	eba1 0183 	sub.w	r1, r1, r3, lsl #2
87803416:	ebcc 0c00 	rsb	ip, ip, r0
8780341a:	f10c 0030 	add.w	r0, ip, #48	; 0x30
8780341e:	4419      	add	r1, r3
87803420:	f809 0c09 	strb.w	r0, [r9, #-9]
87803424:	09c9      	lsrs	r1, r1, #7
87803426:	eb01 0282 	add.w	r2, r1, r2, lsl #2
8780342a:	00c8      	lsls	r0, r1, #3
8780342c:	fb04 f402 	mul.w	r4, r4, r2
87803430:	eb00 0141 	add.w	r1, r0, r1, lsl #1
87803434:	1a5b      	subs	r3, r3, r1
87803436:	3330      	adds	r3, #48	; 0x30
87803438:	0ae4      	lsrs	r4, r4, #11
8780343a:	f809 3c08 	strb.w	r3, [r9, #-8]
8780343e:	00e3      	lsls	r3, r4, #3
87803440:	f104 0130 	add.w	r1, r4, #48	; 0x30
87803444:	f809 1c06 	strb.w	r1, [r9, #-6]
87803448:	eb03 0444 	add.w	r4, r3, r4, lsl #1
8780344c:	1b12      	subs	r2, r2, r4
8780344e:	e9dd 3402 	ldrd	r3, r4, [sp, #8]
87803452:	3230      	adds	r2, #48	; 0x30
87803454:	f809 2c07 	strb.w	r2, [r9, #-7]
87803458:	42bc      	cmp	r4, r7
8780345a:	bf08      	it	eq
8780345c:	42b3      	cmpeq	r3, r6
8780345e:	d217      	bcs.n	87803490 <number+0x358>
87803460:	0038      	movs	r0, r7
87803462:	2100      	movs	r1, #0
87803464:	0972      	lsrs	r2, r6, #5
87803466:	ea50 0301 	orrs.w	r3, r0, r1
8780346a:	fba2 2305 	umull	r2, r3, r2, r5
8780346e:	d097      	beq.n	878033a0 <number+0x268>
87803470:	f248 61a0 	movw	r1, #34464	; 0x86a0
87803474:	a80a      	add	r0, sp, #40	; 0x28
87803476:	f2c0 0101 	movt	r1, #1
8780347a:	f7ff fb57 	bl	87802b2c <__div64_32>
8780347e:	e9dd 670a 	ldrd	r6, r7, [sp, #40]	; 0x28
87803482:	e795      	b.n	878033b0 <number+0x278>
87803484:	4619      	mov	r1, r3
87803486:	e6fd      	b.n	87803284 <number+0x14c>
87803488:	4608      	mov	r0, r1
8780348a:	e708      	b.n	8780329e <number+0x166>
8780348c:	4623      	mov	r3, r4
8780348e:	e6e6      	b.n	8780325e <number+0x126>
87803490:	e9cd 6704 	strd	r6, r7, [sp, #16]
87803494:	f10d 0e34 	add.w	lr, sp, #52	; 0x34
87803498:	9d07      	ldr	r5, [sp, #28]
8780349a:	9c08      	ldr	r4, [sp, #32]
8780349c:	9e09      	ldr	r6, [sp, #36]	; 0x24
8780349e:	f8dd 80cc 	ldr.w	r8, [sp, #204]	; 0xcc
878034a2:	e9dd 0104 	ldrd	r0, r1, [sp, #16]
878034a6:	f04f 0acd 	mov.w	sl, #205	; 0xcd
878034aa:	f3c0 1303 	ubfx	r3, r0, #4, #4
878034ae:	f3c0 2903 	ubfx	r9, r0, #8, #4
878034b2:	ea4f 3c10 	mov.w	ip, r0, lsr #12
878034b6:	eb03 0209 	add.w	r2, r3, r9
878034ba:	f000 010f 	and.w	r1, r0, #15
878034be:	eb09 0789 	add.w	r7, r9, r9, lsl #2
878034c2:	4462      	add	r2, ip
878034c4:	9102      	str	r1, [sp, #8]
878034c6:	00d1      	lsls	r1, r2, #3
878034c8:	eb0c 00cc 	add.w	r0, ip, ip, lsl #3
878034cc:	eba1 0142 	sub.w	r1, r1, r2, lsl #1
878034d0:	9a02      	ldr	r2, [sp, #8]
878034d2:	4403      	add	r3, r0
878034d4:	443b      	add	r3, r7
878034d6:	4411      	add	r1, r2
878034d8:	fb0a f201 	mul.w	r2, sl, r1
878034dc:	0ad2      	lsrs	r2, r2, #11
878034de:	00d0      	lsls	r0, r2, #3
878034e0:	eb00 0042 	add.w	r0, r0, r2, lsl #1
878034e4:	189a      	adds	r2, r3, r2
878034e6:	bf08      	it	eq
878034e8:	f10b 0701 	addeq.w	r7, fp, #1
878034ec:	eba1 0100 	sub.w	r1, r1, r0
878034f0:	f101 0130 	add.w	r1, r1, #48	; 0x30
878034f4:	f88b 1000 	strb.w	r1, [fp]
878034f8:	d037      	beq.n	8780356a <number+0x432>
878034fa:	fb0a f102 	mul.w	r1, sl, r2
878034fe:	0ac9      	lsrs	r1, r1, #11
87803500:	00c8      	lsls	r0, r1, #3
87803502:	eb01 0349 	add.w	r3, r1, r9, lsl #1
87803506:	eb00 0141 	add.w	r1, r0, r1, lsl #1
8780350a:	1a52      	subs	r2, r2, r1
8780350c:	3230      	adds	r2, #48	; 0x30
8780350e:	f88b 2001 	strb.w	r2, [fp, #1]
87803512:	ea53 020c 	orrs.w	r2, r3, ip
87803516:	bf08      	it	eq
87803518:	f10b 0702 	addeq.w	r7, fp, #2
8780351c:	d025      	beq.n	8780356a <number+0x432>
8780351e:	011a      	lsls	r2, r3, #4
87803520:	eba2 0283 	sub.w	r2, r2, r3, lsl #2
87803524:	441a      	add	r2, r3
87803526:	09d2      	lsrs	r2, r2, #7
87803528:	00d1      	lsls	r1, r2, #3
8780352a:	eb01 0142 	add.w	r1, r1, r2, lsl #1
8780352e:	eb12 028c 	adds.w	r2, r2, ip, lsl #2
87803532:	eba3 0301 	sub.w	r3, r3, r1
87803536:	bf08      	it	eq
87803538:	f10b 0703 	addeq.w	r7, fp, #3
8780353c:	f103 0330 	add.w	r3, r3, #48	; 0x30
87803540:	f88b 3002 	strb.w	r3, [fp, #2]
87803544:	d011      	beq.n	8780356a <number+0x432>
87803546:	fb0a f302 	mul.w	r3, sl, r2
8780354a:	f10b 0704 	add.w	r7, fp, #4
8780354e:	0adb      	lsrs	r3, r3, #11
87803550:	00d9      	lsls	r1, r3, #3
87803552:	eb01 0143 	add.w	r1, r1, r3, lsl #1
87803556:	1a52      	subs	r2, r2, r1
87803558:	3230      	adds	r2, #48	; 0x30
8780355a:	f88b 2003 	strb.w	r2, [fp, #3]
8780355e:	b123      	cbz	r3, 8780356a <number+0x432>
87803560:	f10b 0705 	add.w	r7, fp, #5
87803564:	3330      	adds	r3, #48	; 0x30
87803566:	f88b 3004 	strb.w	r3, [fp, #4]
8780356a:	ebce 0707 	rsb	r7, lr, r7
8780356e:	e6cb      	b.n	87803308 <number+0x1d0>
87803570:	4660      	mov	r0, ip
87803572:	e63a      	b.n	878031ea <number+0xb2>
87803574:	4628      	mov	r0, r5
87803576:	e664      	b.n	87803242 <number+0x10a>
87803578:	f10d 0e34 	add.w	lr, sp, #52	; 0x34
8780357c:	46f3      	mov	fp, lr
8780357e:	e790      	b.n	878034a2 <number+0x36a>

87803580 <simple_strtoul>:
87803580:	b5f0      	push	{r4, r5, r6, r7, lr}
87803582:	4606      	mov	r6, r0
87803584:	b96a      	cbnz	r2, 878035a2 <simple_strtoul+0x22>
87803586:	7804      	ldrb	r4, [r0, #0]
87803588:	2c30      	cmp	r4, #48	; 0x30
8780358a:	d043      	beq.n	87803614 <simple_strtoul+0x94>
8780358c:	f249 17c4 	movw	r7, #37316	; 0x91c4
87803590:	4623      	mov	r3, r4
87803592:	f2c8 7780 	movt	r7, #34688	; 0x8780
87803596:	220a      	movs	r2, #10
87803598:	f817 e004 	ldrb.w	lr, [r7, r4]
8780359c:	f00e 0544 	and.w	r5, lr, #68	; 0x44
878035a0:	e00b      	b.n	878035ba <simple_strtoul+0x3a>
878035a2:	2a10      	cmp	r2, #16
878035a4:	d029      	beq.n	878035fa <simple_strtoul+0x7a>
878035a6:	7803      	ldrb	r3, [r0, #0]
878035a8:	f249 17c4 	movw	r7, #37316	; 0x91c4
878035ac:	f2c8 7780 	movt	r7, #34688	; 0x8780
878035b0:	f817 e003 	ldrb.w	lr, [r7, r3]
878035b4:	461c      	mov	r4, r3
878035b6:	f00e 0544 	and.w	r5, lr, #68	; 0x44
878035ba:	4628      	mov	r0, r5
878035bc:	b1d5      	cbz	r5, 878035f4 <simple_strtoul+0x74>
878035be:	2000      	movs	r0, #0
878035c0:	e009      	b.n	878035d6 <simple_strtoul+0x56>
878035c2:	f816 3f01 	ldrb.w	r3, [r6, #1]!
878035c6:	fb02 4000 	mla	r0, r2, r0, r4
878035ca:	f817 e003 	ldrb.w	lr, [r7, r3]
878035ce:	461c      	mov	r4, r3
878035d0:	f01e 0f44 	tst.w	lr, #68	; 0x44
878035d4:	d00e      	beq.n	878035f4 <simple_strtoul+0x74>
878035d6:	f01e 0f04 	tst.w	lr, #4
878035da:	f1a4 0430 	sub.w	r4, r4, #48	; 0x30
878035de:	d107      	bne.n	878035f0 <simple_strtoul+0x70>
878035e0:	f1a3 0420 	sub.w	r4, r3, #32
878035e4:	f01e 0f02 	tst.w	lr, #2
878035e8:	bf18      	it	ne
878035ea:	b2e3      	uxtbne	r3, r4
878035ec:	f1a3 0437 	sub.w	r4, r3, #55	; 0x37
878035f0:	4294      	cmp	r4, r2
878035f2:	d3e6      	bcc.n	878035c2 <simple_strtoul+0x42>
878035f4:	b101      	cbz	r1, 878035f8 <simple_strtoul+0x78>
878035f6:	600e      	str	r6, [r1, #0]
878035f8:	bdf0      	pop	{r4, r5, r6, r7, pc}
878035fa:	7804      	ldrb	r4, [r0, #0]
878035fc:	2c30      	cmp	r4, #48	; 0x30
878035fe:	d020      	beq.n	87803642 <simple_strtoul+0xc2>
87803600:	f249 17c4 	movw	r7, #37316	; 0x91c4
87803604:	4623      	mov	r3, r4
87803606:	f2c8 7780 	movt	r7, #34688	; 0x8780
8780360a:	f817 e004 	ldrb.w	lr, [r7, r4]
8780360e:	f00e 0544 	and.w	r5, lr, #68	; 0x44
87803612:	e7d2      	b.n	878035ba <simple_strtoul+0x3a>
87803614:	7843      	ldrb	r3, [r0, #1]
87803616:	f249 17c4 	movw	r7, #37316	; 0x91c4
8780361a:	f2c8 7780 	movt	r7, #34688	; 0x8780
8780361e:	3001      	adds	r0, #1
87803620:	f817 e003 	ldrb.w	lr, [r7, r3]
87803624:	461c      	mov	r4, r3
87803626:	f01e 0f02 	tst.w	lr, #2
8780362a:	bf16      	itet	ne
8780362c:	f1a3 0220 	subne.w	r2, r3, #32
87803630:	461a      	moveq	r2, r3
87803632:	b2d2      	uxtbne	r2, r2
87803634:	2a58      	cmp	r2, #88	; 0x58
87803636:	d01d      	beq.n	87803674 <simple_strtoul+0xf4>
87803638:	4606      	mov	r6, r0
8780363a:	f00e 0544 	and.w	r5, lr, #68	; 0x44
8780363e:	2208      	movs	r2, #8
87803640:	e7bb      	b.n	878035ba <simple_strtoul+0x3a>
87803642:	7843      	ldrb	r3, [r0, #1]
87803644:	f249 17c4 	movw	r7, #37316	; 0x91c4
87803648:	f2c8 7780 	movt	r7, #34688	; 0x8780
8780364c:	5cf8      	ldrb	r0, [r7, r3]
8780364e:	0780      	lsls	r0, r0, #30
87803650:	bf44      	itt	mi
87803652:	3b20      	submi	r3, #32
87803654:	b2db      	uxtbmi	r3, r3
87803656:	2b58      	cmp	r3, #88	; 0x58
87803658:	bf0f      	iteee	eq
8780365a:	78b3      	ldrbeq	r3, [r6, #2]
8780365c:	2430      	movne	r4, #48	; 0x30
8780365e:	f897 e030 	ldrbne.w	lr, [r7, #48]	; 0x30
87803662:	4623      	movne	r3, r4
87803664:	bf02      	ittt	eq
87803666:	3602      	addeq	r6, #2
87803668:	f817 e003 	ldrbeq.w	lr, [r7, r3]
8780366c:	461c      	moveq	r4, r3
8780366e:	f00e 0544 	and.w	r5, lr, #68	; 0x44
87803672:	e7a2      	b.n	878035ba <simple_strtoul+0x3a>
87803674:	78b5      	ldrb	r5, [r6, #2]
87803676:	5d7a      	ldrb	r2, [r7, r5]
87803678:	f012 0f44 	tst.w	r2, #68	; 0x44
8780367c:	d0dc      	beq.n	87803638 <simple_strtoul+0xb8>
8780367e:	4696      	mov	lr, r2
87803680:	462c      	mov	r4, r5
87803682:	3602      	adds	r6, #2
87803684:	462b      	mov	r3, r5
87803686:	2210      	movs	r2, #16
87803688:	e799      	b.n	878035be <simple_strtoul+0x3e>
8780368a:	bf00      	nop

8780368c <simple_strtol>:
8780368c:	b510      	push	{r4, lr}
8780368e:	7804      	ldrb	r4, [r0, #0]
87803690:	2c2d      	cmp	r4, #45	; 0x2d
87803692:	d003      	beq.n	8780369c <simple_strtol+0x10>
87803694:	e8bd 4010 	ldmia.w	sp!, {r4, lr}
87803698:	f7ff bf72 	b.w	87803580 <simple_strtoul>
8780369c:	3001      	adds	r0, #1
8780369e:	f7ff ff6f 	bl	87803580 <simple_strtoul>
878036a2:	4240      	negs	r0, r0
878036a4:	bd10      	pop	{r4, pc}
878036a6:	bf00      	nop

878036a8 <simple_strtoull>:
878036a8:	e92d 4ff0 	stmdb	sp!, {r4, r5, r6, r7, r8, r9, sl, fp, lr}
878036ac:	4684      	mov	ip, r0
878036ae:	468a      	mov	sl, r1
878036b0:	4616      	mov	r6, r2
878036b2:	2a00      	cmp	r2, #0
878036b4:	d13f      	bne.n	87803736 <simple_strtoull+0x8e>
878036b6:	7802      	ldrb	r2, [r0, #0]
878036b8:	2a30      	cmp	r2, #48	; 0x30
878036ba:	d056      	beq.n	8780376a <simple_strtoull+0xc2>
878036bc:	f249 1bc4 	movw	fp, #37316	; 0x91c4
878036c0:	4613      	mov	r3, r2
878036c2:	f2c8 7b80 	movt	fp, #34688	; 0x8780
878036c6:	260a      	movs	r6, #10
878036c8:	f81b e002 	ldrb.w	lr, [fp, r2]
878036cc:	f00e 0144 	and.w	r1, lr, #68	; 0x44
878036d0:	2900      	cmp	r1, #0
878036d2:	d061      	beq.n	87803798 <simple_strtoull+0xf0>
878036d4:	2700      	movs	r7, #0
878036d6:	2000      	movs	r0, #0
878036d8:	2100      	movs	r1, #0
878036da:	e00e      	b.n	878036fa <simple_strtoull+0x52>
878036dc:	fb06 3101 	mla	r1, r6, r1, r3
878036e0:	f81c 3f01 	ldrb.w	r3, [ip, #1]!
878036e4:	eb14 0008 	adds.w	r0, r4, r8
878036e8:	f81b e003 	ldrb.w	lr, [fp, r3]
878036ec:	461a      	mov	r2, r3
878036ee:	4489      	add	r9, r1
878036f0:	eb45 0109 	adc.w	r1, r5, r9
878036f4:	f01e 0f44 	tst.w	lr, #68	; 0x44
878036f8:	d016      	beq.n	87803728 <simple_strtoull+0x80>
878036fa:	f01e 0f04 	tst.w	lr, #4
878036fe:	f1a2 0430 	sub.w	r4, r2, #48	; 0x30
87803702:	d108      	bne.n	87803716 <simple_strtoull+0x6e>
87803704:	3b20      	subs	r3, #32
87803706:	f01e 0f02 	tst.w	lr, #2
8780370a:	b2db      	uxtb	r3, r3
8780370c:	f1a2 0437 	sub.w	r4, r2, #55	; 0x37
87803710:	bf18      	it	ne
87803712:	f1a3 0437 	subne.w	r4, r3, #55	; 0x37
87803716:	17e5      	asrs	r5, r4, #31
87803718:	fb00 f307 	mul.w	r3, r0, r7
8780371c:	42bd      	cmp	r5, r7
8780371e:	fba0 8906 	umull	r8, r9, r0, r6
87803722:	bf08      	it	eq
87803724:	42b4      	cmpeq	r4, r6
87803726:	d3d9      	bcc.n	878036dc <simple_strtoull+0x34>
87803728:	f1ba 0f00 	cmp.w	sl, #0
8780372c:	d001      	beq.n	87803732 <simple_strtoull+0x8a>
8780372e:	f8ca c000 	str.w	ip, [sl]
87803732:	e8bd 8ff0 	ldmia.w	sp!, {r4, r5, r6, r7, r8, r9, sl, fp, pc}
87803736:	2a10      	cmp	r2, #16
87803738:	d00a      	beq.n	87803750 <simple_strtoull+0xa8>
8780373a:	7803      	ldrb	r3, [r0, #0]
8780373c:	f249 1bc4 	movw	fp, #37316	; 0x91c4
87803740:	f2c8 7b80 	movt	fp, #34688	; 0x8780
87803744:	f81b e003 	ldrb.w	lr, [fp, r3]
87803748:	461a      	mov	r2, r3
8780374a:	f00e 0144 	and.w	r1, lr, #68	; 0x44
8780374e:	e7bf      	b.n	878036d0 <simple_strtoull+0x28>
87803750:	7802      	ldrb	r2, [r0, #0]
87803752:	2a30      	cmp	r2, #48	; 0x30
87803754:	d031      	beq.n	878037ba <simple_strtoull+0x112>
87803756:	f249 1bc4 	movw	fp, #37316	; 0x91c4
8780375a:	4613      	mov	r3, r2
8780375c:	f2c8 7b80 	movt	fp, #34688	; 0x8780
87803760:	f81b e002 	ldrb.w	lr, [fp, r2]
87803764:	f00e 0144 	and.w	r1, lr, #68	; 0x44
87803768:	e7b2      	b.n	878036d0 <simple_strtoull+0x28>
8780376a:	7843      	ldrb	r3, [r0, #1]
8780376c:	f249 1bc4 	movw	fp, #37316	; 0x91c4
87803770:	f2c8 7b80 	movt	fp, #34688	; 0x8780
87803774:	3001      	adds	r0, #1
87803776:	f81b e003 	ldrb.w	lr, [fp, r3]
8780377a:	461a      	mov	r2, r3
8780377c:	f01e 0f02 	tst.w	lr, #2
87803780:	bf16      	itet	ne
87803782:	f1a3 0120 	subne.w	r1, r3, #32
87803786:	4619      	moveq	r1, r3
87803788:	b2c9      	uxtbne	r1, r1
8780378a:	2958      	cmp	r1, #88	; 0x58
8780378c:	d007      	beq.n	8780379e <simple_strtoull+0xf6>
8780378e:	4684      	mov	ip, r0
87803790:	f00e 0144 	and.w	r1, lr, #68	; 0x44
87803794:	2608      	movs	r6, #8
87803796:	e79b      	b.n	878036d0 <simple_strtoull+0x28>
87803798:	2000      	movs	r0, #0
8780379a:	2100      	movs	r1, #0
8780379c:	e7c4      	b.n	87803728 <simple_strtoull+0x80>
8780379e:	f89c 4002 	ldrb.w	r4, [ip, #2]
878037a2:	f81b 1004 	ldrb.w	r1, [fp, r4]
878037a6:	f011 0f44 	tst.w	r1, #68	; 0x44
878037aa:	d0f0      	beq.n	8780378e <simple_strtoull+0xe6>
878037ac:	4622      	mov	r2, r4
878037ae:	f10c 0c02 	add.w	ip, ip, #2
878037b2:	468e      	mov	lr, r1
878037b4:	4623      	mov	r3, r4
878037b6:	2610      	movs	r6, #16
878037b8:	e78c      	b.n	878036d4 <simple_strtoull+0x2c>
878037ba:	7843      	ldrb	r3, [r0, #1]
878037bc:	f249 1bc4 	movw	fp, #37316	; 0x91c4
878037c0:	f2c8 7b80 	movt	fp, #34688	; 0x8780
878037c4:	f81b 2003 	ldrb.w	r2, [fp, r3]
878037c8:	0792      	lsls	r2, r2, #30
878037ca:	bf44      	itt	mi
878037cc:	3b20      	submi	r3, #32
878037ce:	b2db      	uxtbmi	r3, r3
878037d0:	2b58      	cmp	r3, #88	; 0x58
878037d2:	bf0f      	iteee	eq
878037d4:	7883      	ldrbeq	r3, [r0, #2]
878037d6:	2230      	movne	r2, #48	; 0x30
878037d8:	f89b e030 	ldrbne.w	lr, [fp, #48]	; 0x30
878037dc:	4613      	movne	r3, r2
878037de:	bf02      	ittt	eq
878037e0:	f100 0c02 	addeq.w	ip, r0, #2
878037e4:	f81b e003 	ldrbeq.w	lr, [fp, r3]
878037e8:	461a      	moveq	r2, r3
878037ea:	f00e 0144 	and.w	r1, lr, #68	; 0x44
878037ee:	e76f      	b.n	878036d0 <simple_strtoull+0x28>

878037f0 <simple_strtoll>:
878037f0:	b510      	push	{r4, lr}
878037f2:	7804      	ldrb	r4, [r0, #0]
878037f4:	2c2d      	cmp	r4, #45	; 0x2d
878037f6:	d003      	beq.n	87803800 <simple_strtoll+0x10>
878037f8:	e8bd 4010 	ldmia.w	sp!, {r4, lr}
878037fc:	f7ff bf54 	b.w	878036a8 <simple_strtoull>
87803800:	3001      	adds	r0, #1
87803802:	f7ff ff51 	bl	878036a8 <simple_strtoull>
87803806:	4240      	negs	r0, r0
87803808:	eb61 0141 	sbc.w	r1, r1, r1, lsl #1
8780380c:	bd10      	pop	{r4, pc}
8780380e:	bf00      	nop

87803810 <vsnprintf>:
87803810:	e92d 4ff0 	stmdb	sp!, {r4, r5, r6, r7, r8, r9, sl, fp, lr}
87803814:	f1b1 0a00 	subs.w	sl, r1, #0
87803818:	b089      	sub	sp, #36	; 0x24
8780381a:	f2c0 82fc 	blt.w	87803e16 <vsnprintf+0x606>
8780381e:	f10a 37ff 	add.w	r7, sl, #4294967295	; 0xffffffff
87803822:	4699      	mov	r9, r3
87803824:	4407      	add	r7, r0
87803826:	1e43      	subs	r3, r0, #1
87803828:	429f      	cmp	r7, r3
8780382a:	4604      	mov	r4, r0
8780382c:	4616      	mov	r6, r2
8780382e:	7810      	ldrb	r0, [r2, #0]
87803830:	f0c0 81c4 	bcc.w	87803bbc <vsnprintf+0x3ac>
87803834:	2800      	cmp	r0, #0
87803836:	f000 82f9 	beq.w	87803e2c <vsnprintf+0x61c>
8780383a:	9405      	str	r4, [sp, #20]
8780383c:	f249 18c4 	movw	r8, #37316	; 0x91c4
87803840:	f249 1bb0 	movw	fp, #37296	; 0x91b0
87803844:	f2c8 7880 	movt	r8, #34688	; 0x8780
87803848:	f2c8 7b80 	movt	fp, #34688	; 0x8780
8780384c:	e008      	b.n	87803860 <vsnprintf+0x50>
8780384e:	42a7      	cmp	r7, r4
87803850:	bf28      	it	cs
87803852:	7020      	strbcs	r0, [r4, #0]
87803854:	7870      	ldrb	r0, [r6, #1]
87803856:	3401      	adds	r4, #1
87803858:	3601      	adds	r6, #1
8780385a:	2800      	cmp	r0, #0
8780385c:	f000 813f 	beq.w	87803ade <vsnprintf+0x2ce>
87803860:	2825      	cmp	r0, #37	; 0x25
87803862:	bf08      	it	eq
87803864:	2300      	moveq	r3, #0
87803866:	d1f2      	bne.n	8780384e <vsnprintf+0x3e>
87803868:	7875      	ldrb	r5, [r6, #1]
8780386a:	1c70      	adds	r0, r6, #1
8780386c:	f1a5 0220 	sub.w	r2, r5, #32
87803870:	2a10      	cmp	r2, #16
87803872:	d81e      	bhi.n	878038b2 <vsnprintf+0xa2>
87803874:	e8df f002 	tbb	[pc, r2]
87803878:	151d1d19 	ldrne	r1, [sp, #-3353]	; 0xd19
8780387c:	1d1d1d1d 	ldcne	13, cr1, [sp, #-116]	; 0xffffff8c
87803880:	111d1d1d 	tstne	sp, sp, lsl sp
87803884:	1d1d0d1d 	ldcne	13, cr0, [sp, #-116]	; 0xffffff8c
87803888:	f0430009 			; <UNDEFINED> instruction: 0xf0430009
8780388c:	0301      	lsls	r1, r0, #12
8780388e:	4606      	mov	r6, r0
87803890:	e7ea      	b.n	87803868 <vsnprintf+0x58>
87803892:	f043 0310 	orr.w	r3, r3, #16
87803896:	4606      	mov	r6, r0
87803898:	e7e6      	b.n	87803868 <vsnprintf+0x58>
8780389a:	f043 0304 	orr.w	r3, r3, #4
8780389e:	4606      	mov	r6, r0
878038a0:	e7e2      	b.n	87803868 <vsnprintf+0x58>
878038a2:	f043 0320 	orr.w	r3, r3, #32
878038a6:	4606      	mov	r6, r0
878038a8:	e7de      	b.n	87803868 <vsnprintf+0x58>
878038aa:	f043 0308 	orr.w	r3, r3, #8
878038ae:	4606      	mov	r6, r0
878038b0:	e7da      	b.n	87803868 <vsnprintf+0x58>
878038b2:	f818 2005 	ldrb.w	r2, [r8, r5]
878038b6:	4629      	mov	r1, r5
878038b8:	0752      	lsls	r2, r2, #29
878038ba:	f140 80dc 	bpl.w	87803a76 <vsnprintf+0x266>
878038be:	2500      	movs	r5, #0
878038c0:	00ea      	lsls	r2, r5, #3
878038c2:	eb02 0545 	add.w	r5, r2, r5, lsl #1
878038c6:	440d      	add	r5, r1
878038c8:	f810 1f01 	ldrb.w	r1, [r0, #1]!
878038cc:	3d30      	subs	r5, #48	; 0x30
878038ce:	f818 2001 	ldrb.w	r2, [r8, r1]
878038d2:	0752      	lsls	r2, r2, #29
878038d4:	d4f4      	bmi.n	878038c0 <vsnprintf+0xb0>
878038d6:	292e      	cmp	r1, #46	; 0x2e
878038d8:	bf18      	it	ne
878038da:	f04f 3eff 	movne.w	lr, #4294967295	; 0xffffffff
878038de:	f000 80e2 	beq.w	87803aa6 <vsnprintf+0x296>
878038e2:	f001 02df 	and.w	r2, r1, #223	; 0xdf
878038e6:	2a5a      	cmp	r2, #90	; 0x5a
878038e8:	bf18      	it	ne
878038ea:	2a4c      	cmpne	r2, #76	; 0x4c
878038ec:	bf0c      	ite	eq
878038ee:	2201      	moveq	r2, #1
878038f0:	2200      	movne	r2, #0
878038f2:	2968      	cmp	r1, #104	; 0x68
878038f4:	bf08      	it	eq
878038f6:	f042 0201 	orreq.w	r2, r2, #1
878038fa:	2a00      	cmp	r2, #0
878038fc:	d15b      	bne.n	878039b6 <vsnprintf+0x1a6>
878038fe:	f04f 32ff 	mov.w	r2, #4294967295	; 0xffffffff
87803902:	3925      	subs	r1, #37	; 0x25
87803904:	2953      	cmp	r1, #83	; 0x53
87803906:	f200 823c 	bhi.w	87803d82 <vsnprintf+0x572>
8780390a:	e8df f011 	tbh	[pc, r1, lsl #1]
8780390e:	023a01ec 	eorseq	r0, sl, #236, 2	; 0x3b
87803912:	023a023a 	eorseq	r0, sl, #-1610612733	; 0xa0000003
87803916:	023a023a 	eorseq	r0, sl, #-1610612733	; 0xa0000003
8780391a:	023a023a 	eorseq	r0, sl, #-1610612733	; 0xa0000003
8780391e:	023a023a 	eorseq	r0, sl, #-1610612733	; 0xa0000003
87803922:	023a023a 	eorseq	r0, sl, #-1610612733	; 0xa0000003
87803926:	023a023a 	eorseq	r0, sl, #-1610612733	; 0xa0000003
8780392a:	023a023a 	eorseq	r0, sl, #-1610612733	; 0xa0000003
8780392e:	023a023a 	eorseq	r0, sl, #-1610612733	; 0xa0000003
87803932:	023a023a 	eorseq	r0, sl, #-1610612733	; 0xa0000003
87803936:	023a023a 	eorseq	r0, sl, #-1610612733	; 0xa0000003
8780393a:	023a023a 	eorseq	r0, sl, #-1610612733	; 0xa0000003
8780393e:	023a023a 	eorseq	r0, sl, #-1610612733	; 0xa0000003
87803942:	023a023a 	eorseq	r0, sl, #-1610612733	; 0xa0000003
87803946:	023a023a 	eorseq	r0, sl, #-1610612733	; 0xa0000003
8780394a:	023a023a 	eorseq	r0, sl, #-1610612733	; 0xa0000003
8780394e:	023a023a 	eorseq	r0, sl, #-1610612733	; 0xa0000003
87803952:	023a023a 	eorseq	r0, sl, #-1610612733	; 0xa0000003
87803956:	023a023a 	eorseq	r0, sl, #-1610612733	; 0xa0000003
8780395a:	023a023a 	eorseq	r0, sl, #-1610612733	; 0xa0000003
8780395e:	023a023a 	eorseq	r0, sl, #-1610612733	; 0xa0000003
87803962:	023a023a 	eorseq	r0, sl, #-1610612733	; 0xa0000003
87803966:	023a023a 	eorseq	r0, sl, #-1610612733	; 0xa0000003
8780396a:	023a023a 	eorseq	r0, sl, #-1610612733	; 0xa0000003
8780396e:	023a023a 	eorseq	r0, sl, #-1610612733	; 0xa0000003
87803972:	016f023a 	cmneq	pc, sl, lsr r2	; <UNPREDICTABLE>
87803976:	023a023a 	eorseq	r0, sl, #-1610612733	; 0xa0000003
8780397a:	023a023a 	eorseq	r0, sl, #-1610612733	; 0xa0000003
8780397e:	023a023a 	eorseq	r0, sl, #-1610612733	; 0xa0000003
87803982:	023a023a 	eorseq	r0, sl, #-1610612733	; 0xa0000003
87803986:	023a023a 	eorseq	r0, sl, #-1610612733	; 0xa0000003
8780398a:	01b801be 			; <UNDEFINED> instruction: 0x01b801be
8780398e:	023a023a 	eorseq	r0, sl, #-1610612733	; 0xa0000003
87803992:	023a023a 	eorseq	r0, sl, #-1610612733	; 0xa0000003
87803996:	023a01b8 	eorseq	r0, sl, #184, 2	; 0x2e
8780399a:	023a023a 	eorseq	r0, sl, #-1610612733	; 0xa0000003
8780399e:	0262023a 	rsbeq	r0, r2, #-1610612733	; 0xa0000003
878039a2:	019b01b4 			; <UNDEFINED> instruction: 0x019b01b4
878039a6:	023a023a 	eorseq	r0, sl, #-1610612733	; 0xa0000003
878039aa:	023a01f2 	eorseq	r0, sl, #-2147483588	; 0x8000003c
878039ae:	023a0274 	eorseq	r0, sl, #116, 4	; 0x40000007
878039b2:	0272023a 	rsbseq	r0, r2, #-1610612733	; 0xa0000003
878039b6:	460a      	mov	r2, r1
878039b8:	1c46      	adds	r6, r0, #1
878039ba:	2a6c      	cmp	r2, #108	; 0x6c
878039bc:	7841      	ldrb	r1, [r0, #1]
878039be:	f000 809b 	beq.w	87803af8 <vsnprintf+0x2e8>
878039c2:	3925      	subs	r1, #37	; 0x25
878039c4:	2953      	cmp	r1, #83	; 0x53
878039c6:	f200 81dd 	bhi.w	87803d84 <vsnprintf+0x574>
878039ca:	e8df f011 	tbh	[pc, r1, lsl #1]
878039ce:	01db018d 	bicseq	r0, fp, sp, lsl #3
878039d2:	01db01db 	ldrsbeq	r0, [fp, #27]
878039d6:	01db01db 	ldrsbeq	r0, [fp, #27]
878039da:	01db01db 	ldrsbeq	r0, [fp, #27]
878039de:	01db01db 	ldrsbeq	r0, [fp, #27]
878039e2:	01db01db 	ldrsbeq	r0, [fp, #27]
878039e6:	01db01db 	ldrsbeq	r0, [fp, #27]
878039ea:	01db01db 	ldrsbeq	r0, [fp, #27]
878039ee:	01db01db 	ldrsbeq	r0, [fp, #27]
878039f2:	01db01db 	ldrsbeq	r0, [fp, #27]
878039f6:	01db01db 	ldrsbeq	r0, [fp, #27]
878039fa:	01db01db 	ldrsbeq	r0, [fp, #27]
878039fe:	01db01db 	ldrsbeq	r0, [fp, #27]
87803a02:	01db01db 	ldrsbeq	r0, [fp, #27]
87803a06:	01db01db 	ldrsbeq	r0, [fp, #27]
87803a0a:	01db01db 	ldrsbeq	r0, [fp, #27]
87803a0e:	01db01db 	ldrsbeq	r0, [fp, #27]
87803a12:	01db01db 	ldrsbeq	r0, [fp, #27]
87803a16:	01db01db 	ldrsbeq	r0, [fp, #27]
87803a1a:	01db01db 	ldrsbeq	r0, [fp, #27]
87803a1e:	01db01db 	ldrsbeq	r0, [fp, #27]
87803a22:	01db01db 	ldrsbeq	r0, [fp, #27]
87803a26:	01db01db 	ldrsbeq	r0, [fp, #27]
87803a2a:	01db01db 	ldrsbeq	r0, [fp, #27]
87803a2e:	01db01db 	ldrsbeq	r0, [fp, #27]
87803a32:	011001db 			; <UNDEFINED> instruction: 0x011001db
87803a36:	01db01db 	ldrsbeq	r0, [fp, #27]
87803a3a:	01db01db 	ldrsbeq	r0, [fp, #27]
87803a3e:	01db01db 	ldrsbeq	r0, [fp, #27]
87803a42:	01db01db 	ldrsbeq	r0, [fp, #27]
87803a46:	01db01db 	ldrsbeq	r0, [fp, #27]
87803a4a:	0159015f 	cmpeq	r9, pc, asr r1
87803a4e:	01db01db 	ldrsbeq	r0, [fp, #27]
87803a52:	01db01db 	ldrsbeq	r0, [fp, #27]
87803a56:	01db0159 	bicseq	r0, fp, r9, asr r1
87803a5a:	01db01db 	ldrsbeq	r0, [fp, #27]
87803a5e:	020301db 	andeq	r0, r3, #-1073741770	; 0xc0000036
87803a62:	013c0155 	teqeq	ip, r5, asr r1
87803a66:	01db01db 	ldrsbeq	r0, [fp, #27]
87803a6a:	01db0193 			; <UNDEFINED> instruction: 0x01db0193
87803a6e:	01db0132 	bicseq	r0, fp, r2, lsr r1
87803a72:	011201db 			; <UNDEFINED> instruction: 0x011201db
87803a76:	2d2a      	cmp	r5, #42	; 0x2a
87803a78:	bf1c      	itt	ne
87803a7a:	4629      	movne	r1, r5
87803a7c:	f04f 35ff 	movne.w	r5, #4294967295	; 0xffffffff
87803a80:	f47f af29 	bne.w	878038d6 <vsnprintf+0xc6>
87803a84:	f8d9 5000 	ldr.w	r5, [r9]
87803a88:	1cb0      	adds	r0, r6, #2
87803a8a:	78b1      	ldrb	r1, [r6, #2]
87803a8c:	f109 0904 	add.w	r9, r9, #4
87803a90:	2d00      	cmp	r5, #0
87803a92:	bfbc      	itt	lt
87803a94:	426d      	neglt	r5, r5
87803a96:	f043 0310 	orrlt.w	r3, r3, #16
87803a9a:	292e      	cmp	r1, #46	; 0x2e
87803a9c:	bf18      	it	ne
87803a9e:	f04f 3eff 	movne.w	lr, #4294967295	; 0xffffffff
87803aa2:	f47f af1e 	bne.w	878038e2 <vsnprintf+0xd2>
87803aa6:	7841      	ldrb	r1, [r0, #1]
87803aa8:	f100 0c01 	add.w	ip, r0, #1
87803aac:	f818 6001 	ldrb.w	r6, [r8, r1]
87803ab0:	f006 0604 	and.w	r6, r6, #4
87803ab4:	f006 02ff 	and.w	r2, r6, #255	; 0xff
87803ab8:	2e00      	cmp	r6, #0
87803aba:	f000 8088 	beq.w	87803bce <vsnprintf+0x3be>
87803abe:	4660      	mov	r0, ip
87803ac0:	2200      	movs	r2, #0
87803ac2:	00d6      	lsls	r6, r2, #3
87803ac4:	eb06 0242 	add.w	r2, r6, r2, lsl #1
87803ac8:	440a      	add	r2, r1
87803aca:	f810 1f01 	ldrb.w	r1, [r0, #1]!
87803ace:	3a30      	subs	r2, #48	; 0x30
87803ad0:	f818 6001 	ldrb.w	r6, [r8, r1]
87803ad4:	0776      	lsls	r6, r6, #29
87803ad6:	d4f4      	bmi.n	87803ac2 <vsnprintf+0x2b2>
87803ad8:	ea22 7ee2 	bic.w	lr, r2, r2, asr #31
87803adc:	e701      	b.n	878038e2 <vsnprintf+0xd2>
87803ade:	4623      	mov	r3, r4
87803ae0:	9a05      	ldr	r2, [sp, #20]
87803ae2:	1aa0      	subs	r0, r4, r2
87803ae4:	42bb      	cmp	r3, r7
87803ae6:	d964      	bls.n	87803bb2 <vsnprintf+0x3a2>
87803ae8:	f1ba 0f00 	cmp.w	sl, #0
87803aec:	d001      	beq.n	87803af2 <vsnprintf+0x2e2>
87803aee:	2300      	movs	r3, #0
87803af0:	703b      	strb	r3, [r7, #0]
87803af2:	b009      	add	sp, #36	; 0x24
87803af4:	e8bd 8ff0 	ldmia.w	sp!, {r4, r5, r6, r7, r8, r9, sl, fp, pc}
87803af8:	296c      	cmp	r1, #108	; 0x6c
87803afa:	f000 8174 	beq.w	87803de6 <vsnprintf+0x5d6>
87803afe:	3925      	subs	r1, #37	; 0x25
87803b00:	2953      	cmp	r1, #83	; 0x53
87803b02:	f200 813f 	bhi.w	87803d84 <vsnprintf+0x574>
87803b06:	e8df f011 	tbh	[pc, r1, lsl #1]
87803b0a:	013d00ef 	teqeq	sp, pc, ror #1
87803b0e:	013d013d 	teqeq	sp, sp, lsr r1
87803b12:	013d013d 	teqeq	sp, sp, lsr r1
87803b16:	013d013d 	teqeq	sp, sp, lsr r1
87803b1a:	013d013d 	teqeq	sp, sp, lsr r1
87803b1e:	013d013d 	teqeq	sp, sp, lsr r1
87803b22:	013d013d 	teqeq	sp, sp, lsr r1
87803b26:	013d013d 	teqeq	sp, sp, lsr r1
87803b2a:	013d013d 	teqeq	sp, sp, lsr r1
87803b2e:	013d013d 	teqeq	sp, sp, lsr r1
87803b32:	013d013d 	teqeq	sp, sp, lsr r1
87803b36:	013d013d 	teqeq	sp, sp, lsr r1
87803b3a:	013d013d 	teqeq	sp, sp, lsr r1
87803b3e:	013d013d 	teqeq	sp, sp, lsr r1
87803b42:	013d013d 	teqeq	sp, sp, lsr r1
87803b46:	013d013d 	teqeq	sp, sp, lsr r1
87803b4a:	013d013d 	teqeq	sp, sp, lsr r1
87803b4e:	013d013d 	teqeq	sp, sp, lsr r1
87803b52:	013d013d 	teqeq	sp, sp, lsr r1
87803b56:	013d013d 	teqeq	sp, sp, lsr r1
87803b5a:	013d013d 	teqeq	sp, sp, lsr r1
87803b5e:	013d013d 	teqeq	sp, sp, lsr r1
87803b62:	013d013d 	teqeq	sp, sp, lsr r1
87803b66:	013d013d 	teqeq	sp, sp, lsr r1
87803b6a:	013d013d 	teqeq	sp, sp, lsr r1
87803b6e:	0072013d 	rsbseq	r0, r2, sp, lsr r1
87803b72:	013d013d 	teqeq	sp, sp, lsr r1
87803b76:	013d013d 	teqeq	sp, sp, lsr r1
87803b7a:	013d013d 	teqeq	sp, sp, lsr r1
87803b7e:	013d013d 	teqeq	sp, sp, lsr r1
87803b82:	013d013d 	teqeq	sp, sp, lsr r1
87803b86:	00bb00c1 	adcseq	r0, fp, r1, asr #1
87803b8a:	013d013d 	teqeq	sp, sp, lsr r1
87803b8e:	013d013d 	teqeq	sp, sp, lsr r1
87803b92:	013d00bb 	ldrheq	r0, [sp, -fp]!
87803b96:	013d013d 	teqeq	sp, sp, lsr r1
87803b9a:	017d013d 	cmneq	sp, sp, lsr r1
87803b9e:	009e00b7 	ldrheq	r0, [lr], r7
87803ba2:	013d013d 	teqeq	sp, sp, lsr r1
87803ba6:	013d00f5 	ldrsheq	r0, [sp, -r5]!
87803baa:	013d0158 	teqeq	sp, r8, asr r1
87803bae:	0074013d 	rsbseq	r0, r4, sp, lsr r1
87803bb2:	2200      	movs	r2, #0
87803bb4:	701a      	strb	r2, [r3, #0]
87803bb6:	b009      	add	sp, #36	; 0x24
87803bb8:	e8bd 8ff0 	ldmia.w	sp!, {r4, r5, r6, r7, r8, r9, sl, fp, pc}
87803bbc:	9405      	str	r4, [sp, #20]
87803bbe:	f1c4 0a00 	rsb	sl, r4, #0
87803bc2:	4623      	mov	r3, r4
87803bc4:	2800      	cmp	r0, #0
87803bc6:	d0f4      	beq.n	87803bb2 <vsnprintf+0x3a2>
87803bc8:	f04f 37ff 	mov.w	r7, #4294967295	; 0xffffffff
87803bcc:	e636      	b.n	8780383c <vsnprintf+0x2c>
87803bce:	292a      	cmp	r1, #42	; 0x2a
87803bd0:	bf1c      	itt	ne
87803bd2:	4660      	movne	r0, ip
87803bd4:	4696      	movne	lr, r2
87803bd6:	f47f ae84 	bne.w	878038e2 <vsnprintf+0xd2>
87803bda:	f8d9 2000 	ldr.w	r2, [r9]
87803bde:	3002      	adds	r0, #2
87803be0:	7801      	ldrb	r1, [r0, #0]
87803be2:	f109 0904 	add.w	r9, r9, #4
87803be6:	ea22 7ee2 	bic.w	lr, r2, r2, asr #31
87803bea:	e67a      	b.n	878038e2 <vsnprintf+0xd2>
87803bec:	4606      	mov	r6, r0
87803bee:	f043 0340 	orr.w	r3, r3, #64	; 0x40
87803bf2:	f04f 0c10 	mov.w	ip, #16
87803bf6:	2a4c      	cmp	r2, #76	; 0x4c
87803bf8:	d01f      	beq.n	87803c3a <vsnprintf+0x42a>
87803bfa:	2a6c      	cmp	r2, #108	; 0x6c
87803bfc:	f000 80df 	beq.w	87803dbe <vsnprintf+0x5ae>
87803c00:	f022 0120 	bic.w	r1, r2, #32
87803c04:	295a      	cmp	r1, #90	; 0x5a
87803c06:	f040 80cc 	bne.w	87803da2 <vsnprintf+0x592>
87803c0a:	f8d9 0000 	ldr.w	r0, [r9]
87803c0e:	f109 0904 	add.w	r9, r9, #4
87803c12:	2100      	movs	r1, #0
87803c14:	9303      	str	r3, [sp, #12]
87803c16:	4602      	mov	r2, r0
87803c18:	460b      	mov	r3, r1
87803c1a:	4620      	mov	r0, r4
87803c1c:	f8cd e008 	str.w	lr, [sp, #8]
87803c20:	4639      	mov	r1, r7
87803c22:	9501      	str	r5, [sp, #4]
87803c24:	f8cd c000 	str.w	ip, [sp]
87803c28:	f7ff fa86 	bl	87803138 <number>
87803c2c:	4604      	mov	r4, r0
87803c2e:	7870      	ldrb	r0, [r6, #1]
87803c30:	e612      	b.n	87803858 <vsnprintf+0x48>
87803c32:	2a4c      	cmp	r2, #76	; 0x4c
87803c34:	f04f 0c0a 	mov.w	ip, #10
87803c38:	d1df      	bne.n	87803bfa <vsnprintf+0x3ea>
87803c3a:	e9d9 0100 	ldrd	r0, r1, [r9]
87803c3e:	f109 0908 	add.w	r9, r9, #8
87803c42:	e7e7      	b.n	87803c14 <vsnprintf+0x404>
87803c44:	4606      	mov	r6, r0
87803c46:	1c69      	adds	r1, r5, #1
87803c48:	f04f 0110 	mov.w	r1, #16
87803c4c:	bf04      	itt	eq
87803c4e:	f043 0301 	orreq.w	r3, r3, #1
87803c52:	2508      	moveq	r5, #8
87803c54:	f8d9 2000 	ldr.w	r2, [r9]
87803c58:	4620      	mov	r0, r4
87803c5a:	9303      	str	r3, [sp, #12]
87803c5c:	2300      	movs	r3, #0
87803c5e:	e88d 0022 	stmia.w	sp, {r1, r5}
87803c62:	4639      	mov	r1, r7
87803c64:	f8cd e008 	str.w	lr, [sp, #8]
87803c68:	f109 0904 	add.w	r9, r9, #4
87803c6c:	f7ff fa64 	bl	87803138 <number>
87803c70:	4604      	mov	r4, r0
87803c72:	7870      	ldrb	r0, [r6, #1]
87803c74:	e5f0      	b.n	87803858 <vsnprintf+0x48>
87803c76:	4606      	mov	r6, r0
87803c78:	f04f 0c08 	mov.w	ip, #8
87803c7c:	e7bb      	b.n	87803bf6 <vsnprintf+0x3e6>
87803c7e:	4606      	mov	r6, r0
87803c80:	f043 0302 	orr.w	r3, r3, #2
87803c84:	f04f 0c0a 	mov.w	ip, #10
87803c88:	e7b5      	b.n	87803bf6 <vsnprintf+0x3e6>
87803c8a:	4606      	mov	r6, r0
87803c8c:	06d8      	lsls	r0, r3, #27
87803c8e:	d40d      	bmi.n	87803cac <vsnprintf+0x49c>
87803c90:	3d01      	subs	r5, #1
87803c92:	2d00      	cmp	r5, #0
87803c94:	dd0a      	ble.n	87803cac <vsnprintf+0x49c>
87803c96:	1963      	adds	r3, r4, r5
87803c98:	2220      	movs	r2, #32
87803c9a:	42a7      	cmp	r7, r4
87803c9c:	f104 0401 	add.w	r4, r4, #1
87803ca0:	bf28      	it	cs
87803ca2:	f804 2c01 	strbcs.w	r2, [r4, #-1]
87803ca6:	429c      	cmp	r4, r3
87803ca8:	d1f7      	bne.n	87803c9a <vsnprintf+0x48a>
87803caa:	2500      	movs	r5, #0
87803cac:	f8d9 3000 	ldr.w	r3, [r9]
87803cb0:	42bc      	cmp	r4, r7
87803cb2:	f104 0101 	add.w	r1, r4, #1
87803cb6:	f109 0004 	add.w	r0, r9, #4
87803cba:	bf98      	it	ls
87803cbc:	7023      	strbls	r3, [r4, #0]
87803cbe:	2d01      	cmp	r5, #1
87803cc0:	bfc2      	ittt	gt
87803cc2:	1964      	addgt	r4, r4, r5
87803cc4:	460b      	movgt	r3, r1
87803cc6:	2220      	movgt	r2, #32
87803cc8:	f340 80b4 	ble.w	87803e34 <vsnprintf+0x624>
87803ccc:	429f      	cmp	r7, r3
87803cce:	f103 0301 	add.w	r3, r3, #1
87803cd2:	bf28      	it	cs
87803cd4:	f803 2c01 	strbcs.w	r2, [r3, #-1]
87803cd8:	42a3      	cmp	r3, r4
87803cda:	d1f7      	bne.n	87803ccc <vsnprintf+0x4bc>
87803cdc:	1e6c      	subs	r4, r5, #1
87803cde:	4681      	mov	r9, r0
87803ce0:	440c      	add	r4, r1
87803ce2:	7870      	ldrb	r0, [r6, #1]
87803ce4:	e5b8      	b.n	87803858 <vsnprintf+0x48>
87803ce6:	4606      	mov	r6, r0
87803ce8:	42a7      	cmp	r7, r4
87803cea:	bf24      	itt	cs
87803cec:	2325      	movcs	r3, #37	; 0x25
87803cee:	7023      	strbcs	r3, [r4, #0]
87803cf0:	e5b0      	b.n	87803854 <vsnprintf+0x44>
87803cf2:	4606      	mov	r6, r0
87803cf4:	f8d9 2000 	ldr.w	r2, [r9]
87803cf8:	4671      	mov	r1, lr
87803cfa:	9307      	str	r3, [sp, #28]
87803cfc:	f109 0904 	add.w	r9, r9, #4
87803d00:	f5b2 6f80 	cmp.w	r2, #1024	; 0x400
87803d04:	bf38      	it	cc
87803d06:	465a      	movcc	r2, fp
87803d08:	4610      	mov	r0, r2
87803d0a:	9206      	str	r2, [sp, #24]
87803d0c:	f7ff f8ae 	bl	87802e6c <strnlen>
87803d10:	9b07      	ldr	r3, [sp, #28]
87803d12:	9a06      	ldr	r2, [sp, #24]
87803d14:	f013 0f10 	tst.w	r3, #16
87803d18:	d112      	bne.n	87803d40 <vsnprintf+0x530>
87803d1a:	4285      	cmp	r5, r0
87803d1c:	f105 3eff 	add.w	lr, r5, #4294967295	; 0xffffffff
87803d20:	f340 808c 	ble.w	87803e3c <vsnprintf+0x62c>
87803d24:	1a2b      	subs	r3, r5, r0
87803d26:	2120      	movs	r1, #32
87803d28:	4423      	add	r3, r4
87803d2a:	42a7      	cmp	r7, r4
87803d2c:	f104 0401 	add.w	r4, r4, #1
87803d30:	bf28      	it	cs
87803d32:	f804 1c01 	strbcs.w	r1, [r4, #-1]
87803d36:	429c      	cmp	r4, r3
87803d38:	d1f7      	bne.n	87803d2a <vsnprintf+0x51a>
87803d3a:	ebc5 050e 	rsb	r5, r5, lr
87803d3e:	4405      	add	r5, r0
87803d40:	2800      	cmp	r0, #0
87803d42:	dd75      	ble.n	87803e30 <vsnprintf+0x620>
87803d44:	1823      	adds	r3, r4, r0
87803d46:	42a7      	cmp	r7, r4
87803d48:	f104 0401 	add.w	r4, r4, #1
87803d4c:	bf28      	it	cs
87803d4e:	7811      	ldrbcs	r1, [r2, #0]
87803d50:	f102 0201 	add.w	r2, r2, #1
87803d54:	bf28      	it	cs
87803d56:	f804 1c01 	strbcs.w	r1, [r4, #-1]
87803d5a:	429c      	cmp	r4, r3
87803d5c:	d1f3      	bne.n	87803d46 <vsnprintf+0x536>
87803d5e:	4285      	cmp	r5, r0
87803d60:	bfdc      	itt	le
87803d62:	461c      	movle	r4, r3
87803d64:	7870      	ldrble	r0, [r6, #1]
87803d66:	f77f ad77 	ble.w	87803858 <vsnprintf+0x48>
87803d6a:	1a28      	subs	r0, r5, r0
87803d6c:	2220      	movs	r2, #32
87803d6e:	181c      	adds	r4, r3, r0
87803d70:	429f      	cmp	r7, r3
87803d72:	f103 0301 	add.w	r3, r3, #1
87803d76:	bf28      	it	cs
87803d78:	f803 2c01 	strbcs.w	r2, [r3, #-1]
87803d7c:	42a3      	cmp	r3, r4
87803d7e:	d1f7      	bne.n	87803d70 <vsnprintf+0x560>
87803d80:	e755      	b.n	87803c2e <vsnprintf+0x41e>
87803d82:	4606      	mov	r6, r0
87803d84:	42a7      	cmp	r7, r4
87803d86:	bf24      	itt	cs
87803d88:	2325      	movcs	r3, #37	; 0x25
87803d8a:	7023      	strbcs	r3, [r4, #0]
87803d8c:	1c63      	adds	r3, r4, #1
87803d8e:	7832      	ldrb	r2, [r6, #0]
87803d90:	b36a      	cbz	r2, 87803dee <vsnprintf+0x5de>
87803d92:	42bb      	cmp	r3, r7
87803d94:	f104 0402 	add.w	r4, r4, #2
87803d98:	bf98      	it	ls
87803d9a:	f804 2c01 	strbls.w	r2, [r4, #-1]
87803d9e:	7870      	ldrb	r0, [r6, #1]
87803da0:	e55a      	b.n	87803858 <vsnprintf+0x48>
87803da2:	2a68      	cmp	r2, #104	; 0x68
87803da4:	f109 0204 	add.w	r2, r9, #4
87803da8:	f8d9 0000 	ldr.w	r0, [r9]
87803dac:	4691      	mov	r9, r2
87803dae:	d036      	beq.n	87803e1e <vsnprintf+0x60e>
87803db0:	079a      	lsls	r2, r3, #30
87803db2:	f57f af2e 	bpl.w	87803c12 <vsnprintf+0x402>
87803db6:	17c1      	asrs	r1, r0, #31
87803db8:	e72c      	b.n	87803c14 <vsnprintf+0x404>
87803dba:	f04f 0c0a 	mov.w	ip, #10
87803dbe:	f109 0204 	add.w	r2, r9, #4
87803dc2:	f8d9 0000 	ldr.w	r0, [r9]
87803dc6:	4691      	mov	r9, r2
87803dc8:	079a      	lsls	r2, r3, #30
87803dca:	f57f af22 	bpl.w	87803c12 <vsnprintf+0x402>
87803dce:	17c1      	asrs	r1, r0, #31
87803dd0:	e720      	b.n	87803c14 <vsnprintf+0x404>
87803dd2:	4606      	mov	r6, r0
87803dd4:	9a05      	ldr	r2, [sp, #20]
87803dd6:	f109 0904 	add.w	r9, r9, #4
87803dda:	f859 3c04 	ldr.w	r3, [r9, #-4]
87803dde:	1aa2      	subs	r2, r4, r2
87803de0:	601a      	str	r2, [r3, #0]
87803de2:	7870      	ldrb	r0, [r6, #1]
87803de4:	e538      	b.n	87803858 <vsnprintf+0x48>
87803de6:	7881      	ldrb	r1, [r0, #2]
87803de8:	224c      	movs	r2, #76	; 0x4c
87803dea:	3002      	adds	r0, #2
87803dec:	e589      	b.n	87803902 <vsnprintf+0xf2>
87803dee:	461c      	mov	r4, r3
87803df0:	e676      	b.n	87803ae0 <vsnprintf+0x2d0>
87803df2:	4606      	mov	r6, r0
87803df4:	e6fd      	b.n	87803bf2 <vsnprintf+0x3e2>
87803df6:	2a4c      	cmp	r2, #76	; 0x4c
87803df8:	4606      	mov	r6, r0
87803dfa:	f04f 0c0a 	mov.w	ip, #10
87803dfe:	f47f aeff 	bne.w	87803c00 <vsnprintf+0x3f0>
87803e02:	e71a      	b.n	87803c3a <vsnprintf+0x42a>
87803e04:	9a05      	ldr	r2, [sp, #20]
87803e06:	f109 0904 	add.w	r9, r9, #4
87803e0a:	f859 3c04 	ldr.w	r3, [r9, #-4]
87803e0e:	1aa2      	subs	r2, r4, r2
87803e10:	601a      	str	r2, [r3, #0]
87803e12:	7880      	ldrb	r0, [r0, #2]
87803e14:	e520      	b.n	87803858 <vsnprintf+0x48>
87803e16:	2000      	movs	r0, #0
87803e18:	b009      	add	sp, #36	; 0x24
87803e1a:	e8bd 8ff0 	ldmia.w	sp!, {r4, r5, r6, r7, r8, r9, sl, fp, pc}
87803e1e:	0799      	lsls	r1, r3, #30
87803e20:	bf4d      	iteet	mi
87803e22:	b200      	sxthmi	r0, r0
87803e24:	b280      	uxthpl	r0, r0
87803e26:	2100      	movpl	r1, #0
87803e28:	17c1      	asrmi	r1, r0, #31
87803e2a:	e6f3      	b.n	87803c14 <vsnprintf+0x404>
87803e2c:	4623      	mov	r3, r4
87803e2e:	e659      	b.n	87803ae4 <vsnprintf+0x2d4>
87803e30:	4623      	mov	r3, r4
87803e32:	e794      	b.n	87803d5e <vsnprintf+0x54e>
87803e34:	4681      	mov	r9, r0
87803e36:	460c      	mov	r4, r1
87803e38:	7870      	ldrb	r0, [r6, #1]
87803e3a:	e50d      	b.n	87803858 <vsnprintf+0x48>
87803e3c:	4675      	mov	r5, lr
87803e3e:	e77f      	b.n	87803d40 <vsnprintf+0x530>

87803e40 <vscnprintf>:
87803e40:	b510      	push	{r4, lr}
87803e42:	460c      	mov	r4, r1
87803e44:	f7ff fce4 	bl	87803810 <vsnprintf>
87803e48:	4284      	cmp	r4, r0
87803e4a:	bf98      	it	ls
87803e4c:	f104 30ff 	addls.w	r0, r4, #4294967295	; 0xffffffff
87803e50:	bd10      	pop	{r4, pc}
87803e52:	bf00      	nop

87803e54 <snprintf>:
87803e54:	b40c      	push	{r2, r3}
87803e56:	b508      	push	{r3, lr}
87803e58:	ab03      	add	r3, sp, #12
87803e5a:	9a02      	ldr	r2, [sp, #8]
87803e5c:	f7ff fcd8 	bl	87803810 <vsnprintf>
87803e60:	e8bd 4008 	ldmia.w	sp!, {r3, lr}
87803e64:	b002      	add	sp, #8
87803e66:	4770      	bx	lr

87803e68 <scnprintf>:
87803e68:	b40c      	push	{r2, r3}
87803e6a:	b510      	push	{r4, lr}
87803e6c:	460c      	mov	r4, r1
87803e6e:	ab03      	add	r3, sp, #12
87803e70:	9a02      	ldr	r2, [sp, #8]
87803e72:	f7ff fccd 	bl	87803810 <vsnprintf>
87803e76:	4284      	cmp	r4, r0
87803e78:	bf98      	it	ls
87803e7a:	f104 30ff 	addls.w	r0, r4, #4294967295	; 0xffffffff
87803e7e:	e8bd 4010 	ldmia.w	sp!, {r4, lr}
87803e82:	b002      	add	sp, #8
87803e84:	4770      	bx	lr
87803e86:	bf00      	nop

87803e88 <vsprintf>:
87803e88:	4613      	mov	r3, r2
87803e8a:	460a      	mov	r2, r1
87803e8c:	f06f 4100 	mvn.w	r1, #2147483648	; 0x80000000
87803e90:	f7ff bcbe 	b.w	87803810 <vsnprintf>

87803e94 <sprintf>:
87803e94:	b40e      	push	{r1, r2, r3}
87803e96:	f06f 4100 	mvn.w	r1, #2147483648	; 0x80000000
87803e9a:	b500      	push	{lr}
87803e9c:	ab02      	add	r3, sp, #8
87803e9e:	9a01      	ldr	r2, [sp, #4]
87803ea0:	f7ff fcb6 	bl	87803810 <vsnprintf>
87803ea4:	f85d eb04 	ldr.w	lr, [sp], #4
87803ea8:	b003      	add	sp, #12
87803eaa:	4770      	bx	lr

87803eac <vsscanf>:
87803eac:	e92d 4ff0 	stmdb	sp!, {r4, r5, r6, r7, r8, r9, sl, fp, lr}
87803eb0:	f249 14c4 	movw	r4, #37316	; 0x91c4
87803eb4:	780b      	ldrb	r3, [r1, #0]
87803eb6:	f2c8 7480 	movt	r4, #34688	; 0x8780
87803eba:	b083      	sub	sp, #12
87803ebc:	4607      	mov	r7, r0
87803ebe:	460d      	mov	r5, r1
87803ec0:	4696      	mov	lr, r2
87803ec2:	46a0      	mov	r8, r4
87803ec4:	2600      	movs	r6, #0
87803ec6:	b143      	cbz	r3, 87803eda <vsscanf+0x2e>
87803ec8:	7801      	ldrb	r1, [r0, #0]
87803eca:	b131      	cbz	r1, 87803eda <vsscanf+0x2e>
87803ecc:	5ce2      	ldrb	r2, [r4, r3]
87803ece:	0692      	lsls	r2, r2, #26
87803ed0:	d407      	bmi.n	87803ee2 <vsscanf+0x36>
87803ed2:	2b25      	cmp	r3, #37	; 0x25
87803ed4:	d020      	beq.n	87803f18 <vsscanf+0x6c>
87803ed6:	428b      	cmp	r3, r1
87803ed8:	d018      	beq.n	87803f0c <vsscanf+0x60>
87803eda:	4630      	mov	r0, r6
87803edc:	b003      	add	sp, #12
87803ede:	e8bd 8ff0 	ldmia.w	sp!, {r4, r5, r6, r7, r8, r9, sl, fp, pc}
87803ee2:	f815 3f01 	ldrb.w	r3, [r5, #1]!
87803ee6:	5ce2      	ldrb	r2, [r4, r3]
87803ee8:	0692      	lsls	r2, r2, #26
87803eea:	d4fa      	bmi.n	87803ee2 <vsscanf+0x36>
87803eec:	f818 2001 	ldrb.w	r2, [r8, r1]
87803ef0:	0691      	lsls	r1, r2, #26
87803ef2:	d504      	bpl.n	87803efe <vsscanf+0x52>
87803ef4:	f810 2f01 	ldrb.w	r2, [r0, #1]!
87803ef8:	5ca2      	ldrb	r2, [r4, r2]
87803efa:	0692      	lsls	r2, r2, #26
87803efc:	d4fa      	bmi.n	87803ef4 <vsscanf+0x48>
87803efe:	2b00      	cmp	r3, #0
87803f00:	bf18      	it	ne
87803f02:	2b25      	cmpne	r3, #37	; 0x25
87803f04:	d006      	beq.n	87803f14 <vsscanf+0x68>
87803f06:	7801      	ldrb	r1, [r0, #0]
87803f08:	428b      	cmp	r3, r1
87803f0a:	d1e6      	bne.n	87803eda <vsscanf+0x2e>
87803f0c:	786b      	ldrb	r3, [r5, #1]
87803f0e:	3001      	adds	r0, #1
87803f10:	3501      	adds	r5, #1
87803f12:	e7d8      	b.n	87803ec6 <vsscanf+0x1a>
87803f14:	2b00      	cmp	r3, #0
87803f16:	d0e0      	beq.n	87803eda <vsscanf+0x2e>
87803f18:	786b      	ldrb	r3, [r5, #1]
87803f1a:	3501      	adds	r5, #1
87803f1c:	2b2a      	cmp	r3, #42	; 0x2a
87803f1e:	f000 80f1 	beq.w	87804104 <vsscanf+0x258>
87803f22:	5ce2      	ldrb	r2, [r4, r3]
87803f24:	4619      	mov	r1, r3
87803f26:	0752      	lsls	r2, r2, #29
87803f28:	bf5c      	itt	pl
87803f2a:	4619      	movpl	r1, r3
87803f2c:	f04f 33ff 	movpl.w	r3, #4294967295	; 0xffffffff
87803f30:	d50a      	bpl.n	87803f48 <vsscanf+0x9c>
87803f32:	2300      	movs	r3, #0
87803f34:	00da      	lsls	r2, r3, #3
87803f36:	eb02 0343 	add.w	r3, r2, r3, lsl #1
87803f3a:	440b      	add	r3, r1
87803f3c:	f815 1f01 	ldrb.w	r1, [r5, #1]!
87803f40:	3b30      	subs	r3, #48	; 0x30
87803f42:	5c62      	ldrb	r2, [r4, r1]
87803f44:	0752      	lsls	r2, r2, #29
87803f46:	d4f5      	bmi.n	87803f34 <vsscanf+0x88>
87803f48:	f001 02df 	and.w	r2, r1, #223	; 0xdf
87803f4c:	46a9      	mov	r9, r5
87803f4e:	2a5a      	cmp	r2, #90	; 0x5a
87803f50:	bf18      	it	ne
87803f52:	2a4c      	cmpne	r2, #76	; 0x4c
87803f54:	f04f 3cff 	mov.w	ip, #4294967295	; 0xffffffff
87803f58:	bf0c      	ite	eq
87803f5a:	2201      	moveq	r2, #1
87803f5c:	2200      	movne	r2, #0
87803f5e:	2968      	cmp	r1, #104	; 0x68
87803f60:	bf08      	it	eq
87803f62:	f042 0201 	orreq.w	r2, r2, #1
87803f66:	2a00      	cmp	r2, #0
87803f68:	f040 80b8 	bne.w	878040dc <vsscanf+0x230>
87803f6c:	2900      	cmp	r1, #0
87803f6e:	d0b4      	beq.n	87803eda <vsscanf+0x2e>
87803f70:	f890 a000 	ldrb.w	sl, [r0]
87803f74:	f1ba 0f00 	cmp.w	sl, #0
87803f78:	d0af      	beq.n	87803eda <vsscanf+0x2e>
87803f7a:	3925      	subs	r1, #37	; 0x25
87803f7c:	f109 0501 	add.w	r5, r9, #1
87803f80:	2953      	cmp	r1, #83	; 0x53
87803f82:	d8aa      	bhi.n	87803eda <vsscanf+0x2e>
87803f84:	a201      	add	r2, pc, #4	; (adr r2, 87803f8c <vsscanf+0xe0>)
87803f86:	f852 f021 	ldr.w	pc, [r2, r1, lsl #2]
87803f8a:	bf00      	nop
87803f8c:	87804209 	strhi	r4, [r0, r9, lsl #4]
87803f90:	87803edb 			; <UNDEFINED> instruction: 0x87803edb
87803f94:	87803edb 			; <UNDEFINED> instruction: 0x87803edb
87803f98:	87803edb 			; <UNDEFINED> instruction: 0x87803edb
87803f9c:	87803edb 			; <UNDEFINED> instruction: 0x87803edb
87803fa0:	87803edb 			; <UNDEFINED> instruction: 0x87803edb
87803fa4:	87803edb 			; <UNDEFINED> instruction: 0x87803edb
87803fa8:	87803edb 			; <UNDEFINED> instruction: 0x87803edb
87803fac:	87803edb 			; <UNDEFINED> instruction: 0x87803edb
87803fb0:	87803edb 			; <UNDEFINED> instruction: 0x87803edb
87803fb4:	87803edb 			; <UNDEFINED> instruction: 0x87803edb
87803fb8:	87803edb 			; <UNDEFINED> instruction: 0x87803edb
87803fbc:	87803edb 			; <UNDEFINED> instruction: 0x87803edb
87803fc0:	87803edb 			; <UNDEFINED> instruction: 0x87803edb
87803fc4:	87803edb 			; <UNDEFINED> instruction: 0x87803edb
87803fc8:	87803edb 			; <UNDEFINED> instruction: 0x87803edb
87803fcc:	87803edb 			; <UNDEFINED> instruction: 0x87803edb
87803fd0:	87803edb 			; <UNDEFINED> instruction: 0x87803edb
87803fd4:	87803edb 			; <UNDEFINED> instruction: 0x87803edb
87803fd8:	87803edb 			; <UNDEFINED> instruction: 0x87803edb
87803fdc:	87803edb 			; <UNDEFINED> instruction: 0x87803edb
87803fe0:	87803edb 			; <UNDEFINED> instruction: 0x87803edb
87803fe4:	87803edb 			; <UNDEFINED> instruction: 0x87803edb
87803fe8:	87803edb 			; <UNDEFINED> instruction: 0x87803edb
87803fec:	87803edb 			; <UNDEFINED> instruction: 0x87803edb
87803ff0:	87803edb 			; <UNDEFINED> instruction: 0x87803edb
87803ff4:	87803edb 			; <UNDEFINED> instruction: 0x87803edb
87803ff8:	87803edb 			; <UNDEFINED> instruction: 0x87803edb
87803ffc:	87803edb 			; <UNDEFINED> instruction: 0x87803edb
87804000:	87803edb 			; <UNDEFINED> instruction: 0x87803edb
87804004:	87803edb 			; <UNDEFINED> instruction: 0x87803edb
87804008:	87803edb 			; <UNDEFINED> instruction: 0x87803edb
8780400c:	87803edb 			; <UNDEFINED> instruction: 0x87803edb
87804010:	87803edb 			; <UNDEFINED> instruction: 0x87803edb
87804014:	87803edb 			; <UNDEFINED> instruction: 0x87803edb
87804018:	87803edb 			; <UNDEFINED> instruction: 0x87803edb
8780401c:	87803edb 			; <UNDEFINED> instruction: 0x87803edb
87804020:	87803edb 			; <UNDEFINED> instruction: 0x87803edb
87804024:	87803edb 			; <UNDEFINED> instruction: 0x87803edb
87804028:	87803edb 			; <UNDEFINED> instruction: 0x87803edb
8780402c:	87803edb 			; <UNDEFINED> instruction: 0x87803edb
87804030:	87803edb 			; <UNDEFINED> instruction: 0x87803edb
87804034:	87803edb 			; <UNDEFINED> instruction: 0x87803edb
87804038:	87803edb 			; <UNDEFINED> instruction: 0x87803edb
8780403c:	87803edb 			; <UNDEFINED> instruction: 0x87803edb
87804040:	87803edb 			; <UNDEFINED> instruction: 0x87803edb
87804044:	87803edb 			; <UNDEFINED> instruction: 0x87803edb
87804048:	87803edb 			; <UNDEFINED> instruction: 0x87803edb
8780404c:	87803edb 			; <UNDEFINED> instruction: 0x87803edb
87804050:	87803edb 			; <UNDEFINED> instruction: 0x87803edb
87804054:	87803edb 			; <UNDEFINED> instruction: 0x87803edb
87804058:	87804219 	usada8hi	r0, r9, r2, r4
8780405c:	87803edb 			; <UNDEFINED> instruction: 0x87803edb
87804060:	87803edb 			; <UNDEFINED> instruction: 0x87803edb
87804064:	87803edb 			; <UNDEFINED> instruction: 0x87803edb
87804068:	87803edb 			; <UNDEFINED> instruction: 0x87803edb
8780406c:	87803edb 			; <UNDEFINED> instruction: 0x87803edb
87804070:	87803edb 			; <UNDEFINED> instruction: 0x87803edb
87804074:	87803edb 			; <UNDEFINED> instruction: 0x87803edb
87804078:	87803edb 			; <UNDEFINED> instruction: 0x87803edb
8780407c:	87803edb 			; <UNDEFINED> instruction: 0x87803edb
87804080:	87803edb 			; <UNDEFINED> instruction: 0x87803edb
87804084:	878042e9 	strhi	r4, [r0, r9, ror #5]
87804088:	8780431b 	usada8hi	r0, fp, r3, r4
8780408c:	87803edb 			; <UNDEFINED> instruction: 0x87803edb
87804090:	87803edb 			; <UNDEFINED> instruction: 0x87803edb
87804094:	87803edb 			; <UNDEFINED> instruction: 0x87803edb
87804098:	87803edb 			; <UNDEFINED> instruction: 0x87803edb
8780409c:	8780413f 			; <UNDEFINED> instruction: 0x8780413f
878040a0:	87803edb 			; <UNDEFINED> instruction: 0x87803edb
878040a4:	87803edb 			; <UNDEFINED> instruction: 0x87803edb
878040a8:	87803edb 			; <UNDEFINED> instruction: 0x87803edb
878040ac:	87803edb 			; <UNDEFINED> instruction: 0x87803edb
878040b0:	878042d7 			; <UNDEFINED> instruction: 0x878042d7
878040b4:	8780424d 	strhi	r4, [r0, sp, asr #4]
878040b8:	87803edb 			; <UNDEFINED> instruction: 0x87803edb
878040bc:	87803edb 			; <UNDEFINED> instruction: 0x87803edb
878040c0:	87803edb 			; <UNDEFINED> instruction: 0x87803edb
878040c4:	8780427b 			; <UNDEFINED> instruction: 0x8780427b
878040c8:	87803edb 			; <UNDEFINED> instruction: 0x87803edb
878040cc:	87804233 			; <UNDEFINED> instruction: 0x87804233
878040d0:	87803edb 			; <UNDEFINED> instruction: 0x87803edb
878040d4:	87803edb 			; <UNDEFINED> instruction: 0x87803edb
878040d8:	87804219 	usada8hi	r0, r9, r2, r4
878040dc:	786a      	ldrb	r2, [r5, #1]
878040de:	468c      	mov	ip, r1
878040e0:	f105 0901 	add.w	r9, r5, #1
878040e4:	4291      	cmp	r1, r2
878040e6:	bf18      	it	ne
878040e8:	4611      	movne	r1, r2
878040ea:	f47f af3f 	bne.w	87803f6c <vsscanf+0xc0>
878040ee:	2968      	cmp	r1, #104	; 0x68
878040f0:	f000 8199 	beq.w	87804426 <vsscanf+0x57a>
878040f4:	296c      	cmp	r1, #108	; 0x6c
878040f6:	bf02      	ittt	eq
878040f8:	f105 0902 	addeq.w	r9, r5, #2
878040fc:	78a9      	ldrbeq	r1, [r5, #2]
878040fe:	f04f 0c4c 	moveq.w	ip, #76	; 0x4c
87804102:	e733      	b.n	87803f6c <vsscanf+0xc0>
87804104:	f894 202a 	ldrb.w	r2, [r4, #42]	; 0x2a
87804108:	0691      	lsls	r1, r2, #26
8780410a:	d40a      	bmi.n	87804122 <vsscanf+0x276>
8780410c:	f815 3f01 	ldrb.w	r3, [r5, #1]!
87804110:	5ce2      	ldrb	r2, [r4, r3]
87804112:	1c19      	adds	r1, r3, #0
87804114:	bf18      	it	ne
87804116:	2101      	movne	r1, #1
87804118:	f082 0220 	eor.w	r2, r2, #32
8780411c:	ea11 1252 	ands.w	r2, r1, r2, lsr #5
87804120:	d1f4      	bne.n	8780410c <vsscanf+0x260>
87804122:	7802      	ldrb	r2, [r0, #0]
87804124:	e001      	b.n	8780412a <vsscanf+0x27e>
87804126:	f810 2f01 	ldrb.w	r2, [r0, #1]!
8780412a:	5ca1      	ldrb	r1, [r4, r2]
8780412c:	3200      	adds	r2, #0
8780412e:	bf18      	it	ne
87804130:	2201      	movne	r2, #1
87804132:	f081 0120 	eor.w	r1, r1, #32
87804136:	ea12 1251 	ands.w	r2, r2, r1, lsr #5
8780413a:	d1f4      	bne.n	87804126 <vsscanf+0x27a>
8780413c:	e6c3      	b.n	87803ec6 <vsscanf+0x1a>
8780413e:	2200      	movs	r2, #0
87804140:	f814 300a 	ldrb.w	r3, [r4, sl]
87804144:	0699      	lsls	r1, r3, #26
87804146:	bf44      	itt	mi
87804148:	2101      	movmi	r1, #1
8780414a:	468b      	movmi	fp, r1
8780414c:	f140 8171 	bpl.w	87804432 <vsscanf+0x586>
87804150:	f810 3f01 	ldrb.w	r3, [r0, #1]!
87804154:	f814 a003 	ldrb.w	sl, [r4, r3]
87804158:	f01a 0f20 	tst.w	sl, #32
8780415c:	d1f8      	bne.n	87804150 <vsscanf+0x2a4>
8780415e:	2b2d      	cmp	r3, #45	; 0x2d
87804160:	bf14      	ite	ne
87804162:	2100      	movne	r1, #0
87804164:	f001 0101 	andeq.w	r1, r1, #1
87804168:	469a      	mov	sl, r3
8780416a:	b109      	cbz	r1, 87804170 <vsscanf+0x2c4>
8780416c:	f890 a001 	ldrb.w	sl, [r0, #1]
87804170:	f1ba 0f00 	cmp.w	sl, #0
87804174:	f43f aeb1 	beq.w	87803eda <vsscanf+0x2e>
87804178:	2a10      	cmp	r2, #16
8780417a:	f000 8120 	beq.w	878043be <vsscanf+0x512>
8780417e:	2a0a      	cmp	r2, #10
87804180:	d002      	beq.n	87804188 <vsscanf+0x2dc>
87804182:	2a08      	cmp	r2, #8
87804184:	d06b      	beq.n	8780425e <vsscanf+0x3b2>
87804186:	b922      	cbnz	r2, 87804192 <vsscanf+0x2e6>
87804188:	f814 300a 	ldrb.w	r3, [r4, sl]
8780418c:	0759      	lsls	r1, r3, #29
8780418e:	f57f aea4 	bpl.w	87803eda <vsscanf+0x2e>
87804192:	f1ac 0c48 	sub.w	ip, ip, #72	; 0x48
87804196:	f1bc 0f32 	cmp.w	ip, #50	; 0x32
8780419a:	f200 810a 	bhi.w	878043b2 <vsscanf+0x506>
8780419e:	e8df f01c 	tbh	[pc, ip, lsl #1]
878041a2:	010800ec 	smlatteq	r8, ip, r0, r0
878041a6:	01080108 	tsteq	r8, r8, lsl #2
878041aa:	010800fa 	strdeq	r0, [r8, -sl]
878041ae:	01080108 	tsteq	r8, r8, lsl #2
878041b2:	01080108 	tsteq	r8, r8, lsl #2
878041b6:	01080108 	tsteq	r8, r8, lsl #2
878041ba:	01080108 	tsteq	r8, r8, lsl #2
878041be:	01080108 	tsteq	r8, r8, lsl #2
878041c2:	01080108 	tsteq	r8, r8, lsl #2
878041c6:	010800da 	ldrdeq	r0, [r8, -sl]
878041ca:	01080108 	tsteq	r8, r8, lsl #2
878041ce:	01080108 	tsteq	r8, r8, lsl #2
878041d2:	01080108 	tsteq	r8, r8, lsl #2
878041d6:	01080108 	tsteq	r8, r8, lsl #2
878041da:	01080108 	tsteq	r8, r8, lsl #2
878041de:	01080108 	tsteq	r8, r8, lsl #2
878041e2:	010800cc 	smlabteq	r8, ip, r0, r0
878041e6:	01080108 	tsteq	r8, r8, lsl #2
878041ea:	010800be 	strheq	r0, [r8, -lr]
878041ee:	01080108 	tsteq	r8, r8, lsl #2
878041f2:	01080108 	tsteq	r8, r8, lsl #2
878041f6:	01080108 	tsteq	r8, r8, lsl #2
878041fa:	01080108 	tsteq	r8, r8, lsl #2
878041fe:	01080108 	tsteq	r8, r8, lsl #2
87804202:	01080108 	tsteq	r8, r8, lsl #2
87804206:	f1ba00da 			; <UNDEFINED> instruction: 0xf1ba00da
8780420a:	0f25      	lsrs	r5, r4, #28
8780420c:	f47f ae65 	bne.w	87803eda <vsscanf+0x2e>
87804210:	3001      	adds	r0, #1
87804212:	f899 3001 	ldrb.w	r3, [r9, #1]
87804216:	e656      	b.n	87803ec6 <vsscanf+0x1a>
87804218:	f814 300a 	ldrb.w	r3, [r4, sl]
8780421c:	2210      	movs	r2, #16
8780421e:	f003 0320 	and.w	r3, r3, #32
87804222:	f003 0bff 	and.w	fp, r3, #255	; 0xff
87804226:	2b00      	cmp	r3, #0
87804228:	f000 80c9 	beq.w	878043be <vsscanf+0x512>
8780422c:	2100      	movs	r1, #0
8780422e:	468b      	mov	fp, r1
87804230:	e78e      	b.n	87804150 <vsscanf+0x2a4>
87804232:	f814 300a 	ldrb.w	r3, [r4, sl]
87804236:	220a      	movs	r2, #10
87804238:	f003 0320 	and.w	r3, r3, #32
8780423c:	f003 0bff 	and.w	fp, r3, #255	; 0xff
87804240:	2b00      	cmp	r3, #0
87804242:	d0a1      	beq.n	87804188 <vsscanf+0x2dc>
87804244:	2100      	movs	r1, #0
87804246:	220a      	movs	r2, #10
87804248:	468b      	mov	fp, r1
8780424a:	e781      	b.n	87804150 <vsscanf+0x2a4>
8780424c:	f814 300a 	ldrb.w	r3, [r4, sl]
87804250:	2208      	movs	r2, #8
87804252:	f003 0320 	and.w	r3, r3, #32
87804256:	f003 0bff 	and.w	fp, r3, #255	; 0xff
8780425a:	2b00      	cmp	r3, #0
8780425c:	d1e6      	bne.n	8780422c <vsscanf+0x380>
8780425e:	f814 300a 	ldrb.w	r3, [r4, sl]
87804262:	f083 0304 	eor.w	r3, r3, #4
87804266:	f3c3 0380 	ubfx	r3, r3, #2, #1
8780426a:	f1ba 0f37 	cmp.w	sl, #55	; 0x37
8780426e:	bf88      	it	hi
87804270:	f043 0301 	orrhi.w	r3, r3, #1
87804274:	2b00      	cmp	r3, #0
87804276:	d08c      	beq.n	87804192 <vsscanf+0x2e6>
87804278:	e62f      	b.n	87803eda <vsscanf+0x2e>
8780427a:	1c5a      	adds	r2, r3, #1
8780427c:	f10e 0c04 	add.w	ip, lr, #4
87804280:	f8de 1000 	ldr.w	r1, [lr]
87804284:	f000 80a2 	beq.w	878043cc <vsscanf+0x520>
87804288:	f814 200a 	ldrb.w	r2, [r4, sl]
8780428c:	0692      	lsls	r2, r2, #26
8780428e:	bf58      	it	pl
87804290:	4652      	movpl	r2, sl
87804292:	d507      	bpl.n	878042a4 <vsscanf+0x3f8>
87804294:	f810 af01 	ldrb.w	sl, [r0, #1]!
87804298:	f814 200a 	ldrb.w	r2, [r4, sl]
8780429c:	0692      	lsls	r2, r2, #26
8780429e:	d4f9      	bmi.n	87804294 <vsscanf+0x3e8>
878042a0:	4652      	mov	r2, sl
878042a2:	b18a      	cbz	r2, 878042c8 <vsscanf+0x41c>
878042a4:	b183      	cbz	r3, 878042c8 <vsscanf+0x41c>
878042a6:	f100 0e01 	add.w	lr, r0, #1
878042aa:	e006      	b.n	878042ba <vsscanf+0x40e>
878042ac:	f814 a002 	ldrb.w	sl, [r4, r2]
878042b0:	f01a 0f20 	tst.w	sl, #32
878042b4:	d108      	bne.n	878042c8 <vsscanf+0x41c>
878042b6:	3b01      	subs	r3, #1
878042b8:	d006      	beq.n	878042c8 <vsscanf+0x41c>
878042ba:	f801 2b01 	strb.w	r2, [r1], #1
878042be:	4670      	mov	r0, lr
878042c0:	f81e 2b01 	ldrb.w	r2, [lr], #1
878042c4:	2a00      	cmp	r2, #0
878042c6:	d1f1      	bne.n	878042ac <vsscanf+0x400>
878042c8:	2300      	movs	r3, #0
878042ca:	3601      	adds	r6, #1
878042cc:	700b      	strb	r3, [r1, #0]
878042ce:	46e6      	mov	lr, ip
878042d0:	f899 3001 	ldrb.w	r3, [r9, #1]
878042d4:	e5f7      	b.n	87803ec6 <vsscanf+0x1a>
878042d6:	f8de 3000 	ldr.w	r3, [lr]
878042da:	1bc2      	subs	r2, r0, r7
878042dc:	f10e 0e04 	add.w	lr, lr, #4
878042e0:	601a      	str	r2, [r3, #0]
878042e2:	f899 3001 	ldrb.w	r3, [r9, #1]
878042e6:	e5ee      	b.n	87803ec6 <vsscanf+0x1a>
878042e8:	f8de 1000 	ldr.w	r1, [lr]
878042ec:	1c5a      	adds	r2, r3, #1
878042ee:	bf08      	it	eq
878042f0:	2301      	moveq	r3, #1
878042f2:	1c42      	adds	r2, r0, #1
878042f4:	f10e 0e04 	add.w	lr, lr, #4
878042f8:	f101 3cff 	add.w	ip, r1, #4294967295	; 0xffffffff
878042fc:	e003      	b.n	87804306 <vsscanf+0x45a>
878042fe:	f812 1b01 	ldrb.w	r1, [r2], #1
87804302:	468a      	mov	sl, r1
87804304:	b129      	cbz	r1, 87804312 <vsscanf+0x466>
87804306:	3b01      	subs	r3, #1
87804308:	f80c af01 	strb.w	sl, [ip, #1]!
8780430c:	2b00      	cmp	r3, #0
8780430e:	4610      	mov	r0, r2
87804310:	dcf5      	bgt.n	878042fe <vsscanf+0x452>
87804312:	3601      	adds	r6, #1
87804314:	f899 3001 	ldrb.w	r3, [r9, #1]
87804318:	e5d5      	b.n	87803ec6 <vsscanf+0x1a>
8780431a:	220a      	movs	r2, #10
8780431c:	e710      	b.n	87804140 <vsscanf+0x294>
8780431e:	f8de a000 	ldr.w	sl, [lr]
87804322:	f1bb 0f00 	cmp.w	fp, #0
87804326:	d018      	beq.n	8780435a <vsscanf+0x4ae>
87804328:	f10e 0b04 	add.w	fp, lr, #4
8780432c:	a901      	add	r1, sp, #4
8780432e:	f7ff f9ad 	bl	8780368c <simple_strtol>
87804332:	46de      	mov	lr, fp
87804334:	f8ca 0000 	str.w	r0, [sl]
87804338:	e017      	b.n	8780436a <vsscanf+0x4be>
8780433a:	f8de a000 	ldr.w	sl, [lr]
8780433e:	f1bb 0f00 	cmp.w	fp, #0
87804342:	d05c      	beq.n	878043fe <vsscanf+0x552>
87804344:	f10e 0b04 	add.w	fp, lr, #4
87804348:	a901      	add	r1, sp, #4
8780434a:	f7ff f99f 	bl	8780368c <simple_strtol>
8780434e:	46de      	mov	lr, fp
87804350:	f8aa 0000 	strh.w	r0, [sl]
87804354:	e009      	b.n	8780436a <vsscanf+0x4be>
87804356:	f8de a000 	ldr.w	sl, [lr]
8780435a:	f10e 0b04 	add.w	fp, lr, #4
8780435e:	a901      	add	r1, sp, #4
87804360:	f7ff f90e 	bl	87803580 <simple_strtoul>
87804364:	46de      	mov	lr, fp
87804366:	f8ca 0000 	str.w	r0, [sl]
8780436a:	9801      	ldr	r0, [sp, #4]
8780436c:	3601      	adds	r6, #1
8780436e:	2800      	cmp	r0, #0
87804370:	f43f adb3 	beq.w	87803eda <vsscanf+0x2e>
87804374:	f899 3001 	ldrb.w	r3, [r9, #1]
87804378:	e5a5      	b.n	87803ec6 <vsscanf+0x1a>
8780437a:	f8de a000 	ldr.w	sl, [lr]
8780437e:	f1bb 0f00 	cmp.w	fp, #0
87804382:	d033      	beq.n	878043ec <vsscanf+0x540>
87804384:	f10e 0b04 	add.w	fp, lr, #4
87804388:	a901      	add	r1, sp, #4
8780438a:	f7ff f97f 	bl	8780368c <simple_strtol>
8780438e:	46de      	mov	lr, fp
87804390:	f88a 0000 	strb.w	r0, [sl]
87804394:	e7e9      	b.n	8780436a <vsscanf+0x4be>
87804396:	f8de a000 	ldr.w	sl, [lr]
8780439a:	f1bb 0f00 	cmp.w	fp, #0
8780439e:	d01c      	beq.n	878043da <vsscanf+0x52e>
878043a0:	f10e 0b04 	add.w	fp, lr, #4
878043a4:	a901      	add	r1, sp, #4
878043a6:	f7ff fa23 	bl	878037f0 <simple_strtoll>
878043aa:	46de      	mov	lr, fp
878043ac:	e9ca 0100 	strd	r0, r1, [sl]
878043b0:	e7db      	b.n	8780436a <vsscanf+0x4be>
878043b2:	f1bb 0f00 	cmp.w	fp, #0
878043b6:	d02b      	beq.n	87804410 <vsscanf+0x564>
878043b8:	f8de a000 	ldr.w	sl, [lr]
878043bc:	e7b4      	b.n	87804328 <vsscanf+0x47c>
878043be:	f814 300a 	ldrb.w	r3, [r4, sl]
878043c2:	f013 0f44 	tst.w	r3, #68	; 0x44
878043c6:	f47f aee4 	bne.w	87804192 <vsscanf+0x2e6>
878043ca:	e586      	b.n	87803eda <vsscanf+0x2e>
878043cc:	f814 300a 	ldrb.w	r3, [r4, sl]
878043d0:	069b      	lsls	r3, r3, #26
878043d2:	d535      	bpl.n	87804440 <vsscanf+0x594>
878043d4:	f06f 4300 	mvn.w	r3, #2147483648	; 0x80000000
878043d8:	e75c      	b.n	87804294 <vsscanf+0x3e8>
878043da:	f10e 0b04 	add.w	fp, lr, #4
878043de:	a901      	add	r1, sp, #4
878043e0:	f7ff f962 	bl	878036a8 <simple_strtoull>
878043e4:	46de      	mov	lr, fp
878043e6:	e9ca 0100 	strd	r0, r1, [sl]
878043ea:	e7be      	b.n	8780436a <vsscanf+0x4be>
878043ec:	f10e 0b04 	add.w	fp, lr, #4
878043f0:	a901      	add	r1, sp, #4
878043f2:	f7ff f8c5 	bl	87803580 <simple_strtoul>
878043f6:	46de      	mov	lr, fp
878043f8:	f88a 0000 	strb.w	r0, [sl]
878043fc:	e7b5      	b.n	8780436a <vsscanf+0x4be>
878043fe:	f10e 0b04 	add.w	fp, lr, #4
87804402:	a901      	add	r1, sp, #4
87804404:	f7ff f8bc 	bl	87803580 <simple_strtoul>
87804408:	46de      	mov	lr, fp
8780440a:	f8aa 0000 	strh.w	r0, [sl]
8780440e:	e7ac      	b.n	8780436a <vsscanf+0x4be>
87804410:	f8de a000 	ldr.w	sl, [lr]
87804414:	f10e 0b04 	add.w	fp, lr, #4
87804418:	a901      	add	r1, sp, #4
8780441a:	f7ff f8b1 	bl	87803580 <simple_strtoul>
8780441e:	46de      	mov	lr, fp
87804420:	f8ca 0000 	str.w	r0, [sl]
87804424:	e7a1      	b.n	8780436a <vsscanf+0x4be>
87804426:	f105 0902 	add.w	r9, r5, #2
8780442a:	78a9      	ldrb	r1, [r5, #2]
8780442c:	f04f 0c48 	mov.w	ip, #72	; 0x48
87804430:	e59c      	b.n	87803f6c <vsscanf+0xc0>
87804432:	f1ba 0f2d 	cmp.w	sl, #45	; 0x2d
87804436:	f04f 0b01 	mov.w	fp, #1
8780443a:	f43f ae97 	beq.w	8780416c <vsscanf+0x2c0>
8780443e:	e69e      	b.n	8780417e <vsscanf+0x2d2>
87804440:	4652      	mov	r2, sl
87804442:	f06f 4300 	mvn.w	r3, #2147483648	; 0x80000000
87804446:	e72e      	b.n	878042a6 <vsscanf+0x3fa>

87804448 <sscanf>:
87804448:	b40e      	push	{r1, r2, r3}
8780444a:	b500      	push	{lr}
8780444c:	aa02      	add	r2, sp, #8
8780444e:	9901      	ldr	r1, [sp, #4]
87804450:	f7ff fd2c 	bl	87803eac <vsscanf>
87804454:	f85d eb04 	ldr.w	lr, [sp], #4
87804458:	b003      	add	sp, #12
8780445a:	4770      	bx	lr
8780445c:	0000      	movs	r0, r0
	...

87804460 <__aeabi_uidiv>:
87804460:	1e4a      	subs	r2, r1, #1
87804462:	bf08      	it	eq
87804464:	4770      	bxeq	lr
87804466:	f0c0 8124 	bcc.w	878046b2 <__aeabi_uidiv+0x252>
8780446a:	4288      	cmp	r0, r1
8780446c:	f240 8116 	bls.w	8780469c <__aeabi_uidiv+0x23c>
87804470:	4211      	tst	r1, r2
87804472:	f000 8117 	beq.w	878046a4 <__aeabi_uidiv+0x244>
87804476:	fab0 f380 	clz	r3, r0
8780447a:	fab1 f281 	clz	r2, r1
8780447e:	eba2 0303 	sub.w	r3, r2, r3
87804482:	f1c3 031f 	rsb	r3, r3, #31
87804486:	a204      	add	r2, pc, #16	; (adr r2, 87804498 <__aeabi_uidiv+0x38>)
87804488:	eb02 1303 	add.w	r3, r2, r3, lsl #4
8780448c:	f04f 0200 	mov.w	r2, #0
87804490:	469f      	mov	pc, r3
87804492:	bf00      	nop
87804494:	f3af 8000 	nop.w
87804498:	ebb0 7fc1 	cmp.w	r0, r1, lsl #31
8780449c:	bf00      	nop
8780449e:	eb42 0202 	adc.w	r2, r2, r2
878044a2:	bf28      	it	cs
878044a4:	eba0 70c1 	subcs.w	r0, r0, r1, lsl #31
878044a8:	ebb0 7f81 	cmp.w	r0, r1, lsl #30
878044ac:	bf00      	nop
878044ae:	eb42 0202 	adc.w	r2, r2, r2
878044b2:	bf28      	it	cs
878044b4:	eba0 7081 	subcs.w	r0, r0, r1, lsl #30
878044b8:	ebb0 7f41 	cmp.w	r0, r1, lsl #29
878044bc:	bf00      	nop
878044be:	eb42 0202 	adc.w	r2, r2, r2
878044c2:	bf28      	it	cs
878044c4:	eba0 7041 	subcs.w	r0, r0, r1, lsl #29
878044c8:	ebb0 7f01 	cmp.w	r0, r1, lsl #28
878044cc:	bf00      	nop
878044ce:	eb42 0202 	adc.w	r2, r2, r2
878044d2:	bf28      	it	cs
878044d4:	eba0 7001 	subcs.w	r0, r0, r1, lsl #28
878044d8:	ebb0 6fc1 	cmp.w	r0, r1, lsl #27
878044dc:	bf00      	nop
878044de:	eb42 0202 	adc.w	r2, r2, r2
878044e2:	bf28      	it	cs
878044e4:	eba0 60c1 	subcs.w	r0, r0, r1, lsl #27
878044e8:	ebb0 6f81 	cmp.w	r0, r1, lsl #26
878044ec:	bf00      	nop
878044ee:	eb42 0202 	adc.w	r2, r2, r2
878044f2:	bf28      	it	cs
878044f4:	eba0 6081 	subcs.w	r0, r0, r1, lsl #26
878044f8:	ebb0 6f41 	cmp.w	r0, r1, lsl #25
878044fc:	bf00      	nop
878044fe:	eb42 0202 	adc.w	r2, r2, r2
87804502:	bf28      	it	cs
87804504:	eba0 6041 	subcs.w	r0, r0, r1, lsl #25
87804508:	ebb0 6f01 	cmp.w	r0, r1, lsl #24
8780450c:	bf00      	nop
8780450e:	eb42 0202 	adc.w	r2, r2, r2
87804512:	bf28      	it	cs
87804514:	eba0 6001 	subcs.w	r0, r0, r1, lsl #24
87804518:	ebb0 5fc1 	cmp.w	r0, r1, lsl #23
8780451c:	bf00      	nop
8780451e:	eb42 0202 	adc.w	r2, r2, r2
87804522:	bf28      	it	cs
87804524:	eba0 50c1 	subcs.w	r0, r0, r1, lsl #23
87804528:	ebb0 5f81 	cmp.w	r0, r1, lsl #22
8780452c:	bf00      	nop
8780452e:	eb42 0202 	adc.w	r2, r2, r2
87804532:	bf28      	it	cs
87804534:	eba0 5081 	subcs.w	r0, r0, r1, lsl #22
87804538:	ebb0 5f41 	cmp.w	r0, r1, lsl #21
8780453c:	bf00      	nop
8780453e:	eb42 0202 	adc.w	r2, r2, r2
87804542:	bf28      	it	cs
87804544:	eba0 5041 	subcs.w	r0, r0, r1, lsl #21
87804548:	ebb0 5f01 	cmp.w	r0, r1, lsl #20
8780454c:	bf00      	nop
8780454e:	eb42 0202 	adc.w	r2, r2, r2
87804552:	bf28      	it	cs
87804554:	eba0 5001 	subcs.w	r0, r0, r1, lsl #20
87804558:	ebb0 4fc1 	cmp.w	r0, r1, lsl #19
8780455c:	bf00      	nop
8780455e:	eb42 0202 	adc.w	r2, r2, r2
87804562:	bf28      	it	cs
87804564:	eba0 40c1 	subcs.w	r0, r0, r1, lsl #19
87804568:	ebb0 4f81 	cmp.w	r0, r1, lsl #18
8780456c:	bf00      	nop
8780456e:	eb42 0202 	adc.w	r2, r2, r2
87804572:	bf28      	it	cs
87804574:	eba0 4081 	subcs.w	r0, r0, r1, lsl #18
87804578:	ebb0 4f41 	cmp.w	r0, r1, lsl #17
8780457c:	bf00      	nop
8780457e:	eb42 0202 	adc.w	r2, r2, r2
87804582:	bf28      	it	cs
87804584:	eba0 4041 	subcs.w	r0, r0, r1, lsl #17
87804588:	ebb0 4f01 	cmp.w	r0, r1, lsl #16
8780458c:	bf00      	nop
8780458e:	eb42 0202 	adc.w	r2, r2, r2
87804592:	bf28      	it	cs
87804594:	eba0 4001 	subcs.w	r0, r0, r1, lsl #16
87804598:	ebb0 3fc1 	cmp.w	r0, r1, lsl #15
8780459c:	bf00      	nop
8780459e:	eb42 0202 	adc.w	r2, r2, r2
878045a2:	bf28      	it	cs
878045a4:	eba0 30c1 	subcs.w	r0, r0, r1, lsl #15
878045a8:	ebb0 3f81 	cmp.w	r0, r1, lsl #14
878045ac:	bf00      	nop
878045ae:	eb42 0202 	adc.w	r2, r2, r2
878045b2:	bf28      	it	cs
878045b4:	eba0 3081 	subcs.w	r0, r0, r1, lsl #14
878045b8:	ebb0 3f41 	cmp.w	r0, r1, lsl #13
878045bc:	bf00      	nop
878045be:	eb42 0202 	adc.w	r2, r2, r2
878045c2:	bf28      	it	cs
878045c4:	eba0 3041 	subcs.w	r0, r0, r1, lsl #13
878045c8:	ebb0 3f01 	cmp.w	r0, r1, lsl #12
878045cc:	bf00      	nop
878045ce:	eb42 0202 	adc.w	r2, r2, r2
878045d2:	bf28      	it	cs
878045d4:	eba0 3001 	subcs.w	r0, r0, r1, lsl #12
878045d8:	ebb0 2fc1 	cmp.w	r0, r1, lsl #11
878045dc:	bf00      	nop
878045de:	eb42 0202 	adc.w	r2, r2, r2
878045e2:	bf28      	it	cs
878045e4:	eba0 20c1 	subcs.w	r0, r0, r1, lsl #11
878045e8:	ebb0 2f81 	cmp.w	r0, r1, lsl #10
878045ec:	bf00      	nop
878045ee:	eb42 0202 	adc.w	r2, r2, r2
878045f2:	bf28      	it	cs
878045f4:	eba0 2081 	subcs.w	r0, r0, r1, lsl #10
878045f8:	ebb0 2f41 	cmp.w	r0, r1, lsl #9
878045fc:	bf00      	nop
878045fe:	eb42 0202 	adc.w	r2, r2, r2
87804602:	bf28      	it	cs
87804604:	eba0 2041 	subcs.w	r0, r0, r1, lsl #9
87804608:	ebb0 2f01 	cmp.w	r0, r1, lsl #8
8780460c:	bf00      	nop
8780460e:	eb42 0202 	adc.w	r2, r2, r2
87804612:	bf28      	it	cs
87804614:	eba0 2001 	subcs.w	r0, r0, r1, lsl #8
87804618:	ebb0 1fc1 	cmp.w	r0, r1, lsl #7
8780461c:	bf00      	nop
8780461e:	eb42 0202 	adc.w	r2, r2, r2
87804622:	bf28      	it	cs
87804624:	eba0 10c1 	subcs.w	r0, r0, r1, lsl #7
87804628:	ebb0 1f81 	cmp.w	r0, r1, lsl #6
8780462c:	bf00      	nop
8780462e:	eb42 0202 	adc.w	r2, r2, r2
87804632:	bf28      	it	cs
87804634:	eba0 1081 	subcs.w	r0, r0, r1, lsl #6
87804638:	ebb0 1f41 	cmp.w	r0, r1, lsl #5
8780463c:	bf00      	nop
8780463e:	eb42 0202 	adc.w	r2, r2, r2
87804642:	bf28      	it	cs
87804644:	eba0 1041 	subcs.w	r0, r0, r1, lsl #5
87804648:	ebb0 1f01 	cmp.w	r0, r1, lsl #4
8780464c:	bf00      	nop
8780464e:	eb42 0202 	adc.w	r2, r2, r2
87804652:	bf28      	it	cs
87804654:	eba0 1001 	subcs.w	r0, r0, r1, lsl #4
87804658:	ebb0 0fc1 	cmp.w	r0, r1, lsl #3
8780465c:	bf00      	nop
8780465e:	eb42 0202 	adc.w	r2, r2, r2
87804662:	bf28      	it	cs
87804664:	eba0 00c1 	subcs.w	r0, r0, r1, lsl #3
87804668:	ebb0 0f81 	cmp.w	r0, r1, lsl #2
8780466c:	bf00      	nop
8780466e:	eb42 0202 	adc.w	r2, r2, r2
87804672:	bf28      	it	cs
87804674:	eba0 0081 	subcs.w	r0, r0, r1, lsl #2
87804678:	ebb0 0f41 	cmp.w	r0, r1, lsl #1
8780467c:	bf00      	nop
8780467e:	eb42 0202 	adc.w	r2, r2, r2
87804682:	bf28      	it	cs
87804684:	eba0 0041 	subcs.w	r0, r0, r1, lsl #1
87804688:	ebb0 0f01 	cmp.w	r0, r1
8780468c:	bf00      	nop
8780468e:	eb42 0202 	adc.w	r2, r2, r2
87804692:	bf28      	it	cs
87804694:	eba0 0001 	subcs.w	r0, r0, r1
87804698:	4610      	mov	r0, r2
8780469a:	4770      	bx	lr
8780469c:	bf0c      	ite	eq
8780469e:	2001      	moveq	r0, #1
878046a0:	2000      	movne	r0, #0
878046a2:	4770      	bx	lr
878046a4:	fab1 f281 	clz	r2, r1
878046a8:	f1c2 021f 	rsb	r2, r2, #31
878046ac:	fa20 f002 	lsr.w	r0, r0, r2
878046b0:	4770      	bx	lr
878046b2:	b108      	cbz	r0, 878046b8 <__aeabi_uidiv+0x258>
878046b4:	f04f 30ff 	mov.w	r0, #4294967295	; 0xffffffff
878046b8:	f000 b826 	b.w	87804708 <__aeabi_idiv0>

878046bc <__aeabi_uidivmod>:
878046bc:	2900      	cmp	r1, #0
878046be:	d0f8      	beq.n	878046b2 <__aeabi_uidiv+0x252>
878046c0:	e92d 4003 	stmdb	sp!, {r0, r1, lr}
878046c4:	f7ff fecc 	bl	87804460 <__aeabi_uidiv>
878046c8:	e8bd 4006 	ldmia.w	sp!, {r1, r2, lr}
878046cc:	fb02 f300 	mul.w	r3, r2, r0
878046d0:	eba1 0103 	sub.w	r1, r1, r3
878046d4:	4770      	bx	lr
878046d6:	bf00      	nop

878046d8 <__aeabi_uldivmod>:
878046d8:	b953      	cbnz	r3, 878046f0 <__aeabi_uldivmod+0x18>
878046da:	b94a      	cbnz	r2, 878046f0 <__aeabi_uldivmod+0x18>
878046dc:	2900      	cmp	r1, #0
878046de:	bf08      	it	eq
878046e0:	2800      	cmpeq	r0, #0
878046e2:	bf1c      	itt	ne
878046e4:	f04f 31ff 	movne.w	r1, #4294967295	; 0xffffffff
878046e8:	f04f 30ff 	movne.w	r0, #4294967295	; 0xffffffff
878046ec:	f000 b80c 	b.w	87804708 <__aeabi_idiv0>
878046f0:	f1ad 0c08 	sub.w	ip, sp, #8
878046f4:	e96d ce04 	strd	ip, lr, [sp, #-16]!
878046f8:	f000 f80c 	bl	87804714 <__udivmoddi4>
878046fc:	f8dd e004 	ldr.w	lr, [sp, #4]
87804700:	e9dd 2302 	ldrd	r2, r3, [sp, #8]
87804704:	b004      	add	sp, #16
87804706:	4770      	bx	lr

87804708 <__aeabi_idiv0>:
87804708:	b502      	push	{r1, lr}
8780470a:	f04f 0008 	mov.w	r0, #8
8780470e:	f7fc fc1f 	bl	87800f50 <raise>
87804712:	bd02      	pop	{r1, pc}

87804714 <__udivmoddi4>:
87804714:	e92d 43f0 	stmdb	sp!, {r4, r5, r6, r7, r8, r9, lr}
87804718:	460d      	mov	r5, r1
8780471a:	429d      	cmp	r5, r3
8780471c:	4604      	mov	r4, r0
8780471e:	4610      	mov	r0, r2
87804720:	4619      	mov	r1, r3
87804722:	bf08      	it	eq
87804724:	4284      	cmpeq	r4, r0
87804726:	9a07      	ldr	r2, [sp, #28]
87804728:	bf3c      	itt	cc
8780472a:	2000      	movcc	r0, #0
8780472c:	2100      	movcc	r1, #0
8780472e:	d36a      	bcc.n	87804806 <__udivmoddi4+0xf2>
87804730:	fab1 f681 	clz	r6, r1
87804734:	2900      	cmp	r1, #0
87804736:	d06f      	beq.n	87804818 <__udivmoddi4+0x104>
87804738:	fab5 f385 	clz	r3, r5
8780473c:	2d00      	cmp	r5, #0
8780473e:	d067      	beq.n	87804810 <__udivmoddi4+0xfc>
87804740:	1af3      	subs	r3, r6, r3
87804742:	f1a3 0c20 	sub.w	ip, r3, #32
87804746:	fa01 f703 	lsl.w	r7, r1, r3
8780474a:	fa00 fe0c 	lsl.w	lr, r0, ip
8780474e:	f1c3 0820 	rsb	r8, r3, #32
87804752:	fa20 f108 	lsr.w	r1, r0, r8
87804756:	fa00 f603 	lsl.w	r6, r0, r3
8780475a:	ea47 070e 	orr.w	r7, r7, lr
8780475e:	469e      	mov	lr, r3
87804760:	430f      	orrs	r7, r1
87804762:	42bd      	cmp	r5, r7
87804764:	bf08      	it	eq
87804766:	42b4      	cmpeq	r4, r6
87804768:	bf3c      	itt	cc
8780476a:	2000      	movcc	r0, #0
8780476c:	2100      	movcc	r1, #0
8780476e:	d30c      	bcc.n	8780478a <__udivmoddi4+0x76>
87804770:	f04f 0901 	mov.w	r9, #1
87804774:	1ba4      	subs	r4, r4, r6
87804776:	fa29 f808 	lsr.w	r8, r9, r8
8780477a:	fa09 f10c 	lsl.w	r1, r9, ip
8780477e:	fa09 f003 	lsl.w	r0, r9, r3
87804782:	ea41 0108 	orr.w	r1, r1, r8
87804786:	eb65 0507 	sbc.w	r5, r5, r7
8780478a:	2b00      	cmp	r3, #0
8780478c:	d03b      	beq.n	87804806 <__udivmoddi4+0xf2>
8780478e:	087f      	lsrs	r7, r7, #1
87804790:	ea4f 0636 	mov.w	r6, r6, rrx
87804794:	e009      	b.n	878047aa <__udivmoddi4+0x96>
87804796:	1ba4      	subs	r4, r4, r6
87804798:	eb65 0507 	sbc.w	r5, r5, r7
8780479c:	1924      	adds	r4, r4, r4
8780479e:	416d      	adcs	r5, r5
878047a0:	3401      	adds	r4, #1
878047a2:	f145 0500 	adc.w	r5, r5, #0
878047a6:	3b01      	subs	r3, #1
878047a8:	d007      	beq.n	878047ba <__udivmoddi4+0xa6>
878047aa:	42bd      	cmp	r5, r7
878047ac:	bf08      	it	eq
878047ae:	42b4      	cmpeq	r4, r6
878047b0:	d2f1      	bcs.n	87804796 <__udivmoddi4+0x82>
878047b2:	1924      	adds	r4, r4, r4
878047b4:	416d      	adcs	r5, r5
878047b6:	3b01      	subs	r3, #1
878047b8:	d1f7      	bne.n	878047aa <__udivmoddi4+0x96>
878047ba:	f1ce 0720 	rsb	r7, lr, #32
878047be:	fa24 f60e 	lsr.w	r6, r4, lr
878047c2:	fa05 f707 	lsl.w	r7, r5, r7
878047c6:	f1ae 0320 	sub.w	r3, lr, #32
878047ca:	fa25 f303 	lsr.w	r3, r5, r3
878047ce:	fa25 fc0e 	lsr.w	ip, r5, lr
878047d2:	1900      	adds	r0, r0, r4
878047d4:	ea46 0607 	orr.w	r6, r6, r7
878047d8:	ea46 0403 	orr.w	r4, r6, r3
878047dc:	4169      	adcs	r1, r5
878047de:	4665      	mov	r5, ip
878047e0:	f1ae 0c20 	sub.w	ip, lr, #32
878047e4:	fa05 f70e 	lsl.w	r7, r5, lr
878047e8:	fa04 fc0c 	lsl.w	ip, r4, ip
878047ec:	fa04 f60e 	lsl.w	r6, r4, lr
878047f0:	f1ce 0320 	rsb	r3, lr, #32
878047f4:	fa24 f303 	lsr.w	r3, r4, r3
878047f8:	ea47 070c 	orr.w	r7, r7, ip
878047fc:	1b80      	subs	r0, r0, r6
878047fe:	ea47 0703 	orr.w	r7, r7, r3
87804802:	eb61 0107 	sbc.w	r1, r1, r7
87804806:	b10a      	cbz	r2, 8780480c <__udivmoddi4+0xf8>
87804808:	e9c2 4500 	strd	r4, r5, [r2]
8780480c:	e8bd 83f0 	ldmia.w	sp!, {r4, r5, r6, r7, r8, r9, pc}
87804810:	fab4 f384 	clz	r3, r4
87804814:	3320      	adds	r3, #32
87804816:	e793      	b.n	87804740 <__udivmoddi4+0x2c>
87804818:	fab0 f380 	clz	r3, r0
8780481c:	f103 0620 	add.w	r6, r3, #32
87804820:	fab5 f385 	clz	r3, r5
87804824:	2d00      	cmp	r5, #0
87804826:	d18b      	bne.n	87804740 <__udivmoddi4+0x2c>
87804828:	e7f2      	b.n	87804810 <__udivmoddi4+0xfc>
8780482a:	bf00      	nop
8780482c:	0000      	movs	r0, r0
	...

87804830 <__main_from_arm>:
87804830:	e51ff004 	ldr	pc, [pc, #-4]	; 87804834 <__main_from_arm+0x4>
87804834:	87804839 			; <UNDEFINED> instruction: 0x87804839

Disassembly of section .text.startup:

87804838 <main>:
87804838:	b5f0      	push	{r4, r5, r6, r7, lr}
8780483a:	b083      	sub	sp, #12
8780483c:	ee11 3f50 	mrc	15, 0, r3, cr1, cr0, {2}
87804840:	f023 4340 	bic.w	r3, r3, #3221225472	; 0xc0000000
87804844:	f423 0370 	bic.w	r3, r3, #15728640	; 0xf00000
87804848:	f443 0370 	orr.w	r3, r3, #15728640	; 0xf00000
8780484c:	ee01 3f50 	mcr	15, 0, r3, cr1, cr0, {2}
87804850:	eef8 3a10 	vmrs	r3, fpexc
87804854:	f043 4380 	orr.w	r3, r3, #1073741824	; 0x40000000
87804858:	eee8 3a10 	vmsr	fpexc, r3
8780485c:	f7fc f810 	bl	87800880 <int_init>
87804860:	f649 77cc 	movw	r7, #40908	; 0x9fcc
87804864:	f44f 047f 	mov.w	r4, #16711680	; 0xff0000
87804868:	f7fb fdb2 	bl	878003d0 <imx6u_clkinit>
8780486c:	f7fb fe60 	bl	87800530 <delay_init>
87804870:	f7fc faa4 	bl	87800dbc <uart_init>
87804874:	f7fb fd9c 	bl	878003b0 <clk_enable>
87804878:	f7fb fe18 	bl	878004ac <led_init>
8780487c:	f7fb feca 	bl	87800614 <beep_init>
87804880:	f7fb fef8 	bl	87800674 <key_init>
87804884:	f7fc fffa 	bl	8780187c <lcd_init>
87804888:	f7fd fa48 	bl	87801d1c <rtc_init>
8780488c:	f7fd fe1c 	bl	878024c8 <icm20608_init>
87804890:	f7fe f818 	bl	878028c4 <ft5426_init>
87804894:	f644 1348 	movw	r3, #18760	; 0x4948
87804898:	2218      	movs	r2, #24
8780489a:	f2c8 7380 	movt	r3, #34688	; 0x8780
8780489e:	f2c8 7780 	movt	r7, #34688	; 0x8780
878048a2:	9301      	str	r3, [sp, #4]
878048a4:	210a      	movs	r1, #10
878048a6:	4613      	mov	r3, r2
878048a8:	9200      	str	r2, [sp, #0]
878048aa:	2032      	movs	r0, #50	; 0x32
878048ac:	f44f 72c8 	mov.w	r2, #400	; 0x190
878048b0:	61bc      	str	r4, [r7, #24]
878048b2:	2410      	movs	r4, #16
878048b4:	f7fc fd90 	bl	878013d8 <lcd_show_string>
878048b8:	f644 1268 	movw	r2, #18792	; 0x4968
878048bc:	4623      	mov	r3, r4
878048be:	f2c8 7280 	movt	r2, #34688	; 0x8780
878048c2:	2128      	movs	r1, #40	; 0x28
878048c4:	9201      	str	r2, [sp, #4]
878048c6:	2032      	movs	r0, #50	; 0x32
878048c8:	22c8      	movs	r2, #200	; 0xc8
878048ca:	9400      	str	r4, [sp, #0]
878048cc:	f7fc fd84 	bl	878013d8 <lcd_show_string>
878048d0:	f644 127c 	movw	r2, #18812	; 0x497c
878048d4:	4623      	mov	r3, r4
878048d6:	f2c8 7280 	movt	r2, #34688	; 0x8780
878048da:	213c      	movs	r1, #60	; 0x3c
878048dc:	9201      	str	r2, [sp, #4]
878048de:	2032      	movs	r0, #50	; 0x32
878048e0:	22c8      	movs	r2, #200	; 0xc8
878048e2:	9400      	str	r4, [sp, #0]
878048e4:	f7fc fd78 	bl	878013d8 <lcd_show_string>
878048e8:	f644 128c 	movw	r2, #18828	; 0x498c
878048ec:	f24a 0524 	movw	r5, #40996	; 0xa024
878048f0:	f2c8 7280 	movt	r2, #34688	; 0x8780
878048f4:	4623      	mov	r3, r4
878048f6:	9201      	str	r2, [sp, #4]
878048f8:	2150      	movs	r1, #80	; 0x50
878048fa:	9400      	str	r4, [sp, #0]
878048fc:	22c8      	movs	r2, #200	; 0xc8
878048fe:	2032      	movs	r0, #50	; 0x32
87804900:	f2c8 7580 	movt	r5, #34688	; 0x8780
87804904:	2600      	movs	r6, #0
87804906:	f7fc fd67 	bl	878013d8 <lcd_show_string>
8780490a:	23ff      	movs	r3, #255	; 0xff
8780490c:	61bb      	str	r3, [r7, #24]
8780490e:	2432      	movs	r4, #50	; 0x32
87804910:	f644 1098 	movw	r0, #18840	; 0x4998
87804914:	89aa      	ldrh	r2, [r5, #12]
87804916:	8869      	ldrh	r1, [r5, #2]
87804918:	f2c8 7080 	movt	r0, #34688	; 0x8780
8780491c:	f7fe f986 	bl	87802c2c <printf>
87804920:	f44f 027f 	mov.w	r2, #16711680	; 0xff0000
87804924:	89a9      	ldrh	r1, [r5, #12]
87804926:	8868      	ldrh	r0, [r5, #2]
87804928:	f7fb fd0c 	bl	87800344 <lcd_draw_bigpoint>
8780492c:	200a      	movs	r0, #10
8780492e:	f7fb fe35 	bl	8780059c <delay_ms>
87804932:	1e60      	subs	r0, r4, #1
87804934:	f010 04ff 	ands.w	r4, r0, #255	; 0xff
87804938:	d1ea      	bne.n	87804910 <main+0xd8>
8780493a:	f086 0601 	eor.w	r6, r6, #1
8780493e:	4620      	mov	r0, r4
87804940:	4631      	mov	r1, r6
87804942:	f7fb fddf 	bl	87800504 <led_switch>
87804946:	e7e2      	b.n	8780490e <main+0xd6>

Disassembly of section .rodata:

87804948 <CSWTCH.8-0x64>:
87804948:	36584d49 	ldrbcc	r4, [r8], -r9, asr #26
8780494c:	455a2d55 	ldrbmi	r2, [sl, #-3413]	; 0xd55
87804950:	54204f52 	strtpl	r4, [r0], #-3922	; 0xf52
87804954:	4843554f 	stmdami	r3, {r0, r1, r2, r3, r6, r8, sl, ip, lr}^
87804958:	52435320 	subpl	r5, r3, #32, 6	; 0x80000000
8780495c:	204e4545 	subcs	r4, lr, r5, asr #10
87804960:	54534554 	ldrbpl	r4, [r3], #-1364	; 0x554
87804964:	00000000 	andeq	r0, r0, r0
87804968:	43554f54 	cmpmi	r5, #84, 30	; 0x150
8780496c:	43532048 	cmpmi	r3, #72	; 0x48
87804970:	4e454552 	mcrmi	5, 2, r4, cr5, cr2, {2}
87804974:	53455420 	movtpl	r5, #21536	; 0x5420
87804978:	00000054 	andeq	r0, r0, r4, asr r0
8780497c:	4d4f5441 	cfstrdmi	mvd5, [pc, #-260]	; 87804880 <main+0x48>
87804980:	494c4140 	stmdbmi	ip, {r6, r8, lr}^
87804984:	45544e45 	ldrbmi	r4, [r4, #-3653]	; 0xe45
87804988:	0000004b 	andeq	r0, r0, fp, asr #32
8780498c:	39313032 	ldmdbcc	r1!, {r1, r4, r5, ip, sp}
87804990:	322f332f 	eorcc	r3, pc, #-1140850688	; 0xbc000000
87804994:	00000037 	andeq	r0, r0, r7, lsr r0
87804998:	203d2078 	eorscs	r2, sp, r8, ror r0
8780499c:	202c6425 	eorcs	r6, ip, r5, lsr #8
878049a0:	203d2079 	eorscs	r2, sp, r9, ror r0
878049a4:	0a0d6425 	beq	87b5da40 <__bss_end+0x353a00>
878049a8:	00000000 	andeq	r0, r0, r0

878049ac <CSWTCH.8>:
878049ac:	00000004 	andeq	r0, r0, r4
878049b0:	00000003 	andeq	r0, r0, r3
878049b4:	00000002 	andeq	r0, r0, r2
878049b8:	00000001 	andeq	r0, r0, r1
878049bc:	00000000 	andeq	r0, r0, r0
878049c0:	00000006 	andeq	r0, r0, r6

878049c4 <asc2_1206>:
	...
878049d4:	0000403f 	andeq	r4, r0, pc, lsr r0
878049d8:	00000000 	andeq	r0, r0, r0
878049dc:	00300000 	eorseq	r0, r0, r0
878049e0:	00300040 	eorseq	r0, r0, r0, asr #32
878049e4:	00000040 	andeq	r0, r0, r0, asr #32
878049e8:	c00b0009 	andgt	r0, fp, r9
878049ec:	c00b003d 	andgt	r0, fp, sp, lsr r0
878049f0:	0009003d 	andeq	r0, r9, sp, lsr r0
878049f4:	4024c018 	eormi	ip, r4, r8, lsl r0
878049f8:	4022e07f 	eormi	lr, r2, pc, ror r0
878049fc:	00008031 	andeq	r8, r0, r1, lsr r0
87804a00:	c0240018 	eorgt	r0, r4, r8, lsl r0
87804a04:	800d001b 	andhi	r0, sp, fp, lsl r0
87804a08:	80014032 	andhi	r4, r1, r2, lsr r0
87804a0c:	401c8003 	andsmi	r8, ip, r3
87804a10:	801c4027 	andshi	r4, ip, r7, lsr #32
87804a14:	40004007 	andmi	r4, r0, r7
87804a18:	00600010 	rsbeq	r0, r0, r0, lsl r0
	...
87804a28:	801f0000 	andshi	r0, pc, r0
87804a2c:	20404020 	subcs	r4, r0, r0, lsr #32
87804a30:	20400000 	subcs	r0, r0, r0
87804a34:	801f4020 	andshi	r4, pc, r0, lsr #32
87804a38:	00000000 	andeq	r0, r0, r0
87804a3c:	00060009 	andeq	r0, r6, r9
87804a40:	0006801f 	andeq	r8, r6, pc, lsl r0
87804a44:	00000009 	andeq	r0, r0, r9
87804a48:	00040004 	andeq	r0, r4, r4
87804a4c:	0004803f 	andeq	r8, r4, pc, lsr r0
87804a50:	00000004 	andeq	r0, r0, r4
87804a54:	60001000 	andvs	r1, r0, r0
	...
87804a60:	00040004 	andeq	r0, r4, r4
87804a64:	00040004 	andeq	r0, r4, r4
87804a68:	00000004 	andeq	r0, r0, r4
87804a6c:	40000000 	andmi	r0, r0, r0
	...
87804a78:	c0012000 	andgt	r2, r1, r0
87804a7c:	00380006 	eorseq	r0, r8, r6
87804a80:	00000040 	andeq	r0, r0, r0, asr #32
87804a84:	4020801f 	eormi	r8, r0, pc, lsl r0
87804a88:	40204020 	eormi	r4, r0, r0, lsr #32
87804a8c:	0000801f 	andeq	r8, r0, pc, lsl r0
87804a90:	40100000 	andsmi	r0, r0, r0
87804a94:	4000c03f 	andmi	ip, r0, pc, lsr r0
87804a98:	00000000 	andeq	r0, r0, r0
87804a9c:	4021c018 	eormi	ip, r1, r8, lsl r0
87804aa0:	40244022 	eormi	r4, r4, r2, lsr #32
87804aa4:	00004018 	andeq	r4, r0, r8, lsl r0
87804aa8:	40208010 	eormi	r8, r0, r0, lsl r0
87804aac:	40244024 	eormi	r4, r4, r4, lsr #32
87804ab0:	0000801b 	andeq	r8, r0, fp, lsl r0
87804ab4:	000d0002 	andeq	r0, sp, r2
87804ab8:	c03f0011 	eorsgt	r0, pc, r1, lsl r0	; <UNPREDICTABLE>
87804abc:	00004001 	andeq	r4, r0, r1
87804ac0:	4024803c 	eormi	r8, r4, ip, lsr r0
87804ac4:	40244024 	eormi	r4, r4, r4, lsr #32
87804ac8:	00008023 	andeq	r8, r0, r3, lsr #32
87804acc:	4024801f 	eormi	r8, r4, pc, lsl r0
87804ad0:	40344024 	eorsmi	r4, r4, r4, lsr #32
87804ad4:	00008003 	andeq	r8, r0, r3
87804ad8:	00200030 	eoreq	r0, r0, r0, lsr r0
87804adc:	0038c027 	eorseq	ip, r8, r7, lsr #32
87804ae0:	00000020 	andeq	r0, r0, r0, lsr #32
87804ae4:	4024801b 	eormi	r8, r4, fp, lsl r0
87804ae8:	40244024 	eormi	r4, r4, r4, lsr #32
87804aec:	0000801b 	andeq	r8, r0, fp, lsl r0
87804af0:	c022001c 	eorgt	r0, r2, ip, lsl r0
87804af4:	40224022 	eormi	r4, r2, r2, lsr #32
87804af8:	0000801f 	andeq	r8, r0, pc, lsl r0
87804afc:	00000000 	andeq	r0, r0, r0
87804b00:	00004008 	andeq	r4, r0, r8
	...
87804b0c:	00006004 	andeq	r6, r0, r4
87804b10:	00000000 	andeq	r0, r0, r0
87804b14:	00040000 	andeq	r0, r4, r0
87804b18:	0011000a 	andseq	r0, r1, sl
87804b1c:	40408020 	submi	r8, r0, r0, lsr #32
87804b20:	00090009 	andeq	r0, r9, r9
87804b24:	00090009 	andeq	r0, r9, r9
87804b28:	00000009 	andeq	r0, r0, r9
87804b2c:	40400000 	submi	r0, r0, r0
87804b30:	00118020 	andseq	r8, r1, r0, lsr #32
87804b34:	0004000a 	andeq	r0, r4, sl
87804b38:	00200018 	eoreq	r0, r0, r8, lsl r0
87804b3c:	00244023 	eoreq	r4, r4, r3, lsr #32
87804b40:	00000018 	andeq	r0, r0, r8, lsl r0
87804b44:	4020801f 	eormi	r8, r0, pc, lsl r0
87804b48:	40294027 	eormi	r4, r9, r7, lsr #32
87804b4c:	0000401f 	andeq	r4, r0, pc, lsl r0
87804b50:	c0074000 	andgt	r4, r7, r0
87804b54:	000f0039 	andeq	r0, pc, r9, lsr r0	; <UNPREDICTABLE>
87804b58:	4000c001 	andmi	ip, r0, r1
87804b5c:	c03f4020 	eorsgt	r4, pc, r0, lsr #32
87804b60:	40244024 	eormi	r4, r4, r4, lsr #32
87804b64:	0000801b 	andeq	r8, r0, fp, lsl r0
87804b68:	4020801f 	eormi	r8, r0, pc, lsl r0
87804b6c:	40204020 	eormi	r4, r0, r0, lsr #32
87804b70:	00008030 	andeq	r8, r0, r0, lsr r0
87804b74:	c03f4020 	eorsgt	r4, pc, r0, lsr #32
87804b78:	40204020 	eormi	r4, r0, r0, lsr #32
87804b7c:	0000801f 	andeq	r8, r0, pc, lsl r0
87804b80:	c03f4020 	eorsgt	r4, pc, r0, lsr #32
87804b84:	402e4024 	eormi	r4, lr, r4, lsr #32
87804b88:	0000c030 	andeq	ip, r0, r0, lsr r0
87804b8c:	c03f4020 	eorsgt	r4, pc, r0, lsr #32
87804b90:	002e4024 	eoreq	r4, lr, r4, lsr #32
87804b94:	00000030 	andeq	r0, r0, r0, lsr r0
87804b98:	8010000f 	andshi	r0, r0, pc
87804b9c:	40224020 	eormi	r4, r2, r0, lsr #32
87804ba0:	00028033 	andeq	r8, r2, r3, lsr r0
87804ba4:	c03f4020 	eorsgt	r4, pc, r0, lsr #32
87804ba8:	00040004 	andeq	r0, r4, r4
87804bac:	4020c03f 	eormi	ip, r0, pc, lsr r0
87804bb0:	40204020 	eormi	r4, r0, r0, lsr #32
87804bb4:	4020c03f 	eormi	ip, r0, pc, lsr r0
87804bb8:	00004020 	andeq	r4, r0, r0, lsr #32
87804bbc:	20206000 	eorcs	r6, r0, r0
87804bc0:	c03f2020 	eorsgt	r2, pc, r0, lsr #32
87804bc4:	00200020 	eoreq	r0, r0, r0, lsr #32
87804bc8:	c03f4020 	eorsgt	r4, pc, r0, lsr #32
87804bcc:	000b4024 	andeq	r4, fp, r4, lsr #32
87804bd0:	4020c030 	eormi	ip, r0, r0, lsr r0
87804bd4:	c03f4020 	eorsgt	r4, pc, r0, lsr #32
87804bd8:	40004020 	andmi	r4, r0, r0, lsr #32
87804bdc:	c0004000 	andgt	r4, r0, r0
87804be0:	003cc03f 	eorseq	ip, ip, pc, lsr r0
87804be4:	003cc003 	eorseq	ip, ip, r3
87804be8:	0000c03f 	andeq	ip, r0, pc, lsr r0
87804bec:	c03f4020 	eorsgt	r4, pc, r0, lsr #32
87804bf0:	0023400c 	eoreq	r4, r3, ip
87804bf4:	0020c03f 	eoreq	ip, r0, pc, lsr r0
87804bf8:	4020801f 	eormi	r8, r0, pc, lsl r0
87804bfc:	40204020 	eormi	r4, r0, r0, lsr #32
87804c00:	0000801f 	andeq	r8, r0, pc, lsl r0
87804c04:	c03f4020 	eorsgt	r4, pc, r0, lsr #32
87804c08:	00244024 	eoreq	r4, r4, r4, lsr #32
87804c0c:	00000018 	andeq	r0, r0, r8, lsl r0
87804c10:	4021801f 	eormi	r8, r1, pc, lsl r0
87804c14:	e0204021 	eor	r4, r0, r1, lsr #32
87804c18:	0000a01f 	andeq	sl, r0, pc, lsl r0
87804c1c:	c03f4020 	eorsgt	r4, pc, r0, lsr #32
87804c20:	00264024 	eoreq	r4, r6, r4, lsr #32
87804c24:	4000c019 	andmi	ip, r0, r9, lsl r0
87804c28:	4024c018 	eormi	ip, r4, r8, lsl r0
87804c2c:	40224024 	eormi	r4, r2, r4, lsr #32
87804c30:	00008031 	andeq	r8, r0, r1, lsr r0
87804c34:	40200030 	eormi	r0, r0, r0, lsr r0
87804c38:	4020c03f 	eormi	ip, r0, pc, lsr r0
87804c3c:	00000030 	andeq	r0, r0, r0, lsr r0
87804c40:	803f0020 	eorshi	r0, pc, r0, lsr #32
87804c44:	40004000 	andmi	r4, r0, r0
87804c48:	0020803f 	eoreq	r8, r0, pc, lsr r0
87804c4c:	003e0020 	eorseq	r0, lr, r0, lsr #32
87804c50:	0007c001 	andeq	ip, r7, r1
87804c54:	00200038 	eoreq	r0, r0, r8, lsr r0
87804c58:	c0070038 	andgt	r0, r7, r8, lsr r0
87804c5c:	c007003c 	andgt	r0, r7, ip, lsr r0
87804c60:	00000038 	andeq	r0, r0, r8, lsr r0
87804c64:	c0394020 	eorsgt	r4, r9, r0, lsr #32
87804c68:	c0390006 	eorsgt	r0, r9, r6
87804c6c:	00004020 	andeq	r4, r0, r0, lsr #32
87804c70:	40380020 	eorsmi	r0, r8, r0, lsr #32
87804c74:	4038c007 	eorsmi	ip, r8, r7
87804c78:	00000020 	andeq	r0, r0, r0, lsr #32
87804c7c:	c0214030 	eorgt	r4, r1, r0, lsr r0
87804c80:	40384026 	eorsmi	r4, r8, r6, lsr #32
87804c84:	0000c020 	andeq	ip, r0, r0, lsr #32
87804c88:	00000000 	andeq	r0, r0, r0
87804c8c:	2040e07f 	subcs	lr, r0, pc, ror r0
87804c90:	00002040 	andeq	r2, r0, r0, asr #32
87804c94:	00700000 	rsbseq	r0, r0, r0
87804c98:	8003000c 	andhi	r0, r3, ip
87804c9c:	00004000 	andeq	r4, r0, r0
87804ca0:	20400000 	subcs	r0, r0, r0
87804ca4:	e07f2040 	rsbs	r2, pc, r0, asr #32
87804ca8:	00000000 	andeq	r0, r0, r0
87804cac:	00200000 	eoreq	r0, r0, r0
87804cb0:	00200040 	eoreq	r0, r0, r0, asr #32
87804cb4:	00000000 	andeq	r0, r0, r0
87804cb8:	10001000 	andne	r1, r0, r0
87804cbc:	10001000 	andne	r1, r0, r0
87804cc0:	10001000 	andne	r1, r0, r0
87804cc4:	00000000 	andeq	r0, r0, r0
87804cc8:	00000040 	andeq	r0, r0, r0, asr #32
87804ccc:	00000000 	andeq	r0, r0, r0
87804cd0:	80020000 	andhi	r0, r2, r0
87804cd4:	40054005 	andmi	r4, r5, r5
87804cd8:	4000c003 	andmi	ip, r0, r3
87804cdc:	c03f0020 	eorsgt	r0, pc, r0, lsr #32
87804ce0:	40044004 	andmi	r4, r4, r4
87804ce4:	00008003 	andeq	r8, r0, r3
87804ce8:	80030000 	andhi	r0, r3, r0
87804cec:	40044004 	andmi	r4, r4, r4
87804cf0:	00004006 	andeq	r4, r0, r6
87804cf4:	80030000 	andhi	r0, r3, r0
87804cf8:	40244004 	eormi	r4, r4, r4
87804cfc:	4000c03f 	andmi	ip, r0, pc, lsr r0
87804d00:	80030000 	andhi	r0, r3, r0
87804d04:	40054005 	andmi	r4, r5, r5
87804d08:	00004003 	andeq	r4, r0, r3
87804d0c:	40040000 	andmi	r0, r4, r0
87804d10:	4024c01f 	eormi	ip, r4, pc, lsl r0
87804d14:	00204024 	eoreq	r4, r0, r4, lsr #32
87804d18:	e0020000 	and	r0, r2, r0
87804d1c:	50055005 	andpl	r5, r5, r5
87804d20:	20045006 	andcs	r5, r4, r6
87804d24:	c03f4020 	eorsgt	r4, pc, r0, lsr #32
87804d28:	00044004 	andeq	r4, r4, r4
87804d2c:	4000c003 	andmi	ip, r0, r3
87804d30:	40040000 	andmi	r0, r4, r0
87804d34:	4000c027 	andmi	ip, r0, r7, lsr #32
87804d38:	00000000 	andeq	r0, r0, r0
87804d3c:	10001000 	andne	r1, r0, r0
87804d40:	e0271004 	eor	r1, r7, r4
87804d44:	00000000 	andeq	r0, r0, r0
87804d48:	c03f4020 	eorsgt	r4, pc, r0, lsr #32
87804d4c:	00074001 	andeq	r4, r7, r1
87804d50:	4004c004 	andmi	ip, r4, r4
87804d54:	40204020 	eormi	r4, r0, r0, lsr #32
87804d58:	4000c03f 	andmi	ip, r0, pc, lsr r0
87804d5c:	00004000 	andeq	r4, r0, r0
87804d60:	0004c007 	andeq	ip, r4, r7
87804d64:	0004c007 	andeq	ip, r4, r7
87804d68:	0000c003 	andeq	ip, r0, r3
87804d6c:	c0074004 	andgt	r4, r7, r4
87804d70:	00044004 	andeq	r4, r4, r4
87804d74:	4000c003 	andmi	ip, r0, r3
87804d78:	80030000 	andhi	r0, r3, r0
87804d7c:	40044004 	andmi	r4, r4, r4
87804d80:	00008003 	andeq	r8, r0, r3
87804d84:	f0071004 			; <UNDEFINED> instruction: 0xf0071004
87804d88:	40045004 	andmi	r5, r4, r4
87804d8c:	00008003 	andeq	r8, r0, r3
87804d90:	80030000 	andhi	r0, r3, r0
87804d94:	50044004 	andpl	r4, r4, r4
87804d98:	1000f007 	andne	pc, r0, r7
87804d9c:	c0074004 	andgt	r4, r7, r4
87804da0:	00044002 	andeq	r4, r4, r2
87804da4:	00000004 	andeq	r0, r0, r4
87804da8:	40060000 	andmi	r0, r6, r0
87804dac:	40054005 	andmi	r4, r5, r5
87804db0:	0000c004 	andeq	ip, r0, r4
87804db4:	00040000 	andeq	r0, r4, r0
87804db8:	4004801f 	andmi	r8, r4, pc, lsl r0
87804dbc:	00004000 	andeq	r4, r0, r0
87804dc0:	80070004 	andhi	r0, r7, r4
87804dc4:	40044000 	andmi	r4, r4, r0
87804dc8:	4000c007 	andmi	ip, r0, r7
87804dcc:	00070004 	andeq	r0, r7, r4
87804dd0:	8001c004 	andhi	ip, r1, r4
87804dd4:	00040006 	andeq	r0, r4, r6
87804dd8:	c0010006 	andgt	r0, r1, r6
87804ddc:	c0010007 	andgt	r0, r1, r7
87804de0:	00000006 	andeq	r0, r0, r6
87804de4:	c0064004 	andgt	r4, r6, r4
87804de8:	c0060001 	andgt	r0, r6, r1
87804dec:	00004004 	andeq	r4, r0, r4
87804df0:	10071004 	andne	r1, r7, r4
87804df4:	8001e004 	andhi	lr, r1, r4
87804df8:	00040006 	andeq	r0, r4, r6
87804dfc:	40040000 	andmi	r0, r4, r0
87804e00:	4006c005 	andmi	ip, r6, r5
87804e04:	00004004 	andeq	r4, r0, r4
87804e08:	00000000 	andeq	r0, r0, r0
87804e0c:	e07b0004 	rsbs	r0, fp, r4
87804e10:	00002040 	andeq	r2, r0, r0, asr #32
87804e14:	00000000 	andeq	r0, r0, r0
87804e18:	f0ff0000 			; <UNDEFINED> instruction: 0xf0ff0000
87804e1c:	00000000 	andeq	r0, r0, r0
87804e20:	20400000 	subcs	r0, r0, r0
87804e24:	0004e07b 	andeq	lr, r4, fp, ror r0
87804e28:	00000000 	andeq	r0, r0, r0
87804e2c:	00800040 	addeq	r0, r0, r0, asr #32
87804e30:	00200040 	eoreq	r0, r0, r0, asr #32
87804e34:	00400020 	subeq	r0, r0, r0, lsr #32

87804e38 <asc2_2412>:
	...
87804e68:	0f000000 	svceq	0x00000000
87804e6c:	fe0f3880 	cdp2	8, 0, cr3, cr15, cr0, {4}
87804e70:	38800f38 	stmcc	r0, {r3, r4, r5, r8, r9, sl, fp}
	...
87804e84:	00010000 	andeq	r0, r1, r0
87804e88:	00000600 	andeq	r0, r0, r0, lsl #12
87804e8c:	3800000c 	stmdacc	r0, {r2, r3}
87804e90:	00310000 	eorseq	r0, r1, r0
87804e94:	00000600 	andeq	r0, r0, r0, lsl #12
87804e98:	3800000c 	stmdacc	r0, {r2, r3}
87804e9c:	00300000 	eorseq	r0, r0, r0
	...
87804ea8:	67008061 	strvs	r8, [r0, -r1, rrx]
87804eac:	80f907f8 	ldrshthi	r0, [r9], #120	; 0x78
87804eb0:	00806100 	addeq	r6, r0, r0, lsl #2
87804eb4:	61008061 	tstvs	r0, r1, rrx
87804eb8:	80610080 	rsbhi	r0, r1, r0, lsl #1
87804ebc:	07f86700 	ldrbeq	r6, [r8, r0, lsl #14]!
87804ec0:	610080f9 	strdvs	r8, [r0, -r9]
87804ec4:	00000080 	andeq	r0, r0, r0, lsl #1
87804ec8:	00000000 	andeq	r0, r0, r0
87804ecc:	c0010000 	andgt	r0, r1, r0
87804ed0:	f0e003e0 			; <UNDEFINED> instruction: 0xf0e003e0
87804ed4:	04083006 	streq	r3, [r8], #-6
87804ed8:	ff1f0818 			; <UNDEFINED> instruction: 0xff1f0818
87804edc:	080e04fe 	stmdaeq	lr, {r1, r2, r3, r4, r5, r6, r7, sl}
87804ee0:	03f08707 	mvnseq	r8, #1835008	; 0x1c0000
87804ee4:	0000e081 	andeq	lr, r0, r1, lsl #1
87804ee8:	00000000 	andeq	r0, r0, r0
87804eec:	0600f001 	streq	pc, [r0], -r1
87804ef0:	0404000c 	streq	r0, [r4], #-12
87804ef4:	700c0608 	andvc	r0, ip, r8, lsl #12
87804ef8:	00c0f901 	sbceq	pc, r0, r1, lsl #18
87804efc:	3b00000e 	blcc	87804f3c <asc2_2412+0x104>
87804f00:	18ec00e0 	stmiane	ip!, {r5, r6, r7}^
87804f04:	04080807 	streq	r0, [r8], #-2055	; 0x807
87804f08:	0300180c 	movweq	r1, #2060	; 0x80c
87804f0c:	000000e0 	andeq	r0, r0, r0, ror #1
87804f10:	00e00100 	rsceq	r0, r0, r0, lsl #2
87804f14:	f803f007 			; <UNDEFINED> instruction: 0xf803f007
87804f18:	081c0418 	ldmdaeq	ip, {r3, r4, sl}
87804f1c:	07081704 	streq	r1, [r8, -r4, lsl #14]
87804f20:	c003d0e1 	andgt	sp, r3, r1, ror #1
87804f24:	b02300e0 	eorlt	r0, r3, r0, ror #1
87804f28:	00083c00 	andeq	r3, r8, r0, lsl #24
87804f2c:	00000820 	andeq	r0, r0, r0, lsr #16
87804f30:	00000010 	andeq	r0, r0, r0, lsl r0
87804f34:	01000000 	mrseq	r0, (UNDEF: 0)
87804f38:	00310000 	eorseq	r0, r1, r0
87804f3c:	00003200 	andeq	r3, r0, r0, lsl #4
87804f40:	0000001c 	andeq	r0, r0, ip, lsl r0
	...
87804f68:	ff01007f 			; <UNDEFINED> instruction: 0xff01007f
87804f6c:	f08007c0 			; <UNDEFINED> instruction: 0xf08007c0
87804f70:	1018000c 	andsne	r0, r8, ip
87804f74:	00200400 	eoreq	r0, r0, r0, lsl #8
87804f78:	00000002 	andeq	r0, r0, r2
87804f7c:	20000000 	andcs	r0, r0, r0
87804f80:	00100200 	andseq	r0, r0, r0, lsl #4
87804f84:	18000c04 	stmdane	r0, {r2, sl, fp}
87804f88:	01f08007 	mvnseq	r8, r7
87804f8c:	7f00c0ff 	svcvc	0x0000c0ff
	...
87804fa4:	66000042 	strvs	r0, [r0], -r2, asr #32
87804fa8:	00660000 	rsbeq	r0, r6, r0
87804fac:	00003c00 	andeq	r3, r0, r0, lsl #24
87804fb0:	ff030018 			; <UNDEFINED> instruction: 0xff030018
87804fb4:	001800c0 	andseq	r0, r8, r0, asr #1
87804fb8:	00003c00 	andeq	r3, r0, r0, lsl #24
87804fbc:	66000066 	strvs	r0, [r0], -r6, rrx
87804fc0:	00420000 	subeq	r0, r2, r0
87804fc4:	00000000 	andeq	r0, r0, r0
87804fc8:	08000008 	stmdaeq	r0, {r3}
87804fcc:	00080000 	andeq	r0, r8, r0
87804fd0:	00000800 	andeq	r0, r0, r0, lsl #16
87804fd4:	ff010008 			; <UNDEFINED> instruction: 0xff010008
87804fd8:	000800c0 	andeq	r0, r8, r0, asr #1
87804fdc:	00000800 	andeq	r0, r0, r0, lsl #16
87804fe0:	08000008 	stmdaeq	r0, {r3}
87804fe4:	00080000 	andeq	r0, r8, r0
87804fe8:	00000000 	andeq	r0, r0, r0
87804fec:	00000100 	andeq	r0, r0, r0, lsl #2
87804ff0:	32000031 	andcc	r0, r0, #49	; 0x31
87804ff4:	001c0000 	andseq	r0, ip, r0
	...
87805010:	08000008 	stmdaeq	r0, {r3}
87805014:	00080000 	andeq	r0, r8, r0
87805018:	00000800 	andeq	r0, r0, r0, lsl #16
8780501c:	08000008 	stmdaeq	r0, {r3}
87805020:	00080000 	andeq	r0, r8, r0
87805024:	00000800 	andeq	r0, r0, r0, lsl #16
87805028:	08000008 	stmdaeq	r0, {r3}
	...
87805038:	38000038 	stmdacc	r0, {r3, r4, r5}
8780503c:	00380000 	eorseq	r0, r8, r0
	...
87805058:	00000600 	andeq	r0, r0, r0, lsl #12
8780505c:	7000001c 	andvc	r0, r0, ip, lsl r0
87805060:	00800100 	addeq	r0, r0, r0, lsl #2
87805064:	3800000e 	stmdacc	r0, {r1, r2, r3}
87805068:	00c00000 	sbceq	r0, r0, r0
8780506c:	1c000007 	stcne	0, cr0, [r0], {7}
87805070:	00300000 	eorseq	r0, r0, r0
	...
8780507c:	ff01807f 			; <UNDEFINED> instruction: 0xff01807f
87805080:	708003e0 	addvc	r0, r0, r0, ror #7
87805084:	04180006 	ldreq	r0, [r8], #-6
87805088:	00040800 	andeq	r0, r4, r0, lsl #16
8780508c:	18000608 	stmdane	r0, {r3, r9, sl}
87805090:	01708003 	cmneq	r0, r3
87805094:	7f00e0ff 	svcvc	0x0000e0ff
87805098:	00000080 	andeq	r0, r0, r0, lsl #1
8780509c:	00000000 	andeq	r0, r0, r0
878050a0:	00010000 	andeq	r0, r1, r0
878050a4:	08000108 	stmdaeq	r0, {r3, r8}
878050a8:	03080001 	movweq	r0, #32769	; 0x8001
878050ac:	ff07f8ff 			; <UNDEFINED> instruction: 0xff07f8ff
878050b0:	080000f8 	stmdaeq	r0, {r3, r4, r5, r6, r7}
878050b4:	00080000 	andeq	r0, r8, r0
878050b8:	00000800 	andeq	r0, r0, r0, lsl #16
878050bc:	00000000 	andeq	r0, r0, r0
878050c0:	01000000 	mrseq	r0, (UNDEF: 0)
878050c4:	c00238c0 	andgt	r3, r2, r0, asr #17
878050c8:	98000458 	stmdals	r0, {r3, r4, r6, sl}
878050cc:	04180104 	ldreq	r0, [r8], #-260	; 0x104
878050d0:	04041802 	streq	r1, [r4], #-2050	; 0x802
878050d4:	181c0618 	ldmdane	ip, {r3, r4, r9, sl}
878050d8:	0118f803 	tsteq	r8, r3, lsl #16
878050dc:	0000f8e0 	andeq	pc, r0, r0, ror #17
878050e0:	00000000 	andeq	r0, r0, r0
878050e4:	01000000 	mrseq	r0, (UNDEF: 0)
878050e8:	c003e0c0 	andgt	lr, r3, r0, asr #1
878050ec:	080004f0 	stmdaeq	r0, {r4, r5, r6, r7, sl}
878050f0:	04080804 	streq	r0, [r8], #-2052	; 0x804
878050f4:	18060808 	stmdane	r6, {r3, fp}
878050f8:	18f40308 	ldmne	r4!, {r3, r8, r9}^
878050fc:	00f0e701 	rscseq	lr, r0, r1, lsl #14
87805100:	0000e001 	andeq	lr, r0, r1
	...
8780510c:	0d000003 	stceq	0, cr0, [r0, #-12]
87805110:	00110000 	andseq	r0, r1, r0
87805114:	00006100 	andeq	r6, r0, r0, lsl #2
87805118:	01030881 	smlabbeq	r3, r1, r8, r0
8780511c:	f8ff0708 			; <UNDEFINED> instruction: 0xf8ff0708
87805120:	00f8ff0f 	rscseq	pc, r8, pc, lsl #30
87805124:	01000801 	tsteq	r0, r1, lsl #16
87805128:	00000008 	andeq	r0, r0, r8
8780512c:	00000000 	andeq	r0, r0, r0
87805130:	fc07e000 	stc2	0, cr14, [r7], {-0}
87805134:	080806d0 	stmdaeq	r8, {r4, r6, r7, r9, sl}
87805138:	06081006 	streq	r1, [r8], -r6
8780513c:	10060810 	andne	r0, r6, r0, lsl r8
87805140:	38180608 	ldmdacc	r8, {r3, r9, sl}
87805144:	06f00f06 	ldrbteq	r0, [r0], r6, lsl #30
87805148:	0000c007 	andeq	ip, r0, r7
	...
87805154:	ff01803f 			; <UNDEFINED> instruction: 0xff01803f
87805158:	308403e0 	addcc	r0, r4, r0, ror #7
8780515c:	04180802 	ldreq	r0, [r8], #-2050	; 0x802
87805160:	10040810 	andne	r0, r4, r0, lsl r8
87805164:	08100408 	ldmdaeq	r0, {r3, sl}
87805168:	03101807 	tsteq	r0, #458752	; 0x70000
8780516c:	0700f00f 	streq	pc, [r0, -pc]
87805170:	000000c0 	andeq	r0, r0, r0, asr #1
87805174:	00000000 	andeq	r0, r0, r0
87805178:	c0030000 	andgt	r0, r3, r0
8780517c:	00000700 	andeq	r0, r0, r0, lsl #14
87805180:	06000006 	streq	r0, [r0], -r6
87805184:	0706f800 	streq	pc, [r6, -r0, lsl #16]
87805188:	001806f8 			; <UNDEFINED> instruction: 0x001806f8
8780518c:	0700e006 	streq	lr, [r0, -r6]
87805190:	00060000 	andeq	r0, r6, r0
87805194:	00000000 	andeq	r0, r0, r0
87805198:	01000000 	mrseq	r0, (UNDEF: 0)
8780519c:	f703e0e1 			; <UNDEFINED> instruction: 0xf703e0e1
878051a0:	103406f0 	ldrshtne	r0, [r4], -r0
878051a4:	04081804 	streq	r1, [r8], #-2052	; 0x804
878051a8:	0c040818 	stceq	8, cr0, [r4], {24}
878051ac:	080c0408 	stmdaeq	ip, {r3, sl}
878051b0:	03181606 	tsteq	r8, #6291456	; 0x600000
878051b4:	c101f0f3 	strdgt	pc, [r1, -r3]
878051b8:	000000e0 	andeq	r0, r0, r0, ror #1
878051bc:	00000000 	andeq	r0, r0, r0
878051c0:	fc0300f8 	stc2	0, cr0, [r3], {248}	; 0xf8
878051c4:	38060330 	stmdacc	r6, {r4, r5, r8, r9}
878051c8:	04080204 	streq	r0, [r8], #-516	; 0x204
878051cc:	02040802 	andeq	r0, r4, #131072	; 0x20000
878051d0:	10040408 	andne	r0, r4, r8, lsl #8
878051d4:	01f00803 	mvnseq	r0, r3, lsl #16
878051d8:	7f00c0ff 	svcvc	0x0000c0ff
	...
878051f0:	70003870 	andvc	r3, r0, r0, ror r8
878051f4:	38700038 	ldmdacc	r0!, {r3, r4, r5}^
	...
87805214:	30001a30 	andcc	r1, r0, r0, lsr sl
87805218:	0000001c 	andeq	r0, r0, ip, lsl r0
	...
8780522c:	08000000 	stmdaeq	r0, {}	; <UNPREDICTABLE>
87805230:	00140000 	andseq	r0, r4, r0
87805234:	00002200 	andeq	r2, r0, r0, lsl #4
87805238:	80000041 	andhi	r0, r0, r1, asr #32
8780523c:	40000180 	andmi	r0, r0, r0, lsl #3
87805240:	04200002 	strteq	r0, [r0], #-2
87805244:	00081000 	andeq	r1, r8, r0
87805248:	00000008 	andeq	r0, r0, r8
8780524c:	00000000 	andeq	r0, r0, r0
87805250:	21000021 	tstcs	r0, r1, lsr #32
87805254:	00210000 	eoreq	r0, r1, r0
87805258:	00002100 	andeq	r2, r0, r0, lsl #2
8780525c:	21000021 	tstcs	r0, r1, lsr #32
87805260:	00210000 	eoreq	r0, r1, r0
87805264:	00002100 	andeq	r2, r0, r0, lsl #2
87805268:	21000021 	tstcs	r0, r1, lsr #32
	...
87805274:	00080000 	andeq	r0, r8, r0
87805278:	10000408 	andne	r0, r0, r8, lsl #8
8780527c:	01200002 	teqeq	r0, r2
87805280:	80004000 	andhi	r4, r0, r0
87805284:	00410080 	subeq	r0, r1, r0, lsl #1
87805288:	00002200 	andeq	r2, r0, r0, lsl #4
8780528c:	08000014 	stmdaeq	r0, {r2, r4}
87805290:	00000000 	andeq	r0, r0, r0
87805294:	03000000 	movweq	r0, #0
87805298:	c00400c0 	andgt	r0, r4, r0, asr #1
8780529c:	00000400 	andeq	r0, r0, r0, lsl #8
878052a0:	08380008 	ldmdaeq	r8!, {r3}
878052a4:	0808380f 	stmdaeq	r8, {r0, r1, r2, r3, fp, ip, sp}
878052a8:	00100838 	andseq	r0, r0, r8, lsr r8
878052ac:	0700300c 	streq	r3, [r0, -ip]
878052b0:	c00300e0 	andgt	r0, r3, r0, ror #1
	...
878052bc:	ff00803f 			; <UNDEFINED> instruction: 0xff00803f
878052c0:	708003e0 	addvc	r0, r0, r0, ror #7
878052c4:	06100f02 	ldreq	r0, [r0], -r2, lsl #30
878052c8:	c0048870 	andgt	r8, r4, r0, ror r8
878052cc:	08830488 	stmeq	r3, {r3, r7, sl}
878052d0:	02887f04 	addeq	r7, r8, #4, 30
878052d4:	010390c0 	smlabteq	r3, r0, r0, r9
878052d8:	40fe0020 	rscsmi	r0, lr, r0, lsr #32
878052dc:	00080000 	andeq	r0, r8, r0
878052e0:	01001800 	tsteq	r0, r0, lsl #16
878052e4:	083e00f8 	ldmdaeq	lr!, {r3, r4, r5, r6, r7}
878052e8:	0700c201 	streq	ip, [r0, -r1, lsl #4]
878052ec:	e2070002 	and	r0, r7, #2
878052f0:	00fe0000 	rscseq	r0, lr, r0
878052f4:	00c81f00 	sbceq	r1, r8, r0, lsl #30
878052f8:	0000f801 	andeq	pc, r0, r1, lsl #16
878052fc:	08000038 	stmdaeq	r0, {r3, r4, r5}
87805300:	07080004 	streq	r0, [r8, -r4]
87805304:	ff07f8ff 			; <UNDEFINED> instruction: 0xff07f8ff
87805308:	080804f8 	stmdaeq	r8, {r3, r4, r5, r6, r7, sl}
8780530c:	04080804 	streq	r0, [r8], #-2052	; 0x804
87805310:	08040808 	stmdaeq	r4, {r3, fp}
87805314:	08180608 	ldmdaeq	r8, {r3, r9, sl}
87805318:	0118f403 	tsteq	r8, r3, lsl #8
8780531c:	0100f0e7 	smlatteq	r0, r7, r0, pc	; <UNPREDICTABLE>
87805320:	000000e0 	andeq	r0, r0, r0, ror #1
87805324:	00000000 	andeq	r0, r0, r0
87805328:	ff01803f 			; <UNDEFINED> instruction: 0xff01803f
8780532c:	708003e0 	addvc	r0, r0, r0, ror #7
87805330:	04180002 	ldreq	r0, [r8], #-2
87805334:	00040800 	andeq	r0, r4, r0, lsl #16
87805338:	08000408 	stmdaeq	r0, {r3, sl}
8780533c:	06100004 	ldreq	r0, [r0], -r4
87805340:	80072000 	andhi	r2, r7, r0
87805344:	000000c0 	andeq	r0, r0, r0, asr #1
87805348:	07080004 	streq	r0, [r8, -r4]
8780534c:	ff07f8ff 			; <UNDEFINED> instruction: 0xff07f8ff
87805350:	080004f8 	stmdaeq	r0, {r3, r4, r5, r6, r7, sl}
87805354:	04080004 	streq	r0, [r8], #-4
87805358:	00040800 	andeq	r0, r4, r0, lsl #16
8780535c:	10000218 	andne	r0, r0, r8, lsl r2
87805360:	01708003 	cmneq	r0, r3
87805364:	7f00e0ff 	svcvc	0x0000e0ff
87805368:	00000080 	andeq	r0, r0, r0, lsl #1
8780536c:	07080004 	streq	r0, [r8, -r4]
87805370:	ff07f8ff 			; <UNDEFINED> instruction: 0xff07f8ff
87805374:	080804f8 	stmdaeq	r8, {r3, r4, r5, r6, r7, sl}
87805378:	04080804 	streq	r0, [r8], #-2052	; 0x804
8780537c:	08040808 	stmdaeq	r4, {r3, fp}
87805380:	083e0408 	ldmdaeq	lr!, {r3, sl}
87805384:	06080004 	streq	r0, [r8], -r4
87805388:	00011800 	andeq	r1, r1, r0, lsl #16
8780538c:	00000060 	andeq	r0, r0, r0, rrx
87805390:	07080004 	streq	r0, [r8, -r4]
87805394:	ff07f8ff 			; <UNDEFINED> instruction: 0xff07f8ff
87805398:	080804f8 	stmdaeq	r8, {r3, r4, r5, r6, r7, sl}
8780539c:	04000804 	streq	r0, [r0], #-2052	; 0x804
878053a0:	08040008 	stmdaeq	r4, {r3}
878053a4:	003e0400 	eorseq	r0, lr, r0, lsl #8
878053a8:	06000006 	streq	r0, [r0], -r6
878053ac:	80010000 	andhi	r0, r1, r0
	...
878053b8:	ff01803f 			; <UNDEFINED> instruction: 0xff01803f
878053bc:	708003e0 	addvc	r0, r0, r0, ror #7
878053c0:	04180006 	ldreq	r0, [r8], #-6
878053c4:	02040800 	andeq	r0, r4, #0, 16
878053c8:	08020408 	stmdaeq	r2, {r3, sl}
878053cc:	07f00302 	ldrbeq	r0, [r0, r2, lsl #6]!
878053d0:	0200f083 	andeq	pc, r0, #131	; 0x83
878053d4:	00020000 	andeq	r0, r2, r0
878053d8:	07080004 	streq	r0, [r8, -r4]
878053dc:	ff07f8ff 			; <UNDEFINED> instruction: 0xff07f8ff
878053e0:	080804f8 	stmdaeq	r8, {r3, r4, r5, r6, r7, sl}
878053e4:	00000800 	andeq	r0, r0, r0, lsl #16
878053e8:	08000008 	stmdaeq	r0, {r3}
878053ec:	00080000 	andeq	r0, r8, r0
878053f0:	07080804 	streq	r0, [r8, -r4, lsl #16]
878053f4:	ff07f8ff 			; <UNDEFINED> instruction: 0xff07f8ff
878053f8:	080004f8 	stmdaeq	r0, {r3, r4, r5, r6, r7, sl}
878053fc:	00000000 	andeq	r0, r0, r0
87805400:	00040000 	andeq	r0, r4, r0
87805404:	08000408 	stmdaeq	r0, {r3, sl}
87805408:	07080004 	streq	r0, [r8, -r4]
8780540c:	ff07f8ff 			; <UNDEFINED> instruction: 0xff07f8ff
87805410:	080004f8 	stmdaeq	r0, {r3, r4, r5, r6, r7, sl}
87805414:	04080004 	streq	r0, [r8], #-4
87805418:	00000800 	andeq	r0, r0, r0, lsl #16
	...
87805424:	00000600 	andeq	r0, r0, r0, lsl #12
87805428:	01000007 	tsteq	r0, r7
8780542c:	04010004 	streq	r0, [r1], #-4
87805430:	00040100 	andeq	r0, r4, r0, lsl #2
87805434:	feff0703 	cdp2	7, 15, cr0, cr15, cr3, {0}
87805438:	04fcff07 	ldrbteq	pc, [ip], #3847	; 0xf07	; <UNPREDICTABLE>
8780543c:	00040000 	andeq	r0, r4, r0
87805440:	00000400 	andeq	r0, r0, r0, lsl #8
87805444:	07080004 	streq	r0, [r8, -r4]
87805448:	ff07f8ff 			; <UNDEFINED> instruction: 0xff07f8ff
8780544c:	080c04f8 	stmdaeq	ip, {r3, r4, r5, r6, r7, sl}
87805450:	00001800 	andeq	r1, r0, r0, lsl #16
87805454:	c704003e 	smladxgt	r4, lr, r0, r0
87805458:	c8030580 	stmdagt	r3, {r7, r8, sl}
8780545c:	04f80006 	ldrbteq	r0, [r8], #6
87805460:	00043800 	andeq	r3, r4, r0, lsl #16
87805464:	08000018 	stmdaeq	r0, {r3, r4}
87805468:	07080004 	streq	r0, [r8, -r4]
8780546c:	ff07f8ff 			; <UNDEFINED> instruction: 0xff07f8ff
87805470:	080004f8 	stmdaeq	r0, {r3, r4, r5, r6, r7, sl}
87805474:	00080000 	andeq	r0, r8, r0
87805478:	00000800 	andeq	r0, r0, r0, lsl #16
8780547c:	08000008 	stmdaeq	r0, {r3}
87805480:	00080000 	andeq	r0, r8, r0
87805484:	00001800 	andeq	r1, r0, r0, lsl #16
87805488:	00000060 	andeq	r0, r0, r0, rrx
8780548c:	07080004 	streq	r0, [r8, -r4]
87805490:	8007f8ff 	strdhi	pc, [r7], -pc	; <UNPREDICTABLE>
87805494:	00fc0708 	rscseq	r0, ip, r8, lsl #14
87805498:	00c07f00 	sbceq	r7, r0, r0, lsl #30
8780549c:	0700f803 	streq	pc, [r0, -r3, lsl #16]
878054a0:	007800c0 	rsbseq	r0, r8, r0, asr #1
878054a4:	07088007 	streq	r8, [r8, -r7]
878054a8:	ff07f8ff 			; <UNDEFINED> instruction: 0xff07f8ff
878054ac:	080004f8 	stmdaeq	r0, {r3, r4, r5, r6, r7, sl}
878054b0:	07080004 	streq	r0, [r8, -r4]
878054b4:	0007f8ff 	strdeq	pc, [r7], -pc	; <UNPREDICTABLE>
878054b8:	00c00308 	sbceq	r0, r0, r8, lsl #6
878054bc:	0000e000 	andeq	lr, r0, r0
878054c0:	1e000038 	mcrne	0, 0, r0, cr0, cr8, {1}
878054c4:	00070000 	andeq	r0, r7, r0
878054c8:	04c00100 	strbeq	r0, [r0], #256	; 0x100
878054cc:	ff07f000 			; <UNDEFINED> instruction: 0xff07f000
878054d0:	000004f8 	strdeq	r0, [r0], -r8
878054d4:	00000000 	andeq	r0, r0, r0
878054d8:	ff01807f 			; <UNDEFINED> instruction: 0xff01807f
878054dc:	708003e0 	addvc	r0, r0, r0, ror #7
878054e0:	04180006 	ldreq	r0, [r8], #-6
878054e4:	00040800 	andeq	r0, r4, r0, lsl #16
878054e8:	18000608 	stmdane	r0, {r3, r9, sl}
878054ec:	01300003 	teqeq	r0, r3
878054f0:	7f00e0ff 	svcvc	0x0000e0ff
878054f4:	00000080 	andeq	r0, r0, r0, lsl #1
878054f8:	07080004 	streq	r0, [r8, -r4]
878054fc:	ff07f8ff 			; <UNDEFINED> instruction: 0xff07f8ff
87805500:	080404f8 	stmdaeq	r4, {r3, r4, r5, r6, r7, sl}
87805504:	04000404 	streq	r0, [r0], #-1028	; 0x404
87805508:	04040004 	streq	r0, [r4], #-4
8780550c:	00040400 	andeq	r0, r4, r0, lsl #8
87805510:	03000c06 	movweq	r0, #3078	; 0xc06
87805514:	f00100f8 			; <UNDEFINED> instruction: 0xf00100f8
	...
87805520:	ff01807f 			; <UNDEFINED> instruction: 0xff01807f
87805524:	708003e0 	addvc	r0, r0, r0, ror #7
87805528:	04880006 	streq	r0, [r8], #6
8780552c:	00048800 	andeq	r8, r4, r0, lsl #16
87805530:	3c0006c8 	stccc	6, cr0, [r0], {200}	; 0xc8
87805534:	013e0003 	teqeq	lr, r3
87805538:	7f00e6ff 	svcvc	0x0000e6ff
8780553c:	00000084 	andeq	r0, r0, r4, lsl #1
87805540:	07080004 	streq	r0, [r8, -r4]
87805544:	ff07f8ff 			; <UNDEFINED> instruction: 0xff07f8ff
87805548:	080804f8 	stmdaeq	r8, {r3, r4, r5, r6, r7, sl}
8780554c:	04000804 	streq	r0, [r0], #-2052	; 0x804
87805550:	0f04000c 	svceq	0x0004000c
87805554:	c00b0400 	andgt	r0, fp, r0, lsl #8
87805558:	03f01006 	mvnseq	r1, #6
8780555c:	e00138f0 	strd	r3, [r1], -r0
87805560:	08000008 	stmdaeq	r0, {r3}
87805564:	01000000 	mrseq	r0, (UNDEF: 0)
87805568:	f003f8e0 			; <UNDEFINED> instruction: 0xf003f8e0
8780556c:	10300630 	eorsne	r0, r0, r0, lsr r6
87805570:	04081804 	streq	r1, [r8], #-2052	; 0x804
87805574:	0c040818 	stceq	8, cr0, [r4], {24}
87805578:	080c0408 	stmdaeq	ip, {r3, sl}
8780557c:	02180602 	andseq	r0, r8, #2097152	; 0x200000
87805580:	8107f007 	tsthi	r7, r7
87805584:	000000e0 	andeq	r0, r0, r0, ror #1
87805588:	06008001 	streq	r8, [r0], -r1
8780558c:	00040000 	andeq	r0, r4, r0
87805590:	00000400 	andeq	r0, r0, r0, lsl #8
87805594:	07080004 	streq	r0, [r8, -r4]
87805598:	ff07f8ff 			; <UNDEFINED> instruction: 0xff07f8ff
8780559c:	080004f8 	stmdaeq	r0, {r3, r4, r5, r6, r7, sl}
878055a0:	04000004 	streq	r0, [r0], #-4
878055a4:	00060000 	andeq	r0, r6, r0
878055a8:	00800100 	addeq	r0, r0, r0, lsl #2
878055ac:	07000004 	streq	r0, [r0, -r4]
878055b0:	ff07e0ff 			; <UNDEFINED> instruction: 0xff07e0ff
878055b4:	180004f0 	stmdane	r0, {r4, r5, r6, r7, sl}
878055b8:	00080000 	andeq	r0, r8, r0
878055bc:	00000800 	andeq	r0, r0, r0, lsl #16
878055c0:	08000008 	stmdaeq	r0, {r3}
878055c4:	04080000 	streq	r0, [r8], #-0
878055c8:	ff071000 			; <UNDEFINED> instruction: 0xff071000
878055cc:	000004e0 	andeq	r0, r0, r0, ror #9
878055d0:	06000004 	streq	r0, [r0], -r4
878055d4:	e0070000 	and	r0, r7, r0
878055d8:	00fe0700 	rscseq	r0, lr, r0, lsl #14
878055dc:	00e01f04 	rsceq	r1, r0, r4, lsl #30
878055e0:	0000f801 	andeq	pc, r0, r1, lsl #16
878055e4:	e0010038 	and	r0, r1, r8, lsr r0
878055e8:	07003e04 	streq	r3, [r0, -r4, lsl #28]
878055ec:	000600c0 	andeq	r0, r6, r0, asr #1
878055f0:	00000400 	andeq	r0, r0, r0, lsl #8
878055f4:	07000004 	streq	r0, [r0, -r4]
878055f8:	ff0700e0 			; <UNDEFINED> instruction: 0xff0700e0
878055fc:	f81f04c0 			; <UNDEFINED> instruction: 0xf81f04c0
87805600:	07c00700 	strbeq	r0, [r0, r0, lsl #14]
87805604:	ff0700f8 			; <UNDEFINED> instruction: 0xff0700f8
87805608:	f83f0480 			; <UNDEFINED> instruction: 0xf83f0480
8780560c:	04c00700 	strbeq	r0, [r0], #1792	; 0x700
87805610:	000700f8 	strdeq	r0, [r7], -r8
87805614:	00000400 	andeq	r0, r0, r0, lsl #8
87805618:	04000000 	streq	r0, [r0], #-0
8780561c:	00060800 	andeq	r0, r6, r0, lsl #16
87805620:	78c00718 	stmiavc	r0, {r3, r4, r8, r9, sl}^
87805624:	00c8f105 	sbceq	pc, r8, r5, lsl #2
87805628:	1f00003e 	svcne	0x0000003e
8780562c:	e8630480 	stmda	r3!, {r7, sl}^
87805630:	06f88007 	ldrbteq	r8, [r8], r7
87805634:	00041800 	andeq	r1, r4, r0, lsl #16
87805638:	00000008 	andeq	r0, r0, r8
8780563c:	06000004 	streq	r0, [r0], -r4
87805640:	80070000 	andhi	r0, r7, r0
87805644:	08e00700 	stmiaeq	r0!, {r8, r9, sl}^
87805648:	00087c04 	andeq	r7, r8, r4, lsl #24
8780564c:	0700f81f 	smuadeq	r0, pc, r8	; <UNPREDICTABLE>
87805650:	081800f8 	ldmdaeq	r8, {r3, r4, r5, r6, r7}
87805654:	0708e004 	streq	lr, [r8, -r4]
87805658:	00060000 	andeq	r0, r6, r0
8780565c:	00000400 	andeq	r0, r0, r0, lsl #8
87805660:	01000000 	mrseq	r0, (UNDEF: 0)
87805664:	00060800 	andeq	r0, r6, r0, lsl #16
87805668:	f8000438 			; <UNDEFINED> instruction: 0xf8000438
8780566c:	04e80304 	strbteq	r0, [r8], #772	; 0x304
87805670:	7c04080f 	stcvc	8, cr0, [r4], {15}
87805674:	08f00508 	ldmeq	r0!, {r3, r8, sl}^
87805678:	0708c007 	streq	ip, [r8, -r7]
8780567c:	00041800 	andeq	r1, r4, r0, lsl #16
87805680:	00000060 	andeq	r0, r0, r0, rrx
	...
87805690:	3f000000 	svccc	0x00000000
87805694:	0020feff 	strdeq	pc, [r0], -pc	; <UNPREDICTABLE>
87805698:	02002002 	andeq	r2, r0, #2
8780569c:	20020020 	andcs	r0, r2, r0, lsr #32
878056a0:	00200200 	eoreq	r0, r0, r0, lsl #4
878056a4:	00000002 	andeq	r0, r0, r2
878056a8:	00000000 	andeq	r0, r0, r0
878056ac:	00080000 	andeq	r0, r8, r0
878056b0:	00000700 	andeq	r0, r0, r0, lsl #14
878056b4:	0000c000 	andeq	ip, r0, r0
878056b8:	06000038 			; <UNDEFINED> instruction: 0x06000038
878056bc:	c0010000 	andgt	r0, r1, r0
878056c0:	00300000 	eorseq	r0, r0, r0
878056c4:	00000e00 	andeq	r0, r0, r0, lsl #28
878056c8:	00000001 	andeq	r0, r0, r1
878056cc:	00000000 	andeq	r0, r0, r0
878056d0:	00200000 	eoreq	r0, r0, r0
878056d4:	02002002 	andeq	r2, r0, #2
878056d8:	20020020 	andcs	r0, r2, r0, lsr #32
878056dc:	00200200 	eoreq	r0, r0, r0, lsl #4
878056e0:	feff3f02 	cdp2	15, 15, cr3, cr15, cr2, {0}
	...
878056f8:	00000800 	andeq	r0, r0, r0, lsl #16
878056fc:	30000010 	andcc	r0, r0, r0, lsl r0
87805700:	00200000 	eoreq	r0, r0, r0
87805704:	00003000 	andeq	r3, r0, r0
87805708:	08000010 	stmdaeq	r0, {r4}
	...
87805714:	00010000 	andeq	r0, r1, r0
87805718:	00000100 	andeq	r0, r0, r0, lsl #2
8780571c:	01000001 	tsteq	r0, r1
87805720:	00010000 	andeq	r0, r1, r0
87805724:	00000100 	andeq	r0, r0, r0, lsl #2
87805728:	01000001 	tsteq	r0, r1
8780572c:	00010000 	andeq	r0, r1, r0
87805730:	00000100 	andeq	r0, r0, r0, lsl #2
87805734:	01000001 	tsteq	r0, r1
	...
87805740:	00002000 	andeq	r2, r0, r0
87805744:	10000020 	andne	r0, r0, r0, lsr #32
87805748:	00100000 	andseq	r0, r0, r0
	...
87805760:	1900f000 	stmdbne	r0, {ip, sp, lr, pc}
87805764:	181b00f8 	ldmdane	fp, {r3, r4, r5, r6, r7}
87805768:	00082200 	andeq	r2, r8, r0, lsl #4
8780576c:	24000826 	strcs	r0, [r0], #-2086	; 0x826
87805770:	10240008 	eorne	r0, r4, r8
87805774:	00f83f00 	rscseq	r3, r8, r0, lsl #30
87805778:	0000f81f 	andeq	pc, r0, pc, lsl r8	; <UNPREDICTABLE>
8780577c:	18000008 	stmdane	r0, {r3}
87805780:	04000000 	streq	r0, [r0], #-0
87805784:	ff070000 			; <UNDEFINED> instruction: 0xff070000
87805788:	f0ff0ff8 			; <UNDEFINED> instruction: 0xf0ff0ff8
8780578c:	00181800 	andseq	r1, r8, r0, lsl #16
87805790:	20000810 	andcs	r0, r0, r0, lsl r8
87805794:	08200008 	stmdaeq	r0!, {r3}
87805798:	00183000 	andseq	r3, r8, r0
8780579c:	0f00f01f 	svceq	0x0000f01f
878057a0:	000000c0 	andeq	r0, r0, r0, asr #1
878057a4:	00000000 	andeq	r0, r0, r0
878057a8:	1f00c007 	svcne	0x0000c007
878057ac:	301800f0 	ldrshcc	r0, [r8], -r0	; <UNPREDICTABLE>
878057b0:	00082000 	andeq	r2, r8, r0
878057b4:	20000820 	andcs	r0, r0, r0, lsr #16
878057b8:	083c0008 	ldmdaeq	ip!, {r3}
878057bc:	00101c00 	andseq	r1, r0, r0, lsl #24
878057c0:	00006000 	andeq	r6, r0, r0
	...
878057cc:	1f00c007 	svcne	0x0000c007
878057d0:	183800f0 	ldmdane	r8!, {r4, r5, r6, r7}
878057d4:	00082000 	andeq	r2, r8, r0
878057d8:	20000820 	andcs	r0, r0, r0, lsr #16
878057dc:	10100408 	andsne	r0, r0, r8, lsl #8
878057e0:	0ff8ff07 	svceq	0x00f8ff07
878057e4:	0000f0ff 	strdeq	pc, [r0], -pc	; <UNPREDICTABLE>
878057e8:	00000010 	andeq	r0, r0, r0, lsl r0
878057ec:	00000000 	andeq	r0, r0, r0
878057f0:	07000000 	streq	r0, [r0, -r0]
878057f4:	f01f00c0 			; <UNDEFINED> instruction: 0xf01f00c0
878057f8:	00301200 	eorseq	r1, r0, r0, lsl #4
878057fc:	22001822 	andcs	r1, r0, #2228224	; 0x220000
87805800:	08220008 	stmdaeq	r2!, {r3}
87805804:	00083200 	andeq	r3, r8, r0, lsl #4
87805808:	0e00101e 	mcreq	0, 0, r1, cr0, cr14, {0}
8780580c:	00000020 	andeq	r0, r0, r0, lsr #32
87805810:	00000000 	andeq	r0, r0, r0
87805814:	20000020 	andcs	r0, r0, r0, lsr #32
87805818:	08200008 	stmdaeq	r0!, {r3}
8780581c:	03f8ff01 	mvnseq	pc, #1, 30
87805820:	2006f8ff 	strdcs	pc, [r6], -pc	; <UNPREDICTABLE>
87805824:	08200408 	stmdaeq	r0!, {r3, sl}
87805828:	07082004 	streq	r2, [r8, -r4]
8780582c:	00030020 	andeq	r0, r3, r0, lsr #32
	...
87805838:	0e000e00 	cdpeq	14, 0, cr0, cr0, cr0, {0}
8780583c:	f31f006e 	vhadd.u16	q0, <illegal reg q7.5>, q15
87805840:	00b13100 	adcseq	r3, r1, r0, lsl #2
87805844:	2000b120 	andcs	fp, r0, r0, lsr #2
87805848:	913100b1 	ldrhls	r0, [r1, -r1]!
8780584c:	00131f00 	andseq	r1, r3, r0, lsl #30
87805850:	20001e2e 	andcs	r1, r0, lr, lsr #28
87805854:	0030000e 	eorseq	r0, r0, lr
87805858:	04000000 	streq	r0, [r0], #-0
8780585c:	ff070800 			; <UNDEFINED> instruction: 0xff070800
87805860:	f8ff0ff8 			; <UNDEFINED> instruction: 0xf8ff0ff8
87805864:	00081000 	andeq	r1, r8, r0
87805868:	20000020 	andcs	r0, r0, r0, lsr #32
8780586c:	08200000 	stmdaeq	r0!, {}	; <UNPREDICTABLE>
87805870:	00f83f00 	rscseq	r3, r8, r0, lsl #30
87805874:	0000f81f 	andeq	pc, r0, pc, lsl r8	; <UNPREDICTABLE>
87805878:	00000008 	andeq	r0, r0, r8
8780587c:	00000000 	andeq	r0, r0, r0
87805880:	20000000 	andcs	r0, r0, r0
87805884:	08200008 	stmdaeq	r0!, {r3}
87805888:	06082000 	streq	r2, [r8], -r0
8780588c:	3f06f83f 	svccc	0x0006f83f
87805890:	080000f8 	stmdaeq	r0, {r3, r4, r5, r6, r7}
87805894:	00080000 	andeq	r0, r8, r0
87805898:	00000800 	andeq	r0, r0, r0, lsl #16
	...
878058a8:	03000003 	movweq	r0, #3
878058ac:	00012000 	andeq	r2, r1, r0
878058b0:	20000120 	andcs	r0, r0, r0, lsr #2
878058b4:	fe3f0603 	cdp2	6, 3, cr0, cr15, cr3, {0}
878058b8:	00fc3f06 	rscseq	r3, ip, r6, lsl #30
	...
878058c4:	04000000 	streq	r0, [r0], #-0
878058c8:	ff070800 			; <UNDEFINED> instruction: 0xff070800
878058cc:	f8ff0ff8 			; <UNDEFINED> instruction: 0xf8ff0ff8
878058d0:	00880100 	addeq	r0, r8, r0, lsl #2
878058d4:	2f000003 	svccs	0x00000003
878058d8:	f83800c0 			; <UNDEFINED> instruction: 0xf83800c0
878058dc:	00382000 	eorseq	r2, r8, r0
878058e0:	00000820 	andeq	r0, r0, r0, lsr #16
878058e4:	00000008 	andeq	r0, r0, r8
878058e8:	00000000 	andeq	r0, r0, r0
878058ec:	00040000 	andeq	r0, r4, r0
878058f0:	08000408 	stmdaeq	r0, {r3, sl}
878058f4:	07080004 	streq	r0, [r8, -r4]
878058f8:	ff0ff8ff 			; <UNDEFINED> instruction: 0xff0ff8ff
878058fc:	080000f8 	stmdaeq	r0, {r3, r4, r5, r6, r7}
87805900:	00080000 	andeq	r0, r8, r0
87805904:	00000800 	andeq	r0, r0, r0, lsl #16
87805908:	00000000 	andeq	r0, r0, r0
8780590c:	00082000 	andeq	r2, r8, r0
87805910:	3f00f83f 	svccc	0x0000f83f
87805914:	081000f8 	ldmdaeq	r0, {r3, r4, r5, r6, r7}
87805918:	00002000 	andeq	r2, r0, r0
8780591c:	3f00f83f 	svccc	0x0000f83f
87805920:	081000f8 	ldmdaeq	r0, {r3, r4, r5, r6, r7}
87805924:	00002000 	andeq	r2, r0, r0
87805928:	3f00f83f 	svccc	0x0000f83f
8780592c:	080000f8 	stmdaeq	r0, {r3, r4, r5, r6, r7}
87805930:	00000000 	andeq	r0, r0, r0
87805934:	3f000820 	svccc	0x00000820
87805938:	f83f00f8 			; <UNDEFINED> instruction: 0xf83f00f8
8780593c:	00081000 	andeq	r1, r8, r0
87805940:	20000010 	andcs	r0, r0, r0, lsl r0
87805944:	08200000 	stmdaeq	r0!, {}	; <UNPREDICTABLE>
87805948:	00f83f00 	rscseq	r3, r8, r0, lsl #30
8780594c:	0000f81f 	andeq	pc, r0, pc, lsl r8	; <UNPREDICTABLE>
87805950:	00000008 	andeq	r0, r0, r8
87805954:	00000000 	andeq	r0, r0, r0
87805958:	0f00c007 	svceq	0x0000c007
8780595c:	301800f0 	ldrshcc	r0, [r8], -r0	; <UNPREDICTABLE>
87805960:	00083000 	andeq	r3, r8, r0
87805964:	20000820 	andcs	r0, r0, r0, lsr #16
87805968:	08300008 	ldmdaeq	r0!, {r3}
8780596c:	00301800 	eorseq	r1, r0, r0, lsl #16
87805970:	0700f00f 	streq	pc, [r0, -pc]
87805974:	000000c0 	andeq	r0, r0, r0, asr #1
87805978:	00000000 	andeq	r0, r0, r0
8780597c:	3f000120 	svccc	0x00000120
87805980:	ff3f00ff 			; <UNDEFINED> instruction: 0xff3f00ff
87805984:	00111000 	andseq	r1, r1, r0
87805988:	20000920 	andcs	r0, r0, r0, lsr #18
8780598c:	08200008 	stmdaeq	r0!, {r3}
87805990:	00383000 	eorseq	r3, r8, r0
87805994:	0f00f01f 	svceq	0x0000f01f
87805998:	000000c0 	andeq	r0, r0, r0, asr #1
8780599c:	00000000 	andeq	r0, r0, r0
878059a0:	1f00c007 	svcne	0x0000c007
878059a4:	183800f0 	ldmdane	r8!, {r4, r5, r6, r7}
878059a8:	00082000 	andeq	r2, r8, r0
878059ac:	20000820 	andcs	r0, r0, r0, lsr #16
878059b0:	11100009 	tstne	r0, r9
878059b4:	00ff1f00 	rscseq	r1, pc, r0, lsl #30
878059b8:	0000ff3f 	andeq	pc, r0, pc, lsr pc	; <UNPREDICTABLE>
878059bc:	00000001 	andeq	r0, r0, r1
878059c0:	00082000 	andeq	r2, r8, r0
878059c4:	20000820 	andcs	r0, r0, r0, lsr #16
878059c8:	f83f0008 			; <UNDEFINED> instruction: 0xf83f0008
878059cc:	00f83f00 	rscseq	r3, r8, r0, lsl #30
878059d0:	10000808 	andne	r0, r0, r8, lsl #16
878059d4:	08200008 	stmdaeq	r0!, {r3}
878059d8:	00002000 	andeq	r2, r0, r0
878059dc:	30000030 	andcc	r0, r0, r0, lsr r0
	...
878059e8:	0c000000 	stceq	0, cr0, [r0], {-0}
878059ec:	181e0078 	ldmdane	lr, {r3, r4, r5, r6}
878059f0:	00083300 	andeq	r3, r8, r0, lsl #6
878059f4:	21000823 	tstcs	r0, r3, lsr #16
878059f8:	88210008 	stmdahi	r1!, {r3}
878059fc:	00982100 	addseq	r2, r8, r0, lsl #2
87805a00:	3800f030 	stmdacc	r0, {r4, r5, ip, sp, lr, pc}
87805a04:	00000060 	andeq	r0, r0, r0, rrx
87805a08:	00000000 	andeq	r0, r0, r0
87805a0c:	20000020 	andcs	r0, r0, r0, lsr #32
87805a10:	00200000 	eoreq	r0, r0, r0
87805a14:	03f0ff00 	mvnseq	pc, #0, 30
87805a18:	2000f8ff 	strdcs	pc, [r0], -pc	; <UNPREDICTABLE>
87805a1c:	08200008 	stmdaeq	r0!, {r3}
87805a20:	00082000 	andeq	r2, r8, r0
87805a24:	00003000 	andeq	r3, r0, r0
	...
87805a30:	3f000020 	svccc	0x00000020
87805a34:	f87f00f0 			; <UNDEFINED> instruction: 0xf87f00f0
87805a38:	00180000 	andseq	r0, r8, r0
87805a3c:	00000800 	andeq	r0, r0, r0, lsl #16
87805a40:	10200008 	eorne	r0, r0, r8
87805a44:	00f83f00 	rscseq	r3, r8, r0, lsl #30
87805a48:	0000f07f 	andeq	pc, r0, pc, ror r0	; <UNPREDICTABLE>
87805a4c:	00000010 	andeq	r0, r0, r0, lsl r0
87805a50:	00000000 	andeq	r0, r0, r0
87805a54:	30000020 	andcc	r0, r0, r0, lsr #32
87805a58:	003c0000 	eorseq	r0, ip, r0
87805a5c:	00803f00 	addeq	r3, r0, r0, lsl #30
87805a60:	0000f023 	andeq	pc, r0, r3, lsr #32
87805a64:	70000078 	andvc	r0, r0, r8, ror r0
87805a68:	00802300 	addeq	r2, r0, r0, lsl #6
87805a6c:	3000003c 	andcc	r0, r0, ip, lsr r0
87805a70:	00200000 	eoreq	r0, r0, r0
87805a74:	00002000 	andeq	r2, r0, r0
87805a78:	3f00003c 	svccc	0x0000003c
87805a7c:	f82300e0 			; <UNDEFINED> instruction: 0xf82300e0
87805a80:	00e00000 	rsceq	r0, r0, r0
87805a84:	3e000027 	cdpcc	0, 0, cr0, cr0, cr7, {1}
87805a88:	e03f0000 	eors	r0, pc, r0
87805a8c:	00f82100 	rscseq	r2, r8, r0, lsl #2
87805a90:	3e00e001 	cdpcc	0, 0, cr14, cr0, cr1, {0}
87805a94:	00200000 	eoreq	r0, r0, r0
87805a98:	00000000 	andeq	r0, r0, r0
87805a9c:	20000820 	andcs	r0, r0, r0, lsr #16
87805aa0:	38380008 	ldmdacc	r8!, {r3}
87805aa4:	00683e00 	rsbeq	r3, r8, r0, lsl #28
87805aa8:	03008027 	movweq	r8, #39	; 0x27
87805aac:	f82c00c8 			; <UNDEFINED> instruction: 0xf82c00c8
87805ab0:	00383800 	eorseq	r3, r8, r0, lsl #16
87805ab4:	20001820 	andcs	r1, r0, r0, lsr #16
87805ab8:	00000008 	andeq	r0, r0, r8
87805abc:	00000000 	andeq	r0, r0, r0
87805ac0:	30000020 	andcc	r0, r0, r0, lsr #32
87805ac4:	013c0003 	teqeq	ip, r3
87805ac8:	00833f00 	addeq	r3, r3, r0, lsl #30
87805acc:	0000ec23 	andeq	lr, r0, r3, lsr #24
87805ad0:	80230070 	eorhi	r0, r3, r0, ror r0
87805ad4:	00003c00 	andeq	r3, r0, r0, lsl #24
87805ad8:	20000020 	andcs	r0, r0, r0, lsr #32
	...
87805ae4:	38000000 	stmdacc	r0, {}	; <UNPREDICTABLE>
87805ae8:	38200008 	stmdacc	r0!, {r3}
87805aec:	00f82000 	rscseq	r2, r8, r0
87805af0:	2f00e823 	svccs	0x0000e823
87805af4:	083e0088 	ldmdaeq	lr!, {r3, r7}
87805af8:	00083800 	andeq	r3, r8, r0, lsl #16
87805afc:	00001820 	andeq	r1, r0, r0, lsr #16
87805b00:	00000070 	andeq	r0, r0, r0, ror r0
	...
87805b14:	14000008 	strne	r0, [r0], #-8
87805b18:	fcf71f00 	ldc2l	15, cr1, [r7]
87805b1c:	20060030 	andcs	r0, r6, r0, lsr r0
87805b20:	00000200 	andeq	r0, r0, r0, lsl #4
	...
87805b38:	ffff0000 			; <UNDEFINED> instruction: 0xffff0000
87805b3c:	000000ff 	strdeq	r0, [r0], -pc	; <UNPREDICTABLE>
	...
87805b50:	00200000 	eoreq	r0, r0, r0
87805b54:	06003002 	streq	r3, [r0], -r2
87805b58:	00fcf71f 	rscseq	pc, ip, pc, lsl r7	; <UNPREDICTABLE>
87805b5c:	08000014 	stmdaeq	r0, {r2, r4}
	...
87805b70:	18000000 	stmdane	r0, {}	; <UNPREDICTABLE>
87805b74:	00600000 	rsbeq	r0, r0, r0
87805b78:	00004000 	andeq	r4, r0, r0
87805b7c:	20000040 	andcs	r0, r0, r0, asr #32
87805b80:	00100000 	andseq	r0, r0, r0
87805b84:	00000800 	andeq	r0, r0, r0, lsl #16
87805b88:	04000004 	streq	r0, [r0], #-4
87805b8c:	000c0000 	andeq	r0, ip, r0
87805b90:	00001000 	andeq	r1, r0, r0

87805b94 <asc2_1608>:
	...
87805ba8:	cc1f0000 	ldcgt	0, cr0, [pc], {-0}
87805bac:	00000c00 	andeq	r0, r0, r0, lsl #24
87805bb0:	00000000 	andeq	r0, r0, r0
87805bb4:	00080000 	andeq	r0, r8, r0
87805bb8:	00600030 	rsbeq	r0, r0, r0, lsr r0
87805bbc:	00300008 	eorseq	r0, r0, r8
87805bc0:	00000060 	andeq	r0, r0, r0, rrx
87805bc4:	fc032002 	stc2	0, cr2, [r3], {2}
87805bc8:	2002201e 	andcs	r2, r2, lr, lsl r0
87805bcc:	201efc03 	andscs	pc, lr, r3, lsl #24
87805bd0:	00002002 	andeq	r2, r0, r2
87805bd4:	180e0000 	stmdane	lr, {}	; <UNPREDICTABLE>
87805bd8:	ff3f0411 			; <UNDEFINED> instruction: 0xff3f0411
87805bdc:	780c8410 	stmdavc	ip, {r4, sl, pc}
87805be0:	00000000 	andeq	r0, r0, r0
87805be4:	8410000f 	ldrhi	r0, [r0], #-15
87805be8:	c000380f 	andgt	r3, r0, pc, lsl #16
87805bec:	84187807 	ldrhi	r7, [r8], #-2055	; 0x807
87805bf0:	00007800 	andeq	r7, r0, r0, lsl #16
87805bf4:	840f7800 	strhi	r7, [pc], #-2048	; 87805bfc <asc2_1608+0x68>
87805bf8:	2411c410 	ldrcs	ip, [r1], #-1040	; 0x410
87805bfc:	e400980e 	str	r9, [r0], #-2062	; 0x80e
87805c00:	08008400 	stmdaeq	r0, {sl, pc}
87805c04:	00680008 	rsbeq	r0, r8, r8
87805c08:	00000070 	andeq	r0, r0, r0, ror r0
	...
87805c18:	e0070000 	and	r0, r7, r0
87805c1c:	04201818 	strteq	r1, [r0], #-2072	; 0x818
87805c20:	00000240 	andeq	r0, r0, r0, asr #4
87805c24:	02400000 	subeq	r0, r0, #0
87805c28:	18180420 	ldmdane	r8, {r5, sl}
87805c2c:	0000e007 	andeq	lr, r0, r7
87805c30:	00000000 	andeq	r0, r0, r0
87805c34:	40024002 	andmi	r4, r2, r2
87805c38:	f00f8001 			; <UNDEFINED> instruction: 0xf00f8001
87805c3c:	40028001 	andmi	r8, r2, r1
87805c40:	00004002 	andeq	r4, r0, r2
87805c44:	80008000 	andhi	r8, r0, r0
87805c48:	f80f8000 			; <UNDEFINED> instruction: 0xf80f8000
87805c4c:	80008000 	andhi	r8, r0, r0
87805c50:	00008000 	andeq	r8, r0, r0
87805c54:	0d000100 	stfeqs	f0, [r0, #-0]
87805c58:	00000e00 	andeq	r0, r0, r0, lsl #28
	...
87805c64:	80000000 	andhi	r0, r0, r0
87805c68:	80008000 	andhi	r8, r0, r0
87805c6c:	80008000 	andhi	r8, r0, r0
87805c70:	80008000 	andhi	r8, r0, r0
87805c74:	0c000000 	stceq	0, cr0, [r0], {-0}
87805c78:	00000c00 	andeq	r0, r0, r0, lsl #24
	...
87805c84:	06000000 	streq	r0, [r0], -r0
87805c88:	60001800 	andvs	r1, r0, r0, lsl #16
87805c8c:	00068001 	andeq	r8, r6, r1
87805c90:	00200018 	eoreq	r0, r0, r8, lsl r0
87805c94:	f0070000 			; <UNDEFINED> instruction: 0xf0070000
87805c98:	04100808 	ldreq	r0, [r0], #-2056	; 0x808
87805c9c:	08080410 	stmdaeq	r8, {r4, sl}
87805ca0:	0000f007 	andeq	pc, r0, r7
87805ca4:	04080000 	streq	r0, [r8], #-0
87805ca8:	fc1f0408 	ldc2	4, cr0, [pc], {8}
87805cac:	04000400 	streq	r0, [r0], #-1024	; 0x400
87805cb0:	00000000 	andeq	r0, r0, r0
87805cb4:	0c0e0000 	stceq	0, cr0, [lr], {-0}
87805cb8:	24101410 	ldrcs	r1, [r0], #-1040	; 0x410
87805cbc:	84114410 	ldrhi	r4, [r1], #-1040	; 0x410
87805cc0:	00000c0e 	andeq	r0, r0, lr, lsl #24
87805cc4:	180c0000 	stmdane	ip, {}	; <UNPREDICTABLE>
87805cc8:	04110410 	ldreq	r0, [r1], #-1040	; 0x410
87805ccc:	88120411 	ldmdahi	r2, {r0, r4, sl}
87805cd0:	0000700c 	andeq	r7, r0, ip
87805cd4:	e0000000 	and	r0, r0, r0
87805cd8:	24042003 	strcs	r2, [r4], #-3
87805cdc:	fc1f2408 	ldc2	4, cr2, [pc], {8}
87805ce0:	00002400 	andeq	r2, r0, r0, lsl #8
87805ce4:	981f0000 	ldmdals	pc, {}	; <UNPREDICTABLE>
87805ce8:	04118410 	ldreq	r8, [r1], #-1040	; 0x410
87805cec:	88100411 	ldmdahi	r0, {r0, r4, sl}
87805cf0:	00007010 	andeq	r7, r0, r0, lsl r0
87805cf4:	f0070000 			; <UNDEFINED> instruction: 0xf0070000
87805cf8:	04118808 	ldreq	r8, [r1], #-2056	; 0x808
87805cfc:	88180411 	ldmdahi	r8, {r0, r4, sl}
87805d00:	00007000 	andeq	r7, r0, r0
87805d04:	001c0000 	andseq	r0, ip, r0
87805d08:	fc100010 	ldc2	0, cr0, [r0], {16}
87805d0c:	001c0013 	andseq	r0, ip, r3, lsl r0
87805d10:	00000010 	andeq	r0, r0, r0, lsl r0
87805d14:	380e0000 	stmdacc	lr, {}	; <UNPREDICTABLE>
87805d18:	84104411 	ldrhi	r4, [r0], #-1041	; 0x411
87805d1c:	44118410 	ldrmi	r8, [r1], #-1040	; 0x410
87805d20:	0000380e 	andeq	r3, r0, lr, lsl #16
87805d24:	00070000 	andeq	r0, r7, r0
87805d28:	44108c08 	ldrmi	r8, [r0], #-3080	; 0xc08
87805d2c:	88084410 	stmdahi	r8, {r4, sl, lr}
87805d30:	0000f007 	andeq	pc, r0, r7
87805d34:	00000000 	andeq	r0, r0, r0
87805d38:	0c030000 	stceq	0, cr0, [r3], {-0}
87805d3c:	00000c03 	andeq	r0, r0, r3, lsl #24
	...
87805d48:	06010100 	streq	r0, [r1], -r0, lsl #2
	...
87805d54:	80000000 	andhi	r0, r0, r0
87805d58:	20024001 	andcs	r4, r2, r1
87805d5c:	08081004 	stmdaeq	r8, {r2, ip}
87805d60:	00000410 	andeq	r0, r0, r0, lsl r4
87805d64:	20022002 	andcs	r2, r2, r2
87805d68:	20022002 	andcs	r2, r2, r2
87805d6c:	20022002 	andcs	r2, r2, r2
87805d70:	00002002 	andeq	r2, r0, r2
87805d74:	04100000 	ldreq	r0, [r0], #-0
87805d78:	10040808 	andne	r0, r4, r8, lsl #16
87805d7c:	40012002 	andmi	r2, r1, r2
87805d80:	00008000 	andeq	r8, r0, r0
87805d84:	000e0000 	andeq	r0, lr, r0
87805d88:	0c100012 	ldceq	0, cr0, [r0], {18}
87805d8c:	80106c10 	andshi	r6, r0, r0, lsl ip
87805d90:	0000000f 	andeq	r0, r0, pc
87805d94:	180ce003 	stmdane	ip, {r0, r1, sp, lr, pc}
87805d98:	2414e413 	ldrcs	lr, [r4], #-1043	; 0x413
87805d9c:	2808c417 	stmdacs	r8, {r0, r1, r2, r4, sl, lr, pc}
87805da0:	0000d007 	andeq	sp, r0, r7
87805da4:	3c000400 	cfstrscc	mvf0, [r0], {-0}
87805da8:	401cc403 	andsmi	ip, ip, r3, lsl #8
87805dac:	e4004007 	str	r4, [r0], #-7
87805db0:	04001c00 	streq	r1, [r0], #-3072	; 0xc00
87805db4:	fc1f0410 	ldc2	4, cr0, [pc], {16}
87805db8:	04110411 	ldreq	r0, [r1], #-1041	; 0x411
87805dbc:	880e0411 	stmdahi	lr, {r0, r4, sl}
87805dc0:	00007000 	andeq	r7, r0, r0
87805dc4:	180ce003 	stmdane	ip, {r0, r1, sp, lr, pc}
87805dc8:	04100410 	ldreq	r0, [r0], #-1040	; 0x410
87805dcc:	08100410 	ldmdaeq	r0, {r4, sl}
87805dd0:	0000101c 	andeq	r1, r0, ip, lsl r0
87805dd4:	fc1f0410 	ldc2	4, cr0, [pc], {16}
87805dd8:	04100410 	ldreq	r0, [r0], #-1040	; 0x410
87805ddc:	08080410 	stmdaeq	r8, {r4, sl}
87805de0:	0000f007 	andeq	pc, r0, r7
87805de4:	fc1f0410 	ldc2	4, cr0, [pc], {16}
87805de8:	04110411 	ldreq	r0, [r1], #-1041	; 0x411
87805dec:	0410c417 	ldreq	ip, [r0], #-1047	; 0x417
87805df0:	00001808 	andeq	r1, r0, r8, lsl #16
87805df4:	fc1f0410 	ldc2	4, cr0, [pc], {16}
87805df8:	00110411 	andseq	r0, r1, r1, lsl r4
87805dfc:	0010c017 	andseq	ip, r0, r7, lsl r0
87805e00:	00000008 	andeq	r0, r0, r8
87805e04:	180ce003 	stmdane	ip, {r0, r1, sp, lr, pc}
87805e08:	04100410 	ldreq	r0, [r0], #-1040	; 0x410
87805e0c:	781c4410 	ldmdavc	ip, {r4, sl, lr}
87805e10:	00004000 	andeq	r4, r0, r0
87805e14:	fc1f0410 	ldc2	4, cr0, [pc], {16}
87805e18:	80008410 	andhi	r8, r0, r0, lsl r4
87805e1c:	84108000 	ldrhi	r8, [r0], #-0
87805e20:	0410fc1f 	ldreq	pc, [r0], #-3103	; 0xc1f
87805e24:	04100000 	ldreq	r0, [r0], #-0
87805e28:	fc1f0410 	ldc2	4, cr0, [pc], {16}
87805e2c:	04100410 	ldreq	r0, [r0], #-1040	; 0x410
87805e30:	00000000 	andeq	r0, r0, r0
87805e34:	01000300 	mrseq	r0, LR_irq
87805e38:	01100110 	tsteq	r0, r0, lsl r1
87805e3c:	0010fe1f 	andseq	pc, r0, pc, lsl lr	; <UNPREDICTABLE>
87805e40:	00000010 	andeq	r0, r0, r0, lsl r0
87805e44:	fc1f0410 	ldc2	4, cr0, [pc], {16}
87805e48:	80030411 	andhi	r0, r3, r1, lsl r4
87805e4c:	1c186414 	cfldrsne	mvf6, [r8], {20}
87805e50:	00000410 	andeq	r0, r0, r0, lsl r4
87805e54:	fc1f0410 	ldc2	4, cr0, [pc], {16}
87805e58:	04000410 	streq	r0, [r0], #-1040	; 0x410
87805e5c:	04000400 	streq	r0, [r0], #-1024	; 0x400
87805e60:	00000c00 	andeq	r0, r0, r0, lsl #24
87805e64:	fc1f0410 	ldc2	4, cr0, [pc], {16}
87805e68:	fc00001f 	stc2	0, cr0, [r0], {31}
87805e6c:	fc1f001f 	ldc2	0, cr0, [pc], {31}
87805e70:	00000410 	andeq	r0, r0, r0, lsl r4
87805e74:	fc1f0410 	ldc2	4, cr0, [pc], {16}
87805e78:	0003040c 	andeq	r0, r3, ip, lsl #8
87805e7c:	1810e000 	ldmdane	r0, {sp, lr, pc}
87805e80:	0010fc1f 	andseq	pc, r0, pc, lsl ip	; <UNPREDICTABLE>
87805e84:	0808f007 	stmdaeq	r8, {r0, r1, r2, ip, sp, lr, pc}
87805e88:	04100410 	ldreq	r0, [r0], #-1040	; 0x410
87805e8c:	08080410 	stmdaeq	r8, {r4, sl}
87805e90:	0000f007 	andeq	pc, r0, r7
87805e94:	fc1f0410 	ldc2	4, cr0, [pc], {16}
87805e98:	80108410 	andshi	r8, r0, r0, lsl r4
87805e9c:	80108010 	andshi	r8, r0, r0, lsl r0
87805ea0:	0000000f 	andeq	r0, r0, pc
87805ea4:	1808f007 	stmdane	r8, {r0, r1, r2, ip, sp, lr, pc}
87805ea8:	24102410 	ldrcs	r2, [r0], #-1040	; 0x410
87805eac:	0a081c10 	beq	87a0cef4 <__bss_end+0x202eb4>
87805eb0:	0000f207 	andeq	pc, r0, r7, lsl #4
87805eb4:	fc1f0410 	ldc2	4, cr0, [pc], {16}
87805eb8:	00110411 	andseq	r0, r1, r1, lsl r4
87805ebc:	3011c011 	andscc	ip, r1, r1, lsl r0
87805ec0:	04000c0e 	streq	r0, [r0], #-3086	; 0xc0e
87805ec4:	1c0e0000 	stcne	0, cr0, [lr], {-0}
87805ec8:	84100411 	ldrhi	r0, [r0], #-1041	; 0x411
87805ecc:	44108410 	ldrmi	r8, [r0], #-1040	; 0x410
87805ed0:	0000381c 	andeq	r3, r0, ip, lsl r8
87805ed4:	00100018 	andseq	r0, r0, r8, lsl r0
87805ed8:	fc1f0410 	ldc2	4, cr0, [pc], {16}
87805edc:	00100410 	andseq	r0, r0, r0, lsl r4
87805ee0:	00000018 	andeq	r0, r0, r8, lsl r0
87805ee4:	f81f0010 			; <UNDEFINED> instruction: 0xf81f0010
87805ee8:	04000410 	streq	r0, [r0], #-1040	; 0x410
87805eec:	04100400 	ldreq	r0, [r0], #-1024	; 0x400
87805ef0:	0010f81f 	andseq	pc, r0, pc, lsl r8	; <UNPREDICTABLE>
87805ef4:	001e0010 	andseq	r0, lr, r0, lsl r0
87805ef8:	1c00e011 	stcne	0, cr14, [r0], {17}
87805efc:	80137000 	andshi	r7, r3, r0
87805f00:	0010001c 	andseq	r0, r0, ip, lsl r0
87805f04:	3c10c01f 	ldccc	0, cr12, [r0], {31}
87805f08:	001fe000 	andseq	lr, pc, r0
87805f0c:	3c10e000 	ldccc	0, cr14, [r0], {-0}
87805f10:	0000c01f 	andeq	ip, r0, pc, lsl r0
87805f14:	0c180410 	cfldrseq	mvf0, [r8], {16}
87805f18:	c0013416 	andgt	r3, r1, r6, lsl r4
87805f1c:	3416c001 	ldrcc	ip, [r6], #-1
87805f20:	04100c18 	ldreq	r0, [r0], #-3096	; 0xc18
87805f24:	001c0010 	andseq	r0, ip, r0, lsl r0
87805f28:	fc000413 	stc2	4, cr0, [r0], {19}
87805f2c:	001c0413 	andseq	r0, ip, r3, lsl r4
87805f30:	00000010 	andeq	r0, r0, r0, lsl r0
87805f34:	1c100408 	cfldrsne	mvf0, [r0], {8}
87805f38:	84106410 	ldrhi	r6, [r0], #-1040	; 0x410
87805f3c:	041c0413 	ldreq	r0, [ip], #-1043	; 0x413
87805f40:	00001810 	andeq	r1, r0, r0, lsl r8
87805f44:	00000000 	andeq	r0, r0, r0
87805f48:	fe7f0000 	cdp2	0, 7, cr0, cr15, cr0, {0}
87805f4c:	02400240 	subeq	r0, r0, #64, 4
87805f50:	00000240 	andeq	r0, r0, r0, asr #4
87805f54:	00300000 	eorseq	r0, r0, r0
87805f58:	8003000c 	andhi	r0, r3, ip
87805f5c:	1c006000 	stcne	0, cr6, [r0], {-0}
87805f60:	00000300 	andeq	r0, r0, r0, lsl #6
87805f64:	02400000 	subeq	r0, r0, #0
87805f68:	02400240 	subeq	r0, r0, #64, 4
87805f6c:	0000fe7f 	andeq	pc, r0, pc, ror lr	; <UNPREDICTABLE>
	...
87805f78:	00400020 	subeq	r0, r0, r0, lsr #32
87805f7c:	00400040 	subeq	r0, r0, r0, asr #32
87805f80:	00000020 	andeq	r0, r0, r0, lsr #32
87805f84:	01000100 	mrseq	r0, (UNDEF: 16)
87805f88:	01000100 	mrseq	r0, (UNDEF: 16)
87805f8c:	01000100 	mrseq	r0, (UNDEF: 16)
87805f90:	01000100 	mrseq	r0, (UNDEF: 16)
87805f94:	00400000 	subeq	r0, r0, r0
87805f98:	00200040 	eoreq	r0, r0, r0, asr #32
	...
87805fa4:	98000000 	stmdals	r0, {}	; <UNPREDICTABLE>
87805fa8:	44012401 	strmi	r2, [r1], #-1025	; 0x401
87805fac:	44014401 	strmi	r4, [r1], #-1025	; 0x401
87805fb0:	0400fc00 	streq	pc, [r0], #-3072	; 0xc00
87805fb4:	fc1f0010 	ldc2	0, cr0, [pc], {16}
87805fb8:	04018800 	streq	r8, [r1], #-2048	; 0x800
87805fbc:	88000401 	stmdahi	r0, {r0, sl}
87805fc0:	00007000 	andeq	r7, r0, r0
87805fc4:	70000000 	andvc	r0, r0, r0
87805fc8:	04018800 	streq	r8, [r1], #-2048	; 0x800
87805fcc:	04010401 	streq	r0, [r1], #-1025	; 0x401
87805fd0:	00008800 	andeq	r8, r0, r0, lsl #16
87805fd4:	70000000 	andvc	r0, r0, r0
87805fd8:	04018800 	streq	r8, [r1], #-2048	; 0x800
87805fdc:	08110401 	ldmdaeq	r1, {r0, sl}
87805fe0:	0400fc1f 	streq	pc, [r0], #-3103	; 0xc1f
87805fe4:	f8000000 			; <UNDEFINED> instruction: 0xf8000000
87805fe8:	44014401 	strmi	r4, [r1], #-1025	; 0x401
87805fec:	44014401 	strmi	r4, [r1], #-1025	; 0x401
87805ff0:	0000c800 	andeq	ip, r0, r0, lsl #16
87805ff4:	04010000 	streq	r0, [r1], #-0
87805ff8:	fc0f0401 	stc2	4, cr0, [pc], {1}
87805ffc:	04110411 	ldreq	r0, [r1], #-1041	; 0x411
87806000:	00180011 	andseq	r0, r8, r1, lsl r0
87806004:	d6000000 	strle	r0, [r0], -r0
87806008:	29012901 	stmdbcs	r1, {r0, r8, fp, sp}
8780600c:	c9012901 	stmdbgt	r1, {r0, r8, fp, sp}
87806010:	00000601 	andeq	r0, r0, r1, lsl #12
87806014:	fc1f0410 	ldc2	4, cr0, [pc], {16}
87806018:	00018400 	andeq	r8, r1, r0, lsl #8
8780601c:	04010001 	streq	r0, [r1], #-1
87806020:	0400fc00 	streq	pc, [r0], #-3072	; 0xc00
87806024:	04010000 	streq	r0, [r1], #-0
87806028:	fc190419 	ldc2	4, cr0, [r9], {25}
8780602c:	04000400 	streq	r0, [r0], #-1024	; 0x400
87806030:	00000000 	andeq	r0, r0, r0
87806034:	03000000 	movweq	r0, #0
87806038:	01010100 	mrseq	r0, (UNDEF: 17)
8780603c:	fe190119 	mrc2	1, 0, r0, cr9, cr9, {0}
87806040:	00000000 	andeq	r0, r0, r0
87806044:	fc1f0410 	ldc2	4, cr0, [pc], {16}
87806048:	40002400 	andmi	r2, r0, r0, lsl #8
8780604c:	0c01b401 	cfstrseq	mvf11, [r1], {1}
87806050:	00000401 	andeq	r0, r0, r1, lsl #8
87806054:	04100000 	ldreq	r0, [r0], #-0
87806058:	fc1f0410 	ldc2	4, cr0, [pc], {16}
8780605c:	04000400 	streq	r0, [r0], #-1024	; 0x400
87806060:	00000000 	andeq	r0, r0, r0
87806064:	fc010401 	stc2	4, cr0, [r1], {1}
87806068:	00010401 	andeq	r0, r1, r1, lsl #8
8780606c:	0401fc01 	streq	pc, [r1], #-3073	; 0xc01
87806070:	fc000001 	stc2	0, cr0, [r0], {1}
87806074:	fc010401 	stc2	4, cr0, [r1], {1}
87806078:	00018400 	andeq	r8, r1, r0, lsl #8
8780607c:	04010001 	streq	r0, [r1], #-1
87806080:	0400fc00 	streq	pc, [r0], #-3072	; 0xc00
87806084:	f8000000 			; <UNDEFINED> instruction: 0xf8000000
87806088:	04010401 	streq	r0, [r1], #-1025	; 0x401
8780608c:	04010401 	streq	r0, [r1], #-1025	; 0x401
87806090:	0000f800 	andeq	pc, r0, r0, lsl #16
87806094:	ff010101 			; <UNDEFINED> instruction: 0xff010101
87806098:	04018500 	streq	r8, [r1], #-1280	; 0x500
8780609c:	88000401 	stmdahi	r0, {r0, sl}
878060a0:	00007000 	andeq	r7, r0, r0
878060a4:	70000000 	andvc	r0, r0, r0
878060a8:	04018800 	streq	r8, [r1], #-2048	; 0x800
878060ac:	05010401 	streq	r0, [r1, #-1025]	; 0x401
878060b0:	0100ff01 	tsteq	r0, r1, lsl #30
878060b4:	04010401 	streq	r0, [r1], #-1025	; 0x401
878060b8:	8400fc01 	strhi	pc, [r0], #-3073	; 0xc01
878060bc:	00010401 	andeq	r0, r1, r1, lsl #8
878060c0:	00008001 	andeq	r8, r0, r1
878060c4:	cc000000 	stcgt	0, cr0, [r0], {-0}
878060c8:	24012401 	strcs	r2, [r1], #-1025	; 0x401
878060cc:	24012401 	strcs	r2, [r1], #-1025	; 0x401
878060d0:	00009801 	andeq	r9, r0, r1, lsl #16
878060d4:	00010000 	andeq	r0, r1, r0
878060d8:	f8070001 			; <UNDEFINED> instruction: 0xf8070001
878060dc:	04010401 	streq	r0, [r1], #-1025	; 0x401
878060e0:	00000000 	andeq	r0, r0, r0
878060e4:	f8010001 			; <UNDEFINED> instruction: 0xf8010001
878060e8:	04000400 	streq	r0, [r0], #-1024	; 0x400
878060ec:	08010400 	stmdaeq	r1, {sl}
878060f0:	0400fc01 	streq	pc, [r0], #-3073	; 0xc01
878060f4:	80010001 	andhi	r0, r1, r1
878060f8:	0c007001 	stceq	0, cr7, [r0], {1}
878060fc:	60011000 	andvs	r1, r1, r0
87806100:	00018001 	andeq	r8, r1, r1
87806104:	0c01f001 	stceq	0, cr15, [r1], {1}
87806108:	c0013000 	andgt	r3, r1, r0
8780610c:	0c013000 	stceq	0, cr3, [r1], {-0}
87806110:	0001f001 	andeq	pc, r1, r1
87806114:	04010000 	streq	r0, [r1], #-0
87806118:	74008c01 	strvc	r8, [r0], #-3073	; 0xc01
8780611c:	8c017001 	stchi	0, cr7, [r1], {1}
87806120:	00000401 	andeq	r0, r0, r1, lsl #8
87806124:	81010101 	tsthi	r1, r1, lsl #2
87806128:	0e007101 	adfeqs	f7, f0, f1
8780612c:	60011800 	andvs	r1, r1, r0, lsl #16
87806130:	00018001 	andeq	r8, r1, r1
87806134:	84010000 	strhi	r0, [r1], #-0
87806138:	34010c01 	strcc	r0, [r1], #-3073	; 0xc01
8780613c:	84014401 	strhi	r4, [r1], #-1025	; 0x401
87806140:	00000c01 	andeq	r0, r0, r1, lsl #24
	...
8780614c:	fc3e0001 	ldc2	0, cr0, [lr], #-4
87806150:	02400240 	subeq	r0, r0, #64, 4
	...
8780615c:	0000ffff 	strdeq	pc, [r0], -pc	; <UNPREDICTABLE>
87806160:	00000000 	andeq	r0, r0, r0
87806164:	02400000 	subeq	r0, r0, #0
87806168:	fc3e0240 	ldc2	2, cr0, [lr], #-256	; 0xffffff00
8780616c:	00000001 	andeq	r0, r0, r1
87806170:	00000000 	andeq	r0, r0, r0
87806174:	00600000 	rsbeq	r0, r0, r0
87806178:	00800080 	addeq	r0, r0, r0, lsl #1
8780617c:	00400040 	subeq	r0, r0, r0, asr #32
87806180:	00200020 	eoreq	r0, r0, r0, lsr #32

87806184 <asc2_3216>:
	...
8780621c:	c000f007 	andgt	pc, r0, r7
87806220:	e0e1ff07 	rsc	pc, r1, r7, lsl #30
87806224:	e001f007 	and	pc, r1, r7
87806228:	c0000000 	andgt	r0, r0, r0
	...
8780628c:	00002000 	andeq	r2, r0, r0
87806290:	0000c001 	andeq	ip, r0, r1
87806294:	00008007 	andeq	r8, r0, r7
87806298:	0000001f 	andeq	r0, r0, pc, lsl r0
8780629c:	0000001e 	andeq	r0, r0, lr, lsl r0
878062a0:	0000201c 	andeq	r2, r0, ip, lsl r0
878062a4:	0000c001 	andeq	ip, r0, r1
878062a8:	00008007 	andeq	r8, r0, r7
878062ac:	0000001f 	andeq	r0, r0, pc, lsl r0
878062b0:	0000001e 	andeq	r0, r0, lr, lsl r0
878062b4:	0000001c 	andeq	r0, r0, ip, lsl r0
	...
87806308:	000c1800 	andeq	r1, ip, r0, lsl #16
8780630c:	000c1800 	andeq	r1, ip, r0, lsl #16
87806310:	e00f1800 	and	r1, pc, r0, lsl #16
87806314:	00fc1f00 	rscseq	r1, ip, r0, lsl #30
87806318:	000cf803 	andeq	pc, ip, r3, lsl #16
8780631c:	000c1800 	andeq	r1, ip, r0, lsl #16
87806320:	000c1800 	andeq	r1, ip, r0, lsl #16
87806324:	000c1800 	andeq	r1, ip, r0, lsl #16
87806328:	000c1800 	andeq	r1, ip, r0, lsl #16
8780632c:	e00f1800 	and	r1, pc, r0, lsl #16
87806330:	00fc1f00 	rscseq	r1, ip, r0, lsl #30
87806334:	000cf803 	andeq	pc, ip, r3, lsl #16
87806338:	000c1800 	andeq	r1, ip, r0, lsl #16
8780633c:	000c1800 	andeq	r1, ip, r0, lsl #16
	...
8780638c:	80070000 	andhi	r0, r7, r0
87806390:	c0077800 	andgt	r7, r7, r0, lsl #16
87806394:	4006fc00 	andmi	pc, r6, r0, lsl #24
87806398:	20000e01 	andcs	r0, r0, r1, lsl #28
8780639c:	20000703 	andcs	r0, r0, r3, lsl #14
878063a0:	20800302 	addcs	r0, r0, r2, lsl #6
878063a4:	fcffff0f 	ldc2l	15, cr15, [pc], #60	; 878063e8 <asc2_3216+0x264>
878063a8:	20c00102 	sbccs	r0, r0, r2, lsl #2
878063ac:	60e00002 	rscvs	r0, r0, r2
878063b0:	40703001 	rsbsmi	r3, r0, r1
878063b4:	803ff001 	eorshi	pc, pc, r1
878063b8:	001ff000 	andseq	pc, pc, r0
	...
87806404:	0000fe00 	andeq	pc, r0, r0, lsl #28
87806408:	0000ff01 	andeq	pc, r0, r1, lsl #30
8780640c:	00800103 	addeq	r0, r0, r3, lsl #2
87806410:	60800002 	addvs	r0, r0, r2
87806414:	c0810103 	addgt	r0, r1, r3, lsl #2
87806418:	0007ff01 	andeq	pc, r7, r1, lsl #30
8780641c:	0018fe00 	andseq	pc, r8, r0, lsl #28
87806420:	00e00000 	rsceq	r0, r0, r0
87806424:	00bf0300 	adcseq	r0, pc, r0, lsl #6
87806428:	c0ff0c00 	rscsgt	r0, pc, r0, lsl #24
8780642c:	60807100 	addvs	r7, r0, r0, lsl #2
87806430:	2000c101 	andcs	ip, r0, r1, lsl #2
87806434:	60800103 	addvs	r0, r0, r3, lsl #2
87806438:	c0ff0000 	rscsgt	r0, pc, r0
8780643c:	003f0000 	eorseq	r0, pc, r0
	...
87806484:	001f0000 	andseq	r0, pc, r0
87806488:	c07f0000 	rsbsgt	r0, pc, r0
8780648c:	c0c0fc00 	sbcgt	pc, r0, r0, lsl #24
87806490:	6080ff01 	addvs	pc, r0, r1, lsl #30
87806494:	20e00303 	rsccs	r0, r0, r3, lsl #6
87806498:	20780202 	rsbscs	r0, r8, r2, lsl #4
8780649c:	201e0602 	andscs	r0, lr, r2, lsl #12
878064a0:	4007fc03 	andmi	pc, r7, r3, lsl #24
878064a4:	8003f001 	andhi	pc, r3, r1
878064a8:	c0030100 	andgt	r0, r3, r0, lsl #2
878064ac:	601c0100 	andsvs	r0, ip, r0, lsl #2
878064b0:	20e00100 	rsccs	r0, r0, r0, lsl #2
878064b4:	20000100 	andcs	r0, r0, r0, lsl #2
878064b8:	40000100 	andmi	r0, r0, r0, lsl #2
878064bc:	80010000 	andhi	r0, r1, r0
	...
87806508:	00002000 	andeq	r2, r0, r0
8780650c:	0000601c 	andeq	r6, r0, ip, lsl r0
87806510:	0000401c 	andeq	r4, r0, ip, lsl r0
87806514:	0000801f 	andeq	r8, r0, pc, lsl r0
87806518:	0000000f 	andeq	r0, r0, pc
	...
878065a0:	00f80700 	rscseq	r0, r8, r0, lsl #14
878065a4:	00ff3f00 	rscseq	r3, pc, r0, lsl #30
878065a8:	c0077800 	andgt	r7, r7, r0, lsl #16
878065ac:	e000c001 	and	ip, r0, r1
878065b0:	30000003 	andcc	r0, r0, r3
878065b4:	08000004 	stmdaeq	r0, {r2}
878065b8:	04000008 	streq	r0, [r0], #-8
878065bc:	02000010 	andeq	r0, r0, #16
	...
87806608:	02000010 	andeq	r0, r0, #16
8780660c:	04000008 	streq	r0, [r0], #-8
87806610:	08000004 	stmdaeq	r0, {r2}
87806614:	30000003 	andcc	r0, r0, r3
87806618:	e000c001 	and	ip, r0, r1
8780661c:	c0077800 	andgt	r7, r7, r0, lsl #16
87806620:	00ff3f00 	rscseq	r3, pc, r0, lsl #30
87806624:	00f80700 	rscseq	r0, r8, r0, lsl #14
	...
8780668c:	00180c00 	andseq	r0, r8, r0, lsl #24
87806690:	00380e00 	eorseq	r0, r8, r0, lsl #28
87806694:	00380e00 	eorseq	r0, r8, r0, lsl #28
87806698:	00300600 	eorseq	r0, r0, r0, lsl #12
8780669c:	00600300 	rsbeq	r0, r0, r0, lsl #6
878066a0:	80436100 	subhi	r6, r3, r0, lsl #2
878066a4:	80ffff00 	rscshi	pc, pc, r0, lsl #30
878066a8:	00436100 	subeq	r6, r3, r0, lsl #2
878066ac:	00600300 	rsbeq	r0, r0, r0, lsl #6
878066b0:	00300600 	eorseq	r0, r0, r0, lsl #12
878066b4:	00380e00 	eorseq	r0, r8, r0, lsl #28
878066b8:	00380e00 	eorseq	r0, r8, r0, lsl #28
878066bc:	00180c00 	andseq	r0, r8, r0, lsl #24
	...
8780670c:	00800000 	addeq	r0, r0, r0
87806710:	00800000 	addeq	r0, r0, r0
87806714:	00800000 	addeq	r0, r0, r0
87806718:	00800000 	addeq	r0, r0, r0
8780671c:	00800000 	addeq	r0, r0, r0
87806720:	00800000 	addeq	r0, r0, r0
87806724:	00ff7f00 	rscseq	r7, pc, r0, lsl #30
87806728:	00800000 	addeq	r0, r0, r0
8780672c:	00800000 	addeq	r0, r0, r0
87806730:	00800000 	addeq	r0, r0, r0
87806734:	00800000 	addeq	r0, r0, r0
87806738:	00800000 	addeq	r0, r0, r0
8780673c:	00800000 	addeq	r0, r0, r0
	...
87806788:	01000000 	mrseq	r0, (UNDEF: 0)
8780678c:	e3000000 	movw	r0, #0
87806790:	e2000000 	and	r0, r0, #0
87806794:	fc000000 	stc2	0, cr0, [r0], {-0}
87806798:	78000000 	stmdavc	r0, {}	; <UNPREDICTABLE>
	...
87806808:	00800000 	addeq	r0, r0, r0
8780680c:	00800000 	addeq	r0, r0, r0
87806810:	00800000 	addeq	r0, r0, r0
87806814:	00800000 	addeq	r0, r0, r0
87806818:	00800000 	addeq	r0, r0, r0
8780681c:	00800000 	addeq	r0, r0, r0
87806820:	00800000 	addeq	r0, r0, r0
87806824:	00800000 	addeq	r0, r0, r0
87806828:	00800000 	addeq	r0, r0, r0
8780682c:	00800000 	addeq	r0, r0, r0
87806830:	00800000 	addeq	r0, r0, r0
87806834:	00800000 	addeq	r0, r0, r0
87806838:	00800000 	addeq	r0, r0, r0
8780683c:	00800000 	addeq	r0, r0, r0
	...
8780688c:	c0000000 	andgt	r0, r0, r0
87806890:	e0010000 	and	r0, r1, r0
87806894:	e0010000 	and	r0, r1, r0
87806898:	c0000000 	andgt	r0, r0, r0
	...
87806908:	0c000000 	stceq	0, cr0, [r0], {-0}
8780690c:	38000000 	stmdacc	r0, {}	; <UNPREDICTABLE>
87806910:	e0000000 	and	r0, r0, r0
87806914:	80030000 	andhi	r0, r3, r0
87806918:	000e0000 	andeq	r0, lr, r0
8780691c:	00380000 	eorseq	r0, r8, r0
87806920:	00e00000 	rsceq	r0, r0, r0
87806924:	00800300 	addeq	r0, r0, r0, lsl #6
87806928:	00000e00 	andeq	r0, r0, r0, lsl #28
8780692c:	00003800 	andeq	r3, r0, r0, lsl #16
87806930:	0000e000 	andeq	lr, r0, r0
87806934:	00008003 	andeq	r8, r0, r3
87806938:	0000000e 	andeq	r0, r0, lr
8780693c:	00000018 	andeq	r0, r0, r8, lsl r0
	...
8780698c:	00f80f00 	rscseq	r0, r8, r0, lsl #30
87806990:	00ff7f00 	rscseq	r7, pc, r0, lsl #30
87806994:	8007f000 	andhi	pc, r7, r0
87806998:	c0008001 	andgt	r8, r0, r1
8780699c:	60000003 	andvs	r0, r0, r3
878069a0:	20000002 	andcs	r0, r0, r2
878069a4:	20000002 	andcs	r0, r0, r2
878069a8:	20000002 	andcs	r0, r0, r2
878069ac:	60000003 	andvs	r0, r0, r3
878069b0:	c0008001 	andgt	r8, r0, r1
878069b4:	8003e000 	andhi	lr, r3, r0
878069b8:	00ff7f00 	rscseq	r7, pc, r0, lsl #30
878069bc:	00f80f00 	rscseq	r0, r8, r0, lsl #30
	...
87806a10:	20008000 	andcs	r8, r0, r0
87806a14:	20008000 	andcs	r8, r0, r0
87806a18:	20008000 	andcs	r8, r0, r0
87806a1c:	60008000 	andvs	r8, r0, r0
87806a20:	e0ffff01 	rscs	pc, pc, r1, lsl #30
87806a24:	e0ffff03 	rscs	pc, pc, r3, lsl #30
87806a28:	60000000 	andvs	r0, r0, r0
87806a2c:	20000000 	andcs	r0, r0, r0
87806a30:	20000000 	andcs	r0, r0, r0
87806a34:	20000000 	andcs	r0, r0, r0
	...
87806a8c:	e0007800 	and	r7, r0, r0, lsl #16
87806a90:	60019800 	andvs	r9, r1, r0, lsl #16
87806a94:	60020001 	andvs	r0, r2, r1
87806a98:	60040002 	andvs	r0, r4, r2
87806a9c:	60080002 	andvs	r0, r8, r2
87806aa0:	60100002 	andsvs	r0, r0, r2
87806aa4:	60200002 	eorvs	r0, r0, r2
87806aa8:	60400002 	subvs	r0, r0, r2
87806aac:	60800003 	addvs	r0, r0, r3
87806ab0:	60008301 	andvs	r8, r0, r1, lsl #6
87806ab4:	e000fe01 	and	pc, r0, r1, lsl #28
87806ab8:	80077c00 	andhi	r7, r7, r0, lsl #24
	...
87806b0c:	8007f000 	andhi	pc, r7, r0
87806b10:	c007f001 	andgt	pc, r7, r1
87806b14:	40000001 	andmi	r0, r0, r1
87806b18:	20000002 	andcs	r0, r0, r2
87806b1c:	20000102 	andcs	r0, r0, r2, lsl #2
87806b20:	20000102 	andcs	r0, r0, r2, lsl #2
87806b24:	20000102 	andcs	r0, r0, r2, lsl #2
87806b28:	20800303 	addcs	r0, r0, r3, lsl #6
87806b2c:	40808601 	addmi	r8, r0, r1, lsl #12
87806b30:	c0c0fc01 	sbcgt	pc, r0, r1, lsl #24
87806b34:	807f7800 	rsbshi	r7, pc, r0, lsl #16
87806b38:	001e0000 	andseq	r0, lr, r0
	...
87806b88:	00080000 	andeq	r0, r8, r0
87806b8c:	00380000 	eorseq	r0, r8, r0
87806b90:	00480000 	subeq	r0, r8, r0
87806b94:	00880100 	addeq	r0, r8, r0, lsl #2
87806b98:	00080600 	andeq	r0, r8, r0, lsl #12
87806b9c:	10080c00 	andne	r0, r8, r0, lsl #24
87806ba0:	10083000 	andne	r3, r8, r0
87806ba4:	10084000 	andne	r4, r8, r0
87806ba8:	f0ffff01 			; <UNDEFINED> instruction: 0xf0ffff01
87806bac:	f0ffff03 			; <UNDEFINED> instruction: 0xf0ffff03
87806bb0:	f0ffff03 			; <UNDEFINED> instruction: 0xf0ffff03
87806bb4:	10080000 	andne	r0, r8, r0
87806bb8:	10080000 	andne	r0, r8, r0
87806bbc:	10080000 	andne	r0, r8, r0
	...
87806c0c:	80070000 	andhi	r0, r7, r0
87806c10:	40861f00 	addmi	r1, r6, r0, lsl #30
87806c14:	2000e103 	andcs	lr, r0, r3, lsl #2
87806c18:	20000203 	andcs	r0, r0, r3, lsl #4
87806c1c:	20000403 	andcs	r0, r0, r3, lsl #8
87806c20:	20000403 	andcs	r0, r0, r3, lsl #8
87806c24:	20000403 	andcs	r0, r0, r3, lsl #8
87806c28:	20000403 	andcs	r0, r0, r3, lsl #8
87806c2c:	40000603 	andmi	r0, r0, r3, lsl #12
87806c30:	c0010303 	andgt	r0, r1, r3, lsl #6
87806c34:	80ff0103 	rscshi	r0, pc, r3, lsl #2
87806c38:	007e0003 	rsbseq	r0, lr, r3
	...
87806c8c:	00fc0700 	rscseq	r0, ip, r0, lsl #14
87806c90:	00ff3f00 	rscseq	r3, pc, r0, lsl #30
87806c94:	80c37000 	sbchi	r7, r3, r0
87806c98:	c0808100 	addgt	r8, r0, r0, lsl #2
87806c9c:	60000101 	andvs	r0, r0, r1, lsl #2
87806ca0:	20000203 	andcs	r0, r0, r3, lsl #4
87806ca4:	20000202 	andcs	r0, r0, r2, lsl #4
87806ca8:	20000202 	andcs	r0, r0, r2, lsl #4
87806cac:	20000202 	andcs	r0, r0, r2, lsl #4
87806cb0:	40000302 	andmi	r0, r0, r2, lsl #6
87806cb4:	c080c101 	addgt	ip, r0, r1, lsl #2
87806cb8:	80ffc000 	rscshi	ip, pc, r0
87806cbc:	007e0000 	rsbseq	r0, lr, r0
	...
87806d0c:	0000f000 	andeq	pc, r0, r0
87806d10:	0000c003 	andeq	ip, r0, r3
87806d14:	00008003 	andeq	r8, r0, r3
87806d18:	00000003 	andeq	r0, r0, r3
87806d1c:	e0070003 	and	r0, r7, r3
87806d20:	e03f0003 	eors	r0, pc, r3
87806d24:	00c00103 	sbceq	r0, r0, r3, lsl #2
87806d28:	00000603 	andeq	r0, r0, r3, lsl #12
87806d2c:	00001803 	andeq	r1, r0, r3, lsl #16
87806d30:	00006003 	andeq	r6, r0, r3
87806d34:	00008003 	andeq	r8, r0, r3
87806d38:	00000003 	andeq	r0, r0, r3
	...
87806d88:	001f0000 	andseq	r0, pc, r0
87806d8c:	803f7800 	eorshi	r7, pc, r0, lsl #16
87806d90:	c060fc00 	rsbgt	pc, r0, r0, lsl #24
87806d94:	40c08e01 	sbcmi	r8, r0, r1, lsl #28
87806d98:	20800703 	addcs	r0, r0, r3, lsl #14
87806d9c:	20000302 	andcs	r0, r0, r2, lsl #6
87806da0:	20800102 	addcs	r0, r0, r2, lsl #2
87806da4:	20800102 	addcs	r0, r0, r2, lsl #2
87806da8:	20c00102 	sbccs	r0, r0, r2, lsl #2
87806dac:	40e00103 	rscmi	r0, r0, r3, lsl #2
87806db0:	c0708601 	rsbsgt	r8, r0, r1, lsl #12
87806db4:	803ffc00 	eorshi	pc, pc, r0, lsl #24
87806db8:	001f7800 	andseq	r7, pc, r0, lsl #16
	...
87806e08:	00003f00 	andeq	r3, r0, r0, lsl #30
87806e0c:	c081ff00 	addgt	pc, r1, r0, lsl #30
87806e10:	c0c1c001 	sbcgt	ip, r1, r1
87806e14:	20600001 	rsbcs	r0, r0, r1
87806e18:	20200002 	eorcs	r0, r0, r2
87806e1c:	20200002 	eorcs	r0, r0, r2
87806e20:	20200002 	eorcs	r0, r0, r2
87806e24:	60200002 	eorvs	r0, r0, r2
87806e28:	c0400002 	subgt	r0, r0, r2
87806e2c:	80c10001 	sbchi	r0, r1, r1
87806e30:	008fc100 	addeq	ip, pc, r0, lsl #2
87806e34:	00fe7f00 	rscseq	r7, lr, r0, lsl #30
87806e38:	00f01f00 	rscseq	r1, r0, r0, lsl #30
	...
87806e9c:	c0000300 	andgt	r0, r0, r0, lsl #6
87806ea0:	e0810700 	add	r0, r1, r0, lsl #14
87806ea4:	e0810700 	add	r0, r1, r0, lsl #14
87806ea8:	c0000300 	andgt	r0, r0, r0, lsl #6
	...
87806f1c:	66000600 	strvs	r0, [r0], -r0, lsl #12
87806f20:	78000600 	stmdavc	r0, {r9, sl}
	...
87806f8c:	00800000 	addeq	r0, r0, r0
87806f90:	00c00100 	sbceq	r0, r0, r0, lsl #2
87806f94:	00600300 	rsbeq	r0, r0, r0, lsl #6
87806f98:	00300600 	eorseq	r0, r0, r0, lsl #12
87806f9c:	00180c00 	andseq	r0, r8, r0, lsl #24
87806fa0:	000c1800 	andeq	r1, ip, r0, lsl #16
87806fa4:	00063000 	andeq	r3, r6, r0
87806fa8:	00036000 	andeq	r6, r3, r0
87806fac:	8001c000 	andhi	ip, r1, r0
87806fb0:	40000001 	andmi	r0, r0, r1
87806fb4:	20000002 	andcs	r0, r0, r2
87806fb8:	10000004 	andne	r0, r0, r4
	...
87807008:	00100400 	andseq	r0, r0, r0, lsl #8
8780700c:	00100400 	andseq	r0, r0, r0, lsl #8
87807010:	00100400 	andseq	r0, r0, r0, lsl #8
87807014:	00100400 	andseq	r0, r0, r0, lsl #8
87807018:	00100400 	andseq	r0, r0, r0, lsl #8
8780701c:	00100400 	andseq	r0, r0, r0, lsl #8
87807020:	00100400 	andseq	r0, r0, r0, lsl #8
87807024:	00100400 	andseq	r0, r0, r0, lsl #8
87807028:	00100400 	andseq	r0, r0, r0, lsl #8
8780702c:	00100400 	andseq	r0, r0, r0, lsl #8
87807030:	00100400 	andseq	r0, r0, r0, lsl #8
87807034:	00100400 	andseq	r0, r0, r0, lsl #8
87807038:	00100400 	andseq	r0, r0, r0, lsl #8
8780703c:	00100400 	andseq	r0, r0, r0, lsl #8
	...
8780708c:	10000004 	andne	r0, r0, r4
87807090:	20000002 	andcs	r0, r0, r2
87807094:	40000001 	andmi	r0, r0, r1
87807098:	8001c000 	andhi	ip, r1, r0
8780709c:	00036000 	andeq	r6, r3, r0
878070a0:	00063000 	andeq	r3, r6, r0
878070a4:	000c1800 	andeq	r1, ip, r0, lsl #16
878070a8:	00180c00 	andseq	r0, r8, r0, lsl #24
878070ac:	00300600 	eorseq	r0, r0, r0, lsl #12
878070b0:	00600300 	rsbeq	r0, r0, r0, lsl #6
878070b4:	00c00100 	sbceq	r0, r0, r0, lsl #2
878070b8:	00800000 	addeq	r0, r0, r0
	...
8780710c:	00007800 	andeq	r7, r0, r0, lsl #16
87807110:	0000f801 	andeq	pc, r0, r1, lsl #16
87807114:	00003802 	andeq	r3, r0, r2, lsl #16
87807118:	00000002 	andeq	r0, r0, r2
8780711c:	c0000004 	andgt	r0, r0, r4
87807120:	e0790004 	rsbs	r0, r9, r4
87807124:	e0810004 	add	r0, r1, r4
87807128:	c0000104 	andgt	r0, r0, r4, lsl #2
8780712c:	00000304 	andeq	r0, r0, r4, lsl #6
87807130:	00000202 	andeq	r0, r0, r2, lsl #4
87807134:	00000603 	andeq	r0, r0, r3, lsl #12
87807138:	0000fc01 	andeq	pc, r0, r1, lsl #24
8780713c:	0000f800 	andeq	pc, r0, r0, lsl #16
	...
87807188:	00f80f00 	rscseq	r0, r8, r0, lsl #30
8780718c:	00fe3f00 	rscseq	r3, lr, r0, lsl #30
87807190:	80077000 	andhi	r7, r7, r0
87807194:	c000c000 	andgt	ip, r0, r0
87807198:	40f80101 	rscsmi	r0, r8, r1, lsl #2
8780719c:	20fc0703 	rscscs	r0, ip, r3, lsl #14
878071a0:	20041e02 	andcs	r1, r4, r2, lsl #28
878071a4:	20083002 	andcs	r3, r8, r2
878071a8:	20302002 	eorscs	r2, r0, r2
878071ac:	20fc3f02 	rscscs	r3, ip, r2, lsl #30
878071b0:	40043f01 	andmi	r3, r4, r1, lsl #30
878071b4:	c00c8001 	andgt	r8, ip, r1
878071b8:	8031e000 	eorshi	lr, r1, r0
878071bc:	00c21f00 	sbceq	r1, r2, r0, lsl #30
	...
87807204:	20000000 	andcs	r0, r0, r0
87807208:	60000000 	andvs	r0, r0, r0
8780720c:	e0030000 	and	r0, r3, r0
87807210:	203e0000 	eorscs	r0, lr, r0
87807214:	20e00300 	rsccs	r0, r0, r0, lsl #6
87807218:	00203e00 	eoreq	r3, r0, r0, lsl #28
8780721c:	0020e003 	eoreq	lr, r0, r3
87807220:	00208003 	eoreq	r8, r0, r3
87807224:	0020fc07 	eoreq	pc, r0, r7, lsl #24
87807228:	00e03f00 	rsceq	r3, r0, r0, lsl #30
8780722c:	20fe0300 	rscscs	r0, lr, r0, lsl #6
87807230:	e03f0000 	eors	r0, pc, r0
87807234:	e0010000 	and	r0, r1, r0
87807238:	20000000 	andcs	r0, r0, r0
8780723c:	20000000 	andcs	r0, r0, r0
	...
87807288:	20000002 	andcs	r0, r0, r2
8780728c:	20000002 	andcs	r0, r0, r2
87807290:	e0ffff03 	rscs	pc, pc, r3, lsl #30
87807294:	e0ffff03 	rscs	pc, pc, r3, lsl #30
87807298:	20000102 	andcs	r0, r0, r2, lsl #2
8780729c:	20000102 	andcs	r0, r0, r2, lsl #2
878072a0:	20000102 	andcs	r0, r0, r2, lsl #2
878072a4:	20000102 	andcs	r0, r0, r2, lsl #2
878072a8:	20000102 	andcs	r0, r0, r2, lsl #2
878072ac:	20000303 	andcs	r0, r0, r3, lsl #6
878072b0:	60808601 	addvs	r8, r0, r1, lsl #12
878072b4:	c0c0fc01 	sbcgt	pc, r0, r1, lsl #24
878072b8:	807ff800 	rsbshi	pc, pc, r0, lsl #16
878072bc:	001f0000 	andseq	r0, pc, r0
	...
87807308:	00f80700 	rscseq	r0, r8, r0, lsl #14
8780730c:	00ff3f00 	rscseq	r3, pc, r0, lsl #30
87807310:	80077000 	andhi	r7, r7, r0
87807314:	c000c000 	andgt	ip, r0, r0
87807318:	40000001 	andmi	r0, r0, r1
8780731c:	20000003 	andcs	r0, r0, r3
87807320:	20000002 	andcs	r0, r0, r2
87807324:	20000002 	andcs	r0, r0, r2
87807328:	20000002 	andcs	r0, r0, r2
8780732c:	20000002 	andcs	r0, r0, r2
87807330:	40000001 	andmi	r0, r0, r1
87807334:	c0008001 	andgt	r8, r0, r1
87807338:	8001c003 	andhi	ip, r1, r3
8780733c:	00063000 	andeq	r3, r6, r0
	...
87807388:	20000002 	andcs	r0, r0, r2
8780738c:	20000002 	andcs	r0, r0, r2
87807390:	e0ffff03 	rscs	pc, pc, r3, lsl #30
87807394:	e0ffff03 	rscs	pc, pc, r3, lsl #30
87807398:	20000002 	andcs	r0, r0, r2
8780739c:	20000002 	andcs	r0, r0, r2
878073a0:	20000002 	andcs	r0, r0, r2
878073a4:	20000002 	andcs	r0, r0, r2
878073a8:	60000003 	andvs	r0, r0, r3
878073ac:	40000001 	andmi	r0, r0, r1
878073b0:	c0008001 	andgt	r8, r0, r1
878073b4:	8007f000 	andhi	pc, r7, r0
878073b8:	00fe7f00 	rscseq	r7, lr, r0, lsl #30
878073bc:	00f80f00 	rscseq	r0, r8, r0, lsl #30
	...
87807408:	20000002 	andcs	r0, r0, r2
8780740c:	20000002 	andcs	r0, r0, r2
87807410:	e0ffff03 	rscs	pc, pc, r3, lsl #30
87807414:	e0ffff03 	rscs	pc, pc, r3, lsl #30
87807418:	20000102 	andcs	r0, r0, r2, lsl #2
8780741c:	20000102 	andcs	r0, r0, r2, lsl #2
87807420:	20000102 	andcs	r0, r0, r2, lsl #2
87807424:	20000102 	andcs	r0, r0, r2, lsl #2
87807428:	20000102 	andcs	r0, r0, r2, lsl #2
8780742c:	20800302 	addcs	r0, r0, r2, lsl #6
87807430:	20e00f02 	rsccs	r0, r0, r2, lsl #30
87807434:	60000003 	andvs	r0, r0, r3
87807438:	e000c003 	and	ip, r0, r3
8780743c:	00036000 	andeq	r6, r3, r0
	...
87807488:	20000002 	andcs	r0, r0, r2
8780748c:	20000002 	andcs	r0, r0, r2
87807490:	e0ffff03 	rscs	pc, pc, r3, lsl #30
87807494:	e0ffff03 	rscs	pc, pc, r3, lsl #30
87807498:	20000102 	andcs	r0, r0, r2, lsl #2
8780749c:	20000102 	andcs	r0, r0, r2, lsl #2
878074a0:	00000102 	andeq	r0, r0, r2, lsl #2
878074a4:	00000102 	andeq	r0, r0, r2, lsl #2
878074a8:	00000102 	andeq	r0, r0, r2, lsl #2
878074ac:	00000102 	andeq	r0, r0, r2, lsl #2
878074b0:	00800302 	addeq	r0, r0, r2, lsl #6
878074b4:	00e00f03 	rsceq	r0, r0, r3, lsl #30
878074b8:	00000003 	andeq	r0, r0, r3
878074bc:	0000c003 	andeq	ip, r0, r3
878074c0:	00006000 	andeq	r6, r0, r0
	...
87807508:	00f80700 	rscseq	r0, r8, r0, lsl #14
8780750c:	00fe3f00 	rscseq	r3, lr, r0, lsl #30
87807510:	80077000 	andhi	r7, r7, r0
87807514:	c001c001 	andgt	ip, r1, r1
87807518:	40000001 	andmi	r0, r0, r1
8780751c:	20000003 	andcs	r0, r0, r3
87807520:	20000002 	andcs	r0, r0, r2
87807524:	20000002 	andcs	r0, r0, r2
87807528:	20000002 	andcs	r0, r0, r2
8780752c:	20200001 	eorcs	r0, r0, r1
87807530:	40200001 	eormi	r0, r0, r1
87807534:	803fc003 	eorshi	ip, pc, r3
87807538:	803f3000 	eorshi	r3, pc, r0
8780753c:	00200000 	eoreq	r0, r0, r0
87807540:	00200000 	eoreq	r0, r0, r0
	...
87807584:	20000002 	andcs	r0, r0, r2
87807588:	20000002 	andcs	r0, r0, r2
8780758c:	e0ffff03 	rscs	pc, pc, r3, lsl #30
87807590:	e0ffff03 	rscs	pc, pc, r3, lsl #30
87807594:	20800002 	addcs	r0, r0, r2
87807598:	20800002 	addcs	r0, r0, r2
8780759c:	00800000 	addeq	r0, r0, r0
878075a0:	00800000 	addeq	r0, r0, r0
878075a4:	00800000 	addeq	r0, r0, r0
878075a8:	20800002 	addcs	r0, r0, r2
878075ac:	20800002 	addcs	r0, r0, r2
878075b0:	e0ffff03 	rscs	pc, pc, r3, lsl #30
878075b4:	e0ffff03 	rscs	pc, pc, r3, lsl #30
878075b8:	20000002 	andcs	r0, r0, r2
878075bc:	20000002 	andcs	r0, r0, r2
	...
87807610:	20000002 	andcs	r0, r0, r2
87807614:	20000002 	andcs	r0, r0, r2
87807618:	20000002 	andcs	r0, r0, r2
8780761c:	20000002 	andcs	r0, r0, r2
87807620:	e0ffff03 	rscs	pc, pc, r3, lsl #30
87807624:	e0ffff03 	rscs	pc, pc, r3, lsl #30
87807628:	20000002 	andcs	r0, r0, r2
8780762c:	20000002 	andcs	r0, r0, r2
87807630:	20000002 	andcs	r0, r0, r2
87807634:	20000002 	andcs	r0, r0, r2
	...
87807688:	0e000000 	cdpeq	0, 0, cr0, cr0, cr0, {0}
8780768c:	0f000000 	svceq	0x00000000
87807690:	0f000000 	svceq	0x00000000
87807694:	01000000 	mrseq	r0, (UNDEF: 0)
87807698:	01000002 	tsteq	r0, r2
8780769c:	01000002 	tsteq	r0, r2
878076a0:	03000002 	movweq	r0, #2
878076a4:	06000002 	streq	r0, [r0], -r2
878076a8:	fcffff03 	ldc2l	15, cr15, [pc], #12	; 878076bc <asc2_3216+0x1538>
878076ac:	f8ffff03 			; <UNDEFINED> instruction: 0xf8ffff03
878076b0:	00000002 	andeq	r0, r0, r2
878076b4:	00000002 	andeq	r0, r0, r2
878076b8:	00000002 	andeq	r0, r0, r2
878076bc:	00000002 	andeq	r0, r0, r2
	...
87807708:	20000002 	andcs	r0, r0, r2
8780770c:	20000002 	andcs	r0, r0, r2
87807710:	e0ffff03 	rscs	pc, pc, r3, lsl #30
87807714:	e0ffff03 	rscs	pc, pc, r3, lsl #30
87807718:	20c00002 	sbccs	r0, r0, r2
8780771c:	20000102 	andcs	r0, r0, r2, lsl #2
87807720:	00800700 	addeq	r0, r0, r0, lsl #14
87807724:	00e00f00 	rsceq	r0, r0, r0, lsl #30
87807728:	00f83000 	rscseq	r3, r8, r0
8780772c:	203e6002 	eorscs	r6, lr, r2
87807730:	200f8003 	andcs	r8, pc, r3
87807734:	e0030003 	and	r0, r3, r3
87807738:	e0000002 	and	r0, r0, r2
8780773c:	20000002 	andcs	r0, r0, r2
87807740:	20000000 	andcs	r0, r0, r0
	...
87807788:	20000002 	andcs	r0, r0, r2
8780778c:	20000002 	andcs	r0, r0, r2
87807790:	e0ffff03 	rscs	pc, pc, r3, lsl #30
87807794:	e0ffff03 	rscs	pc, pc, r3, lsl #30
87807798:	20000002 	andcs	r0, r0, r2
8780779c:	20000002 	andcs	r0, r0, r2
878077a0:	20000000 	andcs	r0, r0, r0
878077a4:	20000000 	andcs	r0, r0, r0
878077a8:	20000000 	andcs	r0, r0, r0
878077ac:	20000000 	andcs	r0, r0, r0
878077b0:	20000000 	andcs	r0, r0, r0
878077b4:	60000000 	andvs	r0, r0, r0
878077b8:	e0000000 	and	r0, r0, r0
878077bc:	00030000 	andeq	r0, r3, r0
	...
87807804:	20000002 	andcs	r0, r0, r2
87807808:	20000002 	andcs	r0, r0, r2
8780780c:	e0ffff03 	rscs	pc, pc, r3, lsl #30
87807810:	2000e003 	andcs	lr, r0, r3
87807814:	2000ff03 	andcs	pc, r0, r3, lsl #30
87807818:	00f01f00 	rscseq	r1, r0, r0, lsl #30
8780781c:	80ff0100 	rscshi	r0, pc, r0, lsl #2
87807820:	e00f0000 	and	r0, pc, r0
87807824:	001e0000 	andseq	r0, lr, r0
87807828:	00e00300 	rsceq	r0, r0, r0, lsl #6
8780782c:	20003e00 	andcs	r3, r0, r0, lsl #28
87807830:	2000e003 	andcs	lr, r0, r3
87807834:	e0ffff03 	rscs	pc, pc, r3, lsl #30
87807838:	e0ffff03 	rscs	pc, pc, r3, lsl #30
8780783c:	20000002 	andcs	r0, r0, r2
87807840:	20000002 	andcs	r0, r0, r2
	...
87807884:	20000002 	andcs	r0, r0, r2
87807888:	20000002 	andcs	r0, r0, r2
8780788c:	e0ffff03 	rscs	pc, pc, r3, lsl #30
87807890:	20008003 	andcs	r8, r0, r3
87807894:	2000f003 	andcs	pc, r0, r3
87807898:	0000fc00 	andeq	pc, r0, r0, lsl #24
8780789c:	00001f00 	andeq	r1, r0, r0, lsl #30
878078a0:	00c00700 	sbceq	r0, r0, r0, lsl #14
878078a4:	00f00100 	rscseq	r0, r0, r0, lsl #2
878078a8:	007c0000 	rsbseq	r0, ip, r0
878078ac:	801f0002 	andshi	r0, pc, r2
878078b0:	e0070002 	and	r0, r7, r2
878078b4:	e0ffff03 	rscs	pc, pc, r3, lsl #30
878078b8:	00000002 	andeq	r0, r0, r2
878078bc:	00000002 	andeq	r0, r0, r2
	...
87807908:	00f80f00 	rscseq	r0, r8, r0, lsl #30
8780790c:	00fe3f00 	rscseq	r3, lr, r0, lsl #30
87807910:	8007f000 	andhi	pc, r7, r0
87807914:	c0008001 	andgt	r8, r0, r1
87807918:	40000001 	andmi	r0, r0, r1
8780791c:	20000002 	andcs	r0, r0, r2
87807920:	20000002 	andcs	r0, r0, r2
87807924:	20000002 	andcs	r0, r0, r2
87807928:	20000002 	andcs	r0, r0, r2
8780792c:	40000001 	andmi	r0, r0, r1
87807930:	c0008001 	andgt	r8, r0, r1
87807934:	8003f000 	andhi	pc, r3, r0
87807938:	00fe3f00 	rscseq	r3, lr, r0, lsl #30
8780793c:	00f80f00 	rscseq	r0, r8, r0, lsl #30
	...
87807988:	20000002 	andcs	r0, r0, r2
8780798c:	20000002 	andcs	r0, r0, r2
87807990:	e0ffff03 	rscs	pc, pc, r3, lsl #30
87807994:	e0ffff03 	rscs	pc, pc, r3, lsl #30
87807998:	20800002 	addcs	r0, r0, r2
8780799c:	20800002 	addcs	r0, r0, r2
878079a0:	00800002 	addeq	r0, r0, r2
878079a4:	00800002 	addeq	r0, r0, r2
878079a8:	00800002 	addeq	r0, r0, r2
878079ac:	00800002 	addeq	r0, r0, r2
878079b0:	00800103 	addeq	r0, r0, r3, lsl #2
878079b4:	00008301 	andeq	r8, r0, r1, lsl #6
878079b8:	0000fe00 	andeq	pc, r0, r0, lsl #28
878079bc:	00007c00 	andeq	r7, r0, r0, lsl #24
	...
87807a08:	00f80f00 	rscseq	r0, r8, r0, lsl #30
87807a0c:	00ff7f00 	rscseq	r7, pc, r0, lsl #30
87807a10:	8003f000 	andhi	pc, r3, r0
87807a14:	c0018001 	andgt	r8, r1, r1
87807a18:	40060001 	andmi	r0, r6, r1
87807a1c:	20040002 	andcs	r0, r4, r2
87807a20:	20040002 	andcs	r0, r4, r2
87807a24:	20060002 	andcs	r0, r6, r2
87807a28:	e0030002 	and	r0, r3, r2
87807a2c:	f8000001 			; <UNDEFINED> instruction: 0xf8000001
87807a30:	5c008001 	stcpl	0, cr8, [r0], {1}
87807a34:	8c03e000 	stchi	0, cr14, [r3], {-0}
87807a38:	0cff3f00 	ldcleq	15, cr3, [pc]	; 87807a40 <asc2_3216+0x18bc>
87807a3c:	18fc0f00 	ldmne	ip!, {r8, r9, sl, fp}^
	...
87807a88:	20000002 	andcs	r0, r0, r2
87807a8c:	20000002 	andcs	r0, r0, r2
87807a90:	e0ffff03 	rscs	pc, pc, r3, lsl #30
87807a94:	e0ffff03 	rscs	pc, pc, r3, lsl #30
87807a98:	20000102 	andcs	r0, r0, r2, lsl #2
87807a9c:	20000102 	andcs	r0, r0, r2, lsl #2
87807aa0:	00800102 	addeq	r0, r0, r2, lsl #2
87807aa4:	00e00102 	rsceq	r0, r0, r2, lsl #2
87807aa8:	00fc0102 	rscseq	r0, ip, r2, lsl #2
87807aac:	803f0303 	eorshi	r0, pc, r3, lsl #6
87807ab0:	e0078601 	and	r8, r7, r1, lsl #12
87807ab4:	e000fc01 	and	pc, r0, r1, lsl #24
87807ab8:	2000f800 	andcs	pc, r0, r0, lsl #16
87807abc:	20000000 	andcs	r0, r0, r0
	...
87807b0c:	00067800 	andeq	r7, r6, r0, lsl #16
87807b10:	e001fe00 	and	pc, r1, r0, lsl #28
87807b14:	c0008601 	andgt	r8, r0, r1, lsl #12
87807b18:	40000303 	andmi	r0, r0, r3, lsl #6
87807b1c:	20000302 	andcs	r0, r0, r2, lsl #6
87807b20:	20800102 	addcs	r0, r0, r2, lsl #2
87807b24:	20800102 	addcs	r0, r0, r2, lsl #2
87807b28:	20c00102 	sbccs	r0, r0, r2, lsl #2
87807b2c:	20c00002 	sbccs	r0, r0, r2
87807b30:	60e00001 	rscvs	r0, r0, r1
87807b34:	c0708001 	rsbsgt	r8, r0, r1
87807b38:	803fe003 	eorshi	lr, pc, r3
87807b3c:	001f0000 	andseq	r0, pc, r0
	...
87807b88:	00006000 	andeq	r6, r0, r0
87807b8c:	00008003 	andeq	r8, r0, r3
87807b90:	00000003 	andeq	r0, r0, r3
87807b94:	00000002 	andeq	r0, r0, r2
87807b98:	20000002 	andcs	r0, r0, r2
87807b9c:	20000002 	andcs	r0, r0, r2
87807ba0:	e0ffff03 	rscs	pc, pc, r3, lsl #30
87807ba4:	e0ffff03 	rscs	pc, pc, r3, lsl #30
87807ba8:	20000002 	andcs	r0, r0, r2
87807bac:	20000002 	andcs	r0, r0, r2
87807bb0:	00000002 	andeq	r0, r0, r2
87807bb4:	00000002 	andeq	r0, r0, r2
87807bb8:	00008003 	andeq	r8, r0, r3
87807bbc:	0000e000 	andeq	lr, r0, r0
	...
87807c04:	00000002 	andeq	r0, r0, r2
87807c08:	00000002 	andeq	r0, r0, r2
87807c0c:	00ffff03 	rscseq	pc, pc, r3, lsl #30
87807c10:	c0ffff03 	rscsgt	pc, pc, r3, lsl #30
87807c14:	40000002 	andmi	r0, r0, r2
87807c18:	60000002 	andvs	r0, r0, r2
87807c1c:	20000000 	andcs	r0, r0, r0
87807c20:	20000000 	andcs	r0, r0, r0
87807c24:	20000000 	andcs	r0, r0, r0
87807c28:	20000000 	andcs	r0, r0, r0
87807c2c:	40000002 	andmi	r0, r0, r2
87807c30:	80000002 	andhi	r0, r0, r2
87807c34:	00ffff03 	rscseq	pc, pc, r3, lsl #30
87807c38:	00000002 	andeq	r0, r0, r2
87807c3c:	00000002 	andeq	r0, r0, r2
	...
87807c88:	00000002 	andeq	r0, r0, r2
87807c8c:	00000002 	andeq	r0, r0, r2
87807c90:	0000c003 	andeq	ip, r0, r3
87807c94:	0000fc03 	andeq	pc, r0, r3, lsl #24
87807c98:	00c03f02 	sbceq	r3, r0, r2, lsl #30
87807c9c:	00f80300 	rscseq	r0, r8, r0, lsl #6
87807ca0:	807f0000 	rsbshi	r0, pc, r0
87807ca4:	e0070000 	and	r0, r7, r0
87807ca8:	80070000 	andhi	r0, r7, r0
87807cac:	00780000 	rsbseq	r0, r8, r0
87807cb0:	00c00302 	sbceq	r0, r0, r2, lsl #6
87807cb4:	00003c02 	andeq	r3, r0, r2, lsl #24
87807cb8:	0000c003 	andeq	ip, r0, r3
87807cbc:	00000002 	andeq	r0, r0, r2
87807cc0:	00000002 	andeq	r0, r0, r2
	...
87807d04:	00000002 	andeq	r0, r0, r2
87807d08:	0000c003 	andeq	ip, r0, r3
87807d0c:	0080ff03 	addeq	pc, r0, r3, lsl #30
87807d10:	00fe3f02 	rscseq	r3, lr, r2, lsl #30
87807d14:	e07f0002 	rsbs	r0, pc, r2
87807d18:	000f0000 	andeq	r0, pc, r0
87807d1c:	00f00002 	rscseq	r0, r0, r2
87807d20:	0000ef03 	andeq	lr, r0, r3, lsl #30
87807d24:	0080ff03 	addeq	pc, r0, r3, lsl #30
87807d28:	00fe0f02 	rscseq	r0, lr, r2, lsl #30
87807d2c:	e03f0000 	eors	r0, pc, r0
87807d30:	001f0000 	andseq	r0, pc, r0
87807d34:	00e00702 	rsceq	r0, r0, r2, lsl #14
87807d38:	0000f803 	andeq	pc, r0, r3, lsl #16
87807d3c:	00000003 	andeq	r0, r0, r3
87807d40:	00000002 	andeq	r0, r0, r2
	...
87807d88:	20000002 	andcs	r0, r0, r2
87807d8c:	20000002 	andcs	r0, r0, r2
87807d90:	e0008003 	and	r8, r0, r3
87807d94:	2003f003 	andcs	pc, r3, r3
87807d98:	200cfc02 	andcs	pc, ip, r2, lsl #24
87807d9c:	00301f02 	eorseq	r1, r0, r2, lsl #30
87807da0:	00c00700 	sbceq	r0, r0, r0, lsl #14
87807da4:	00f00700 	rscseq	r0, r0, r0, lsl #14
87807da8:	007c1802 	rsbseq	r1, ip, r2, lsl #16
87807dac:	201f6002 	andscs	r6, pc, r2
87807db0:	e0038003 	and	r8, r3, r3
87807db4:	e0000002 	and	r0, r0, r2
87807db8:	20000002 	andcs	r0, r0, r2
87807dbc:	20000000 	andcs	r0, r0, r0
	...
87807e08:	00000002 	andeq	r0, r0, r2
87807e0c:	00000003 	andeq	r0, r0, r3
87807e10:	0000c003 	andeq	ip, r0, r3
87807e14:	0000f803 	andeq	pc, r0, r3, lsl #16
87807e18:	20003e02 	andcs	r3, r0, r2, lsl #28
87807e1c:	20c00f02 	sbccs	r0, r0, r2, lsl #30
87807e20:	e0ff0100 	rscs	r0, pc, r0, lsl #2
87807e24:	e07f0000 	rsbs	r0, pc, r0
87807e28:	20800300 	addcs	r0, r0, r0, lsl #6
87807e2c:	20001c02 	andcs	r1, r0, r2, lsl #24
87807e30:	00007002 	andeq	r7, r0, r2
87807e34:	00008003 	andeq	r8, r0, r3
87807e38:	00000002 	andeq	r0, r0, r2
87807e3c:	00000002 	andeq	r0, r0, r2
	...
87807e88:	20000000 	andcs	r0, r0, r0
87807e8c:	e0006000 	and	r6, r0, r0
87807e90:	e0038003 	and	r8, r3, r3
87807e94:	a00f0003 	andge	r0, pc, r3
87807e98:	203e0002 	eorscs	r0, lr, r2
87807e9c:	20f80002 	rscscs	r0, r8, r2
87807ea0:	20e00302 	rsccs	r0, r0, r2, lsl #6
87807ea4:	20800f02 	addcs	r0, r0, r2, lsl #30
87807ea8:	20003e02 	andcs	r3, r0, r2, lsl #28
87807eac:	20007802 	andcs	r7, r0, r2, lsl #16
87807eb0:	6000e003 	andvs	lr, r0, r3
87807eb4:	e0008003 	and	r8, r0, r3
87807eb8:	00030002 	andeq	r0, r3, r2
	...
87807f1c:	fcffff1f 	ldc2l	15, cr15, [pc], #124	; 87807fa0 <asc2_3216+0x1e1c>
87807f20:	04000010 	streq	r0, [r0], #-16
87807f24:	04000010 	streq	r0, [r0], #-16
87807f28:	04000010 	streq	r0, [r0], #-16
87807f2c:	04000010 	streq	r0, [r0], #-16
87807f30:	04000010 	streq	r0, [r0], #-16
87807f34:	04000010 	streq	r0, [r0], #-16
87807f38:	04000010 	streq	r0, [r0], #-16
	...
87807f90:	00000007 	andeq	r0, r0, r7
87807f94:	0000c003 	andeq	ip, r0, r3
87807f98:	00007800 	andeq	r7, r0, r0, lsl #16
87807f9c:	00001e00 	andeq	r1, r0, r0, lsl #28
87807fa0:	00c00300 	sbceq	r0, r0, r0, lsl #6
87807fa4:	00f00000 	rscseq	r0, r0, r0
87807fa8:	001e0000 	andseq	r0, lr, r0
87807fac:	80070000 	andhi	r0, r7, r0
87807fb0:	f0000000 			; <UNDEFINED> instruction: 0xf0000000
87807fb4:	3c000000 	stccc	0, cr0, [r0], {-0}
87807fb8:	06000000 	streq	r0, [r0], -r0
	...
8780800c:	04000010 	streq	r0, [r0], #-16
87808010:	04000010 	streq	r0, [r0], #-16
87808014:	04000010 	streq	r0, [r0], #-16
87808018:	04000010 	streq	r0, [r0], #-16
8780801c:	04000010 	streq	r0, [r0], #-16
87808020:	04000010 	streq	r0, [r0], #-16
87808024:	04000010 	streq	r0, [r0], #-16
87808028:	fcffff1f 	ldc2l	15, cr15, [pc], #124	; 878080ac <asc2_3216+0x1f28>
	...
87808094:	00000002 	andeq	r0, r0, r2
87808098:	00000004 	andeq	r0, r0, r4
8780809c:	00000008 	andeq	r0, r0, r8
878080a0:	00000018 	andeq	r0, r0, r8, lsl r0
878080a4:	00000010 	andeq	r0, r0, r0, lsl r0
878080a8:	00000018 	andeq	r0, r0, r8, lsl r0
878080ac:	00000018 	andeq	r0, r0, r8, lsl r0
878080b0:	00000004 	andeq	r0, r0, r4
878080b4:	00000002 	andeq	r0, r0, r2
	...
87808104:	01000000 	mrseq	r0, (UNDEF: 0)
87808108:	01000000 	mrseq	r0, (UNDEF: 0)
8780810c:	01000000 	mrseq	r0, (UNDEF: 0)
87808110:	01000000 	mrseq	r0, (UNDEF: 0)
87808114:	01000000 	mrseq	r0, (UNDEF: 0)
87808118:	01000000 	mrseq	r0, (UNDEF: 0)
8780811c:	01000000 	mrseq	r0, (UNDEF: 0)
87808120:	01000000 	mrseq	r0, (UNDEF: 0)
87808124:	01000000 	mrseq	r0, (UNDEF: 0)
87808128:	01000000 	mrseq	r0, (UNDEF: 0)
8780812c:	01000000 	mrseq	r0, (UNDEF: 0)
87808130:	01000000 	mrseq	r0, (UNDEF: 0)
87808134:	01000000 	mrseq	r0, (UNDEF: 0)
87808138:	01000000 	mrseq	r0, (UNDEF: 0)
8780813c:	01000000 	mrseq	r0, (UNDEF: 0)
87808140:	01000000 	mrseq	r0, (UNDEF: 0)
	...
87808190:	00000010 	andeq	r0, r0, r0, lsl r0
87808194:	00000010 	andeq	r0, r0, r0, lsl r0
87808198:	00000010 	andeq	r0, r0, r0, lsl r0
8780819c:	00000018 	andeq	r0, r0, r8, lsl r0
878081a0:	00000008 	andeq	r0, r0, r8
878081a4:	00000004 	andeq	r0, r0, r4
	...
87808208:	80030000 	andhi	r0, r3, r0
8780820c:	c08f0100 	addgt	r0, pc, r0, lsl #2
87808210:	608c0300 	addvs	r0, ip, r0, lsl #6
87808214:	20180600 	andscs	r0, r8, r0, lsl #12
87808218:	20100400 	andscs	r0, r0, r0, lsl #8
8780821c:	20100400 	andscs	r0, r0, r0, lsl #8
87808220:	20200400 	eorcs	r0, r0, r0, lsl #8
87808224:	40200400 	eormi	r0, r0, r0, lsl #8
87808228:	40200600 	eormi	r0, r0, r0, lsl #12
8780822c:	c0ff0300 	rscsgt	r0, pc, r0, lsl #6
87808230:	e0ff0100 	rscs	r0, pc, r0, lsl #2
87808234:	20000000 	andcs	r0, r0, r0
87808238:	20000000 	andcs	r0, r0, r0
8780823c:	c0000000 	andgt	r0, r0, r0
	...
87808288:	00000002 	andeq	r0, r0, r2
8780828c:	00000002 	andeq	r0, r0, r2
87808290:	e0ffff03 	rscs	pc, pc, r3, lsl #30
87808294:	c0ffff07 	rscsgt	pc, pc, r7, lsl #30
87808298:	c0800100 	addgt	r0, r0, r0, lsl #2
8780829c:	60000200 	andvs	r0, r0, r0, lsl #4
878082a0:	20000200 	andcs	r0, r0, r0, lsl #4
878082a4:	20000400 	andcs	r0, r0, r0, lsl #8
878082a8:	20000400 	andcs	r0, r0, r0, lsl #8
878082ac:	20000400 	andcs	r0, r0, r0, lsl #8
878082b0:	40000600 	andmi	r0, r0, r0, lsl #12
878082b4:	c0000300 	andgt	r0, r0, r0, lsl #6
878082b8:	80ff0100 	rscshi	r0, pc, r0, lsl #2
878082bc:	00fe0000 	rscseq	r0, lr, r0
	...
8780830c:	007e0000 	rsbseq	r0, lr, r0
87808310:	80ff0100 	rscshi	r0, pc, r0, lsl #2
87808314:	c0810300 	addgt	r0, r1, r0, lsl #6
87808318:	40000200 	andmi	r0, r0, r0, lsl #4
8780831c:	20000600 	andcs	r0, r0, r0, lsl #12
87808320:	20000400 	andcs	r0, r0, r0, lsl #8
87808324:	20000400 	andcs	r0, r0, r0, lsl #8
87808328:	20000400 	andcs	r0, r0, r0, lsl #8
8780832c:	20000600 	andcs	r0, r0, r0, lsl #12
87808330:	40c00300 	sbcmi	r0, r0, r0, lsl #6
87808334:	80c00100 	sbchi	r0, r0, r0, lsl #2
87808338:	00030000 	andeq	r0, r3, r0
	...
8780838c:	007e0000 	rsbseq	r0, lr, r0
87808390:	80ff0100 	rscshi	r0, pc, r0, lsl #2
87808394:	c0800300 	addgt	r0, r0, r0, lsl #6
87808398:	60000600 	andvs	r0, r0, r0, lsl #12
8780839c:	20000400 	andcs	r0, r0, r0, lsl #8
878083a0:	20000400 	andcs	r0, r0, r0, lsl #8
878083a4:	20000400 	andcs	r0, r0, r0, lsl #8
878083a8:	40000402 	andmi	r0, r0, r2, lsl #8
878083ac:	80000202 	andhi	r0, r0, r2, lsl #4
878083b0:	e0ffff03 	rscs	pc, pc, r3, lsl #30
878083b4:	c0ffff07 	rscsgt	pc, pc, r7, lsl #30
878083b8:	40000000 	andmi	r0, r0, r0
878083bc:	40000000 	andmi	r0, r0, r0
	...
8780840c:	007e0000 	rsbseq	r0, lr, r0
87808410:	80ff0100 	rscshi	r0, pc, r0, lsl #2
87808414:	c0110300 	andsgt	r0, r1, r0, lsl #6
87808418:	40100200 	andsmi	r0, r0, r0, lsl #4
8780841c:	60100400 	andsvs	r0, r0, r0, lsl #8
87808420:	20100400 	andscs	r0, r0, r0, lsl #8
87808424:	20100400 	andscs	r0, r0, r0, lsl #8
87808428:	20100400 	andscs	r0, r0, r0, lsl #8
8780842c:	20100600 	andscs	r0, r0, r0, lsl #12
87808430:	40100300 	andsmi	r0, r0, r0, lsl #6
87808434:	c0f00100 	rscsgt	r0, r0, r0, lsl #2
87808438:	00710000 	rsbseq	r0, r1, r0
	...
8780848c:	00000400 	andeq	r0, r0, r0, lsl #8
87808490:	20000400 	andcs	r0, r0, r0, lsl #8
87808494:	20000400 	andcs	r0, r0, r0, lsl #8
87808498:	20000400 	andcs	r0, r0, r0, lsl #8
8780849c:	e0ff7f00 	rscs	r7, pc, r0, lsl #30
878084a0:	e0ffff01 	rscs	pc, pc, r1, lsl #30
878084a4:	20000401 	andcs	r0, r0, r1, lsl #8
878084a8:	20000403 	andcs	r0, r0, r3, lsl #8
878084ac:	20000402 	andcs	r0, r0, r2, lsl #8
878084b0:	20000402 	andcs	r0, r0, r2, lsl #8
878084b4:	00000402 	andeq	r0, r0, r2, lsl #8
878084b8:	00000002 	andeq	r0, r0, r2
878084bc:	0000c001 	andeq	ip, r0, r1
878084c0:	0000c001 	andeq	ip, r0, r1
	...
8780850c:	1c000000 	stcne	0, cr0, [r0], {-0}
87808510:	3ee30000 	cdpcc	0, 14, cr0, cr3, cr0, {0}
87808514:	c2ff0300 	rscsgt	r0, pc, #0, 6
87808518:	c30c0200 	movwgt	r0, #49664	; 0xc200
8780851c:	c1040400 	tstgt	r4, r0, lsl #8
87808520:	c1040400 	tstgt	r4, r0, lsl #8
87808524:	c1040400 	tstgt	r4, r0, lsl #8
87808528:	c1040400 	tstgt	r4, r0, lsl #8
8780852c:	c10c0600 	tstgt	ip, r0, lsl #12
87808530:	c3f80300 	mvnsgt	r0, #0, 6
87808534:	62f00500 	rscsvs	r0, r0, #0, 10
87808538:	7e000600 	cfmadd32vc	mvax0, mvfx0, mvfx0, mvfx0
8780853c:	3c000600 	stccc	6, cr0, [r0], {-0}
	...
87808588:	20000002 	andcs	r0, r0, r2
8780858c:	20000002 	andcs	r0, r0, r2
87808590:	e0ffff03 	rscs	pc, pc, r3, lsl #30
87808594:	e0ffff07 	rscs	pc, pc, r7, lsl #30
87808598:	20000100 	andcs	r0, r0, r0, lsl #2
8780859c:	20000200 	andcs	r0, r0, r0, lsl #4
878085a0:	00000600 	andeq	r0, r0, r0, lsl #12
878085a4:	00000400 	andeq	r0, r0, r0, lsl #8
878085a8:	00000400 	andeq	r0, r0, r0, lsl #8
878085ac:	20000400 	andcs	r0, r0, r0, lsl #8
878085b0:	20000600 	andcs	r0, r0, r0, lsl #12
878085b4:	e0ff0300 	rscs	r0, pc, r0, lsl #6
878085b8:	e0ff0100 	rscs	r0, pc, r0, lsl #2
878085bc:	20000000 	andcs	r0, r0, r0
878085c0:	20000000 	andcs	r0, r0, r0
	...
87808610:	20000400 	andcs	r0, r0, r0, lsl #8
87808614:	20000400 	andcs	r0, r0, r0, lsl #8
87808618:	20000400 	andcs	r0, r0, r0, lsl #8
8780861c:	20000400 	andcs	r0, r0, r0, lsl #8
87808620:	e0ff8703 	rscs	r8, pc, r3, lsl #14
87808624:	e0ff8f03 	rscs	r8, pc, r3, lsl #30
87808628:	20008003 	andcs	r8, r0, r3
8780862c:	20000000 	andcs	r0, r0, r0
87808630:	20000000 	andcs	r0, r0, r0
87808634:	20000000 	andcs	r0, r0, r0
	...
87808690:	06000000 	streq	r0, [r0], -r0
87808694:	07000000 	streq	r0, [r0, -r0]
87808698:	01000000 	mrseq	r0, (UNDEF: 0)
8780869c:	01000000 	mrseq	r0, (UNDEF: 0)
878086a0:	01000400 	tsteq	r0, r0, lsl #8
878086a4:	01000400 	tsteq	r0, r0, lsl #8
878086a8:	03000400 	movweq	r0, #1024	; 0x400
878086ac:	06000400 	streq	r0, [r0], -r0, lsl #8
878086b0:	fcff8703 	ldc2l	7, cr8, [pc], #12	; 878086c4 <asc2_3216+0x2540>
878086b4:	f8ff8f03 			; <UNDEFINED> instruction: 0xf8ff8f03
878086b8:	00008003 	andeq	r8, r0, r3
	...
87808708:	20000002 	andcs	r0, r0, r2
8780870c:	20000002 	andcs	r0, r0, r2
87808710:	e0ffff03 	rscs	pc, pc, r3, lsl #30
87808714:	e0ffff07 	rscs	pc, pc, r7, lsl #30
87808718:	20080000 	andcs	r0, r8, r0
8780871c:	20100000 	andscs	r0, r0, r0
87808720:	00300000 	eorseq	r0, r0, r0
87808724:	00fc0000 	rscseq	r0, ip, r0
87808728:	008e0500 	addeq	r0, lr, r0, lsl #10
8780872c:	a0070700 	andge	r0, r7, r0, lsl #14
87808730:	e0010600 	and	r0, r1, r0, lsl #12
87808734:	e0000400 	and	r0, r0, r0, lsl #8
87808738:	20000400 	andcs	r0, r0, r0, lsl #8
8780873c:	20000000 	andcs	r0, r0, r0
	...
87808790:	20000002 	andcs	r0, r0, r2
87808794:	20000002 	andcs	r0, r0, r2
87808798:	20000002 	andcs	r0, r0, r2
8780879c:	20000002 	andcs	r0, r0, r2
878087a0:	e0ffff03 	rscs	pc, pc, r3, lsl #30
878087a4:	e0ffff07 	rscs	pc, pc, r7, lsl #30
878087a8:	20000000 	andcs	r0, r0, r0
878087ac:	20000000 	andcs	r0, r0, r0
878087b0:	20000000 	andcs	r0, r0, r0
878087b4:	20000000 	andcs	r0, r0, r0
	...
87808808:	20000400 	andcs	r0, r0, r0, lsl #8
8780880c:	e0ff0700 	rscs	r0, pc, r0, lsl #14
87808810:	e0ff0f00 	rscs	r0, pc, r0, lsl #30
87808814:	20000200 	andcs	r0, r0, r0, lsl #4
87808818:	00000400 	andeq	r0, r0, r0, lsl #8
8780881c:	20000400 	andcs	r0, r0, r0, lsl #8
87808820:	e0ff0700 	rscs	r0, pc, r0, lsl #14
87808824:	e0ff0300 	rscs	r0, pc, r0, lsl #6
87808828:	20000200 	andcs	r0, r0, r0, lsl #4
8780882c:	00000400 	andeq	r0, r0, r0, lsl #8
87808830:	20000400 	andcs	r0, r0, r0, lsl #8
87808834:	e0ff0700 	rscs	r0, pc, r0, lsl #14
87808838:	e0ff0300 	rscs	r0, pc, r0, lsl #6
8780883c:	20000000 	andcs	r0, r0, r0
	...
87808888:	20000400 	andcs	r0, r0, r0, lsl #8
8780888c:	20000400 	andcs	r0, r0, r0, lsl #8
87808890:	e0ff0700 	rscs	r0, pc, r0, lsl #14
87808894:	e0ff0f00 	rscs	r0, pc, r0, lsl #30
87808898:	20000100 	andcs	r0, r0, r0, lsl #2
8780889c:	20000200 	andcs	r0, r0, r0, lsl #4
878088a0:	00000200 	andeq	r0, r0, r0, lsl #4
878088a4:	00000400 	andeq	r0, r0, r0, lsl #8
878088a8:	00000400 	andeq	r0, r0, r0, lsl #8
878088ac:	20000400 	andcs	r0, r0, r0, lsl #8
878088b0:	20000600 	andcs	r0, r0, r0, lsl #12
878088b4:	e0ff0300 	rscs	r0, pc, r0, lsl #6
878088b8:	e0ff0100 	rscs	r0, pc, r0, lsl #2
878088bc:	20000000 	andcs	r0, r0, r0
878088c0:	20000000 	andcs	r0, r0, r0
	...
8780890c:	007e0000 	rsbseq	r0, lr, r0
87808910:	80ff0000 	rscshi	r0, pc, r0
87808914:	c0810300 	addgt	r0, r1, r0, lsl #6
87808918:	40000200 	andmi	r0, r0, r0, lsl #4
8780891c:	20000600 	andcs	r0, r0, r0, lsl #12
87808920:	20000400 	andcs	r0, r0, r0, lsl #8
87808924:	20000400 	andcs	r0, r0, r0, lsl #8
87808928:	20000400 	andcs	r0, r0, r0, lsl #8
8780892c:	20000600 	andcs	r0, r0, r0, lsl #12
87808930:	40000200 	andmi	r0, r0, r0, lsl #4
87808934:	c0810300 	addgt	r0, r1, r0, lsl #6
87808938:	80ff0100 	rscshi	r0, pc, r0, lsl #2
8780893c:	007e0000 	rsbseq	r0, lr, r0
	...
87808988:	01000400 	tsteq	r0, r0, lsl #8
8780898c:	01000400 	tsteq	r0, r0, lsl #8
87808990:	ffff0700 			; <UNDEFINED> instruction: 0xffff0700
87808994:	ffff0f00 			; <UNDEFINED> instruction: 0xffff0f00
87808998:	c1000100 	mrsgt	r0, (UNDEF: 16)
8780899c:	41000200 	mrsmi	r0, R8_usr
878089a0:	20000400 	andcs	r0, r0, r0, lsl #8
878089a4:	20000400 	andcs	r0, r0, r0, lsl #8
878089a8:	20000400 	andcs	r0, r0, r0, lsl #8
878089ac:	20000400 	andcs	r0, r0, r0, lsl #8
878089b0:	40000600 	andmi	r0, r0, r0, lsl #12
878089b4:	c0010300 	andgt	r0, r1, r0, lsl #6
878089b8:	80ff0100 	rscshi	r0, pc, r0, lsl #2
878089bc:	007e0000 	rsbseq	r0, lr, r0
	...
87808a0c:	007e0000 	rsbseq	r0, lr, r0
87808a10:	80ff0100 	rscshi	r0, pc, r0, lsl #2
87808a14:	c0800300 	addgt	r0, r0, r0, lsl #6
87808a18:	60000200 	andvs	r0, r0, r0, lsl #4
87808a1c:	20000400 	andcs	r0, r0, r0, lsl #8
87808a20:	20000400 	andcs	r0, r0, r0, lsl #8
87808a24:	20000400 	andcs	r0, r0, r0, lsl #8
87808a28:	20000400 	andcs	r0, r0, r0, lsl #8
87808a2c:	41000200 	mrsmi	r0, R8_usr
87808a30:	c1000300 	mrsgt	r0, LR_irq
87808a34:	ffff0300 			; <UNDEFINED> instruction: 0xffff0300
87808a38:	ffff0700 			; <UNDEFINED> instruction: 0xffff0700
87808a3c:	01000000 	mrseq	r0, (UNDEF: 0)
87808a40:	01000000 	mrseq	r0, (UNDEF: 0)
	...
87808a88:	20000400 	andcs	r0, r0, r0, lsl #8
87808a8c:	20000400 	andcs	r0, r0, r0, lsl #8
87808a90:	20000400 	andcs	r0, r0, r0, lsl #8
87808a94:	20000400 	andcs	r0, r0, r0, lsl #8
87808a98:	e0ff0f00 	rscs	r0, pc, r0, lsl #30
87808a9c:	e0ff0f00 	rscs	r0, pc, r0, lsl #30
87808aa0:	20c00000 	sbccs	r0, r0, r0
87808aa4:	20000100 	andcs	r0, r0, r0, lsl #2
87808aa8:	20000200 	andcs	r0, r0, r0, lsl #4
87808aac:	20000600 	andcs	r0, r0, r0, lsl #12
87808ab0:	00000400 	andeq	r0, r0, r0, lsl #8
87808ab4:	00000400 	andeq	r0, r0, r0, lsl #8
87808ab8:	00000700 	andeq	r0, r0, r0, lsl #14
87808abc:	00000300 	andeq	r0, r0, r0, lsl #6
	...
87808b0c:	e0030000 	and	r0, r3, r0
87808b10:	e0c00100 	sbc	r0, r0, r0, lsl #2
87808b14:	40e00300 	rscmi	r0, r0, r0, lsl #6
87808b18:	20300600 	eorscs	r0, r0, r0, lsl #12
87808b1c:	20300400 	eorscs	r0, r0, r0, lsl #8
87808b20:	20180400 	andscs	r0, r8, r0, lsl #8
87808b24:	20180400 	andscs	r0, r8, r0, lsl #8
87808b28:	20180400 	andscs	r0, r8, r0, lsl #8
87808b2c:	200c0400 	andcs	r0, ip, r0, lsl #8
87808b30:	600c0200 	andvs	r0, ip, r0, lsl #4
87808b34:	c0070300 	andgt	r0, r7, r0, lsl #6
87808b38:	80830700 	addhi	r0, r3, r0, lsl #14
	...
87808b8c:	00000400 	andeq	r0, r0, r0, lsl #8
87808b90:	00000400 	andeq	r0, r0, r0, lsl #8
87808b94:	00000400 	andeq	r0, r0, r0, lsl #8
87808b98:	00000c00 	andeq	r0, r0, r0, lsl #24
87808b9c:	80ff1f00 	rscshi	r1, pc, r0, lsl #30
87808ba0:	c0ffff00 	rscsgt	pc, pc, r0, lsl #30
87808ba4:	60000400 	andvs	r0, r0, r0, lsl #8
87808ba8:	20000400 	andcs	r0, r0, r0, lsl #8
87808bac:	20000400 	andcs	r0, r0, r0, lsl #8
87808bb0:	20000400 	andcs	r0, r0, r0, lsl #8
87808bb4:	40000400 	andmi	r0, r0, r0, lsl #8
87808bb8:	80010000 	andhi	r0, r1, r0
	...
87808c08:	00000400 	andeq	r0, r0, r0, lsl #8
87808c0c:	00000400 	andeq	r0, r0, r0, lsl #8
87808c10:	80ff0700 	rscshi	r0, pc, r0, lsl #14
87808c14:	c0ff0f00 	rscsgt	r0, pc, r0, lsl #30
87808c18:	60000000 	andvs	r0, r0, r0
87808c1c:	20000000 	andcs	r0, r0, r0
87808c20:	20000000 	andcs	r0, r0, r0
87808c24:	20000000 	andcs	r0, r0, r0
87808c28:	20000000 	andcs	r0, r0, r0
87808c2c:	40000400 	andmi	r0, r0, r0, lsl #8
87808c30:	80000400 	andhi	r0, r0, r0, lsl #8
87808c34:	e0ff0700 	rscs	r0, pc, r0, lsl #14
87808c38:	c0ff0f00 	rscsgt	r0, pc, r0, lsl #30
87808c3c:	40000000 	andmi	r0, r0, r0
87808c40:	40000000 	andmi	r0, r0, r0
	...
87808c88:	00000400 	andeq	r0, r0, r0, lsl #8
87808c8c:	00000400 	andeq	r0, r0, r0, lsl #8
87808c90:	00800700 	addeq	r0, r0, r0, lsl #14
87808c94:	00f00700 	rscseq	r0, r0, r0, lsl #14
87808c98:	00fe0400 	rscseq	r0, lr, r0, lsl #8
87808c9c:	c01f0400 	andsgt	r0, pc, r0, lsl #8
87808ca0:	e0030000 	and	r0, r3, r0
87808ca4:	80030000 	andhi	r0, r3, r0
87808ca8:	001c0000 	andseq	r0, ip, r0
87808cac:	00600400 	rsbeq	r0, r0, r0, lsl #8
87808cb0:	00800700 	addeq	r0, r0, r0, lsl #14
87808cb4:	00000600 	andeq	r0, r0, r0, lsl #12
87808cb8:	00000400 	andeq	r0, r0, r0, lsl #8
	...
87808d04:	00000400 	andeq	r0, r0, r0, lsl #8
87808d08:	00000600 	andeq	r0, r0, r0, lsl #12
87808d0c:	00c00700 	sbceq	r0, r0, r0, lsl #14
87808d10:	00fc0700 	rscseq	r0, ip, r0, lsl #14
87808d14:	803f0400 	eorshi	r0, pc, r0, lsl #8
87808d18:	e0030000 	and	r0, r3, r0
87808d1c:	800f0400 	andhi	r0, pc, r0, lsl #8
87808d20:	00f00600 	rscseq	r0, r0, r0, lsl #12
87808d24:	00f00700 	rscseq	r0, r0, r0, lsl #14
87808d28:	80ff0700 	rscshi	r0, pc, r0, lsl #14
87808d2c:	e00f0400 	and	r0, pc, r0, lsl #8
87808d30:	80030000 	andhi	r0, r3, r0
87808d34:	003c0400 	eorseq	r0, ip, r0, lsl #8
87808d38:	00c00700 	sbceq	r0, r0, r0, lsl #14
87808d3c:	00000600 	andeq	r0, r0, r0, lsl #12
87808d40:	00000400 	andeq	r0, r0, r0, lsl #8
	...
87808d88:	20000000 	andcs	r0, r0, r0
87808d8c:	20000400 	andcs	r0, r0, r0, lsl #8
87808d90:	60000400 	andvs	r0, r0, r0, lsl #8
87808d94:	e0000700 	and	r0, r0, r0, lsl #14
87808d98:	20830700 	addcs	r0, r3, r0, lsl #14
87808d9c:	00e60700 	rsceq	r0, r6, r0, lsl #14
87808da0:	00f80400 	rscseq	r0, r8, r0, lsl #8
87808da4:	003c0000 	eorseq	r0, ip, r0
87808da8:	205e0400 	subscs	r0, lr, r0, lsl #8
87808dac:	a0870500 	addge	r0, r7, r0, lsl #10
87808db0:	e0010600 	and	r0, r1, r0, lsl #12
87808db4:	60000400 	andvs	r0, r0, r0, lsl #8
87808db8:	20000400 	andcs	r0, r0, r0, lsl #8
87808dbc:	20000000 	andcs	r0, r0, r0
	...
87808e08:	00000400 	andeq	r0, r0, r0, lsl #8
87808e0c:	03000400 	movweq	r0, #1024	; 0x400
87808e10:	03000700 	movweq	r0, #1792	; 0x700
87808e14:	01e00700 	mvneq	r0, r0, lsl #14
87808e18:	01f80400 	mvnseq	r0, r0, lsl #8
87808e1c:	021f0400 	andseq	r0, pc, #0, 8
87808e20:	fc070000 	stc2	0, cr0, [r7], {-0}
87808e24:	e0000000 	and	r0, r0, r0
87808e28:	00070000 	andeq	r0, r7, r0
87808e2c:	00380400 	eorseq	r0, r8, r0, lsl #8
87808e30:	00c00700 	sbceq	r0, r0, r0, lsl #14
87808e34:	00000600 	andeq	r0, r0, r0, lsl #12
87808e38:	00000400 	andeq	r0, r0, r0, lsl #8
87808e3c:	00000400 	andeq	r0, r0, r0, lsl #8
	...
87808e8c:	60800700 	addvs	r0, r0, r0, lsl #14
87808e90:	e0000600 	and	r0, r0, r0, lsl #12
87808e94:	e0030400 	and	r0, r3, r0, lsl #8
87808e98:	a0070400 	andge	r0, r7, r0, lsl #8
87808e9c:	200e0400 	andcs	r0, lr, r0, lsl #8
87808ea0:	203c0400 	eorscs	r0, ip, r0, lsl #8
87808ea4:	20700400 	rsbscs	r0, r0, r0, lsl #8
87808ea8:	20e00500 	rsccs	r0, r0, r0, lsl #10
87808eac:	20800700 	addcs	r0, r0, r0, lsl #14
87808eb0:	60000700 	andvs	r0, r0, r0, lsl #14
87808eb4:	e0000400 	and	r0, r0, r0, lsl #8
87808eb8:	80030000 	andhi	r0, r3, r0
	...
87808f20:	00800000 	addeq	r0, r0, r0
87808f24:	00800000 	addeq	r0, r0, r0
87808f28:	00400100 	subeq	r0, r0, r0, lsl #2
87808f2c:	f83ffe07 			; <UNDEFINED> instruction: 0xf83ffe07
87808f30:	04000008 	streq	r0, [r0], #-8
87808f34:	02000010 	andeq	r0, r0, #16
87808f38:	02000010 	andeq	r0, r0, #16
	...
87808fa4:	ffffffff 			; <UNDEFINED> instruction: 0xffffffff
	...
8780900c:	02000010 	andeq	r0, r0, #16
87809010:	02000010 	andeq	r0, r0, #16
87809014:	04000008 	streq	r0, [r0], #-8
87809018:	f83ffe07 			; <UNDEFINED> instruction: 0xf83ffe07
8780901c:	00400100 	subeq	r0, r0, r0, lsl #2
87809020:	00800000 	addeq	r0, r0, r0
87809024:	00800000 	addeq	r0, r0, r0
	...
87809088:	00000018 	andeq	r0, r0, r8, lsl r0
8780908c:	00000030 	andeq	r0, r0, r0, lsr r0
87809090:	00000040 	andeq	r0, r0, r0, asr #32
87809094:	00000040 	andeq	r0, r0, r0, asr #32
87809098:	00000040 	andeq	r0, r0, r0, asr #32
8780909c:	00000020 	andeq	r0, r0, r0, lsr #32
878090a0:	00000030 	andeq	r0, r0, r0, lsr r0
878090a4:	00000008 	andeq	r0, r0, r8
878090a8:	00000004 	andeq	r0, r0, r4
878090ac:	00000002 	andeq	r0, r0, r2
878090b0:	00000002 	andeq	r0, r0, r2
878090b4:	00000002 	andeq	r0, r0, r2
878090b8:	0000000c 	andeq	r0, r0, ip
878090bc:	00000018 	andeq	r0, r0, r8, lsl r0
	...
87809104:	2044434c 	subcs	r4, r4, ip, asr #6
87809108:	253d4449 	ldrcs	r4, [sp, #-1097]!	; 0x449
8780910c:	0a0d5823 	beq	87b5f1a0 <__bss_end+0x355160>
87809110:	00000000 	andeq	r0, r0, r0

87809114 <.LANCHOR0>:
87809114:	00000000 	andeq	r0, r0, r0
87809118:	003b001f 	eorseq	r0, fp, pc, lsl r0
8780911c:	0078005a 	rsbseq	r0, r8, sl, asr r0
87809120:	00b50097 	umlalseq	r0, r5, r7, r0
87809124:	00f300d4 	ldrsbteq	r0, [r3], #4
87809128:	01300111 	teqeq	r0, r1, lsl r1
8780912c:	0000014e 	andeq	r0, r0, lr, asr #2
87809130:	1f1c1f00 	svcne	0x001c1f00
87809134:	1f1e1f1e 	svcne	0x001e1f1e
87809138:	1e1f1e1f 	mrcne	14, 0, r1, cr15, cr15, {0}
8780913c:	0000001f 	andeq	r0, r0, pc, lsl r0
87809140:	32337061 	eorscc	r7, r3, #97	; 0x61
87809144:	20633631 	rsbcs	r3, r3, r1, lsr r6
87809148:	79737973 	ldmdbvc	r3!, {r0, r1, r4, r5, r6, r8, fp, ip, sp, lr}^
8780914c:	206d6574 	rsbcs	r6, sp, r4, ror r5
87809150:	666e6f63 	strbtvs	r6, [lr], -r3, ror #30
87809154:	72206769 	eorvc	r6, r0, #27525120	; 0x1a40000
87809158:	253d6765 	ldrcs	r6, [sp, #-1893]!	; 0x765
8780915c:	0a0d7823 	beq	87b671f0 <__bss_end+0x35d1b0>
87809160:	00000000 	andeq	r0, r0, r0
87809164:	324d4349 	subcc	r4, sp, #603979777	; 0x24000001
87809168:	59475f30 	stmdbpl	r7, {r4, r5, r8, r9, sl, fp, ip, lr}^
8780916c:	435f4f52 	cmpmi	pc, #328	; 0x148
87809170:	49464e4f 	stmdbmi	r6, {r0, r1, r2, r3, r6, r9, sl, fp, lr}^
87809174:	203d2047 	eorscs	r2, sp, r7, asr #32
87809178:	0d782325 	ldcleq	3, cr2, [r8, #-148]!	; 0xffffff6c
8780917c:	0000000a 	andeq	r0, r0, sl
87809180:	63756f54 	cmnvs	r5, #84, 30	; 0x150
87809184:	72462068 	subvc	r2, r6, #104	; 0x68
87809188:	61776d69 	cmnvs	r7, r9, ror #26
8780918c:	56206572 			; <UNDEFINED> instruction: 0x56206572
87809190:	69737265 	ldmdbvs	r3!, {r0, r2, r5, r6, r9, ip, sp, lr}^
87809194:	253a6e6f 	ldrcs	r6, [sl, #-3695]!	; 0xe6f
87809198:	0a0d5823 	beq	87b5f22c <__bss_end+0x3551ec>
8780919c:	00000000 	andeq	r0, r0, r0

878091a0 <digits.8427>:
878091a0:	33323130 	teqcc	r2, #48, 2
878091a4:	37363534 			; <UNDEFINED> instruction: 0x37363534
878091a8:	42413938 	submi	r3, r1, #56, 18	; 0xe0000
878091ac:	46454443 	strbmi	r4, [r5], -r3, asr #8
878091b0:	4c554e3c 	mrrcmi	14, 3, r4, r5, cr12
878091b4:	00003e4c 	andeq	r3, r0, ip, asr #28

Disassembly of section .ARM.exidx:

878091b8 <.ARM.exidx>:
878091b8:	7fffb55c 	svcvc	0x00ffb55c
878091bc:	00000001 	andeq	r0, r0, r1

Disassembly of section .data:

878091c0 <release.7811>:
878091c0:	00000001 	andeq	r0, r0, r1

878091c4 <_ctype>:
878091c4:	08080808 	stmdaeq	r8, {r3, fp}
878091c8:	08080808 	stmdaeq	r8, {r3, fp}
878091cc:	28282808 	stmdacs	r8!, {r3, fp, sp}
878091d0:	08082828 	stmdaeq	r8, {r3, r5, fp, sp}
878091d4:	08080808 	stmdaeq	r8, {r3, fp}
878091d8:	08080808 	stmdaeq	r8, {r3, fp}
878091dc:	08080808 	stmdaeq	r8, {r3, fp}
878091e0:	08080808 	stmdaeq	r8, {r3, fp}
878091e4:	101010a0 	andsne	r1, r0, r0, lsr #1
878091e8:	10101010 	andsne	r1, r0, r0, lsl r0
878091ec:	10101010 	andsne	r1, r0, r0, lsl r0
878091f0:	10101010 	andsne	r1, r0, r0, lsl r0
878091f4:	04040404 	streq	r0, [r4], #-1028	; 0x404
878091f8:	04040404 	streq	r0, [r4], #-1028	; 0x404
878091fc:	10100404 	andsne	r0, r0, r4, lsl #8
87809200:	10101010 	andsne	r1, r0, r0, lsl r0
87809204:	41414110 	cmpmi	r1, r0, lsl r1
87809208:	01414141 	cmpeq	r1, r1, asr #2
8780920c:	01010101 	tsteq	r1, r1, lsl #2
87809210:	01010101 	tsteq	r1, r1, lsl #2
87809214:	01010101 	tsteq	r1, r1, lsl #2
87809218:	01010101 	tsteq	r1, r1, lsl #2
8780921c:	10010101 	andne	r0, r1, r1, lsl #2
87809220:	10101010 	andsne	r1, r0, r0, lsl r0
87809224:	42424210 	submi	r4, r2, #16, 4
87809228:	02424242 	subeq	r4, r2, #536870916	; 0x20000004
8780922c:	02020202 	andeq	r0, r2, #536870912	; 0x20000000
87809230:	02020202 	andeq	r0, r2, #536870912	; 0x20000000
87809234:	02020202 	andeq	r0, r2, #536870912	; 0x20000000
87809238:	02020202 	andeq	r0, r2, #536870912	; 0x20000000
8780923c:	10020202 	andne	r0, r2, r2, lsl #4
87809240:	08101010 	ldmdaeq	r0, {r4, ip}
	...
87809264:	101010a0 	andsne	r1, r0, r0, lsr #1
87809268:	10101010 	andsne	r1, r0, r0, lsl r0
8780926c:	10101010 	andsne	r1, r0, r0, lsl r0
87809270:	10101010 	andsne	r1, r0, r0, lsl r0
87809274:	10101010 	andsne	r1, r0, r0, lsl r0
87809278:	10101010 	andsne	r1, r0, r0, lsl r0
8780927c:	10101010 	andsne	r1, r0, r0, lsl r0
87809280:	10101010 	andsne	r1, r0, r0, lsl r0
87809284:	01010101 	tsteq	r1, r1, lsl #2
87809288:	01010101 	tsteq	r1, r1, lsl #2
8780928c:	01010101 	tsteq	r1, r1, lsl #2
87809290:	01010101 	tsteq	r1, r1, lsl #2
87809294:	01010101 	tsteq	r1, r1, lsl #2
87809298:	10010101 	andne	r0, r1, r1, lsl #2
8780929c:	01010101 	tsteq	r1, r1, lsl #2
878092a0:	02010101 	andeq	r0, r1, #1073741824	; 0x40000000
878092a4:	02020202 	andeq	r0, r2, #536870912	; 0x20000000
878092a8:	02020202 	andeq	r0, r2, #536870912	; 0x20000000
878092ac:	02020202 	andeq	r0, r2, #536870912	; 0x20000000
878092b0:	02020202 	andeq	r0, r2, #536870912	; 0x20000000
878092b4:	02020202 	andeq	r0, r2, #536870912	; 0x20000000
878092b8:	10020202 	andne	r0, r2, r2, lsl #4
878092bc:	02020202 	andeq	r0, r2, #536870912	; 0x20000000
878092c0:	02020202 	andeq	r0, r2, #536870912	; 0x20000000

Disassembly of section .bss:

878092c4 <__bss_start>:
878092c4:	00000000 	andeq	r0, r0, r0

878092c8 <irqTable>:
	...

878097c8 <state.8297>:
	...

878097c9 <state.8249>:
	...

878097ca <state.8302>:
	...

878097cc <g_pcOutBuf>:
	...

87809bcc <g_pcInBuf>:
	...

87809fcc <tftlcd_dev>:
	...

87809fec <icm20608_dev>:
	...

8780a024 <ft5426_dev>:
	...

8780a03c <___strtok>:
8780a03c:	00000000 	andeq	r0, r0, r0

Disassembly of section .ARM.attributes:

00000000 <.ARM.attributes>:
   0:	00003241 	andeq	r3, r0, r1, asr #4
   4:	61656100 	cmnvs	r5, r0, lsl #2
   8:	01006962 	tsteq	r0, r2, ror #18
   c:	00000028 	andeq	r0, r0, r8, lsr #32
  10:	412d3705 	teqmi	sp, r5, lsl #14
  14:	070a0600 	streq	r0, [sl, -r0, lsl #12]
  18:	09010841 	stmdbeq	r1, {r0, r6, fp}
  1c:	0c050a02 	stceq	10, cr0, [r5], {2}
  20:	14041202 	strne	r1, [r4], #-514	; 0x202
  24:	17011501 	strne	r1, [r1, -r1, lsl #10]
  28:	1a011803 	bne	4603c <shift+0x4603c>
  2c:	1c031b02 	stcne	11, cr1, [r3], {2}
  30:	地址 0x0000000000000030 越界。


Disassembly of section .comment:

00000000 <.comment>:
   0:	3a434347 	bcc	10d0d24 <shift+0x10d0d24>
   4:	694c2820 	stmdbvs	ip, {r5, fp, sp}^
   8:	6f72616e 	svcvs	0x0072616e
   c:	43434720 	movtmi	r4, #14112	; 0x3720
  10:	392e3420 	stmdbcc	lr!, {r5, sl, ip, sp}
  14:	3130322d 	teqcc	r0, sp, lsr #4
  18:	31302e37 	teqcc	r0, r7, lsr lr
  1c:	2e342029 	cdpcs	0, 3, cr2, cr4, cr9, {1}
  20:	00342e39 	eorseq	r2, r4, r9, lsr lr

Disassembly of section .debug_frame:

00000000 <.debug_frame>:
   0:	0000000c 	andeq	r0, r0, ip
   4:	ffffffff 			; <UNDEFINED> instruction: 0xffffffff
   8:	7c010001 	stcvc	0, cr0, [r1], {1}
   c:	000d0c0e 	andeq	r0, sp, lr, lsl #24
  10:	0000000c 	andeq	r0, r0, ip
  14:	00000000 	andeq	r0, r0, r0
  18:	87804461 	strhi	r4, [r0, r1, ror #8]
  1c:	0000025c 	andeq	r0, r0, ip, asr r2
  20:	0000000c 	andeq	r0, r0, ip
  24:	ffffffff 			; <UNDEFINED> instruction: 0xffffffff
  28:	7c020001 	stcvc	0, cr0, [r2], {1}
  2c:	000d0c0e 	andeq	r0, sp, lr, lsl #24
  30:	00000018 	andeq	r0, r0, r8, lsl r0
  34:	00000020 	andeq	r0, r0, r0, lsr #32
  38:	878046d8 			; <UNDEFINED> instruction: 0x878046d8
  3c:	00000030 	andeq	r0, r0, r0, lsr r0
  40:	8e100e50 	mrchi	14, 0, r0, cr0, cr0, {2}
  44:	0ece4703 	cdpeq	7, 12, cr4, cr14, cr3, {0}
  48:	00000010 	andeq	r0, r0, r0, lsl r0
  4c:	0000000c 	andeq	r0, r0, ip
  50:	ffffffff 			; <UNDEFINED> instruction: 0xffffffff
  54:	7c020001 	stcvc	0, cr0, [r2], {1}
  58:	000d0c0e 	andeq	r0, sp, lr, lsl #24
  5c:	00000020 	andeq	r0, r0, r0, lsr #32
  60:	0000004c 	andeq	r0, r0, ip, asr #32
  64:	87804714 	usada8hi	r0, r4, r7, r4
  68:	00000116 	andeq	r0, r0, r6, lsl r1
  6c:	841c0e42 	ldrhi	r0, [ip], #-3650	; 0xe42
  70:	86068507 	strhi	r8, [r6], -r7, lsl #10
  74:	88048705 	stmdahi	r4, {r0, r2, r8, r9, sl, pc}
  78:	8e028903 	cdphi	9, 0, cr8, cr2, cr3, {0}
  7c:	00000001 	andeq	r0, r0, r1

Disassembly of section .debug_line:

00000000 <.debug_line>:
   0:	00000100 	andeq	r0, r0, r0, lsl #2
   4:	00c70002 	sbceq	r0, r7, r2
   8:	01020000 	mrseq	r0, (UNDEF: 2)
   c:	000d0efb 	strdeq	r0, [sp], -fp
  10:	01010101 	tsteq	r1, r1, lsl #2
  14:	01000000 	mrseq	r0, (UNDEF: 0)
  18:	2f010000 	svccs	0x00010000
  1c:	656d6f68 	strbvs	r6, [sp, #-3944]!	; 0xf68
  20:	7763742f 	strbvc	r7, [r3, -pc, lsr #8]!
  24:	75622d67 	strbvc	r2, [r2, #-3431]!	; 0xd67
  28:	73646c69 	cmnvc	r4, #26880	; 0x6900
  2c:	6576616c 	ldrbvs	r6, [r6, #-364]!	; 0x16c
  30:	726f772f 	rsbvc	r7, pc, #12320768	; 0xbc0000
  34:	6170736b 	cmnvs	r0, fp, ror #6
  38:	742f6563 	strtvc	r6, [pc], #-1379	; 40 <shift+0x40>
  3c:	2d677763 	stclcs	7, cr7, [r7, #-396]!	; 0xfffffe74
  40:	656b616d 	strbvs	r6, [fp, #-365]!	; 0x16d
  44:	6c65722d 	sfmvs	f7, 2, [r5], #-180	; 0xffffff4c
  48:	65736165 	ldrbvs	r6, [r3, #-357]!	; 0x165
  4c:	62616c2f 	rsbvs	r6, r1, #12032	; 0x2f00
  50:	642f6c65 	strtvs	r6, [pc], #-3173	; 58 <shift+0x58>
  54:	656b636f 	strbvs	r6, [fp, #-879]!	; 0x36f
  58:	72742d72 	rsbsvc	r2, r4, #7296	; 0x1c80
  5c:	79747375 	ldmdbvc	r4!, {r0, r2, r4, r5, r6, r8, r9, ip, sp, lr}^
  60:	646d612d 	strbtvs	r6, [sp], #-301	; 0x12d
  64:	742d3436 	strtvc	r3, [sp], #-1078	; 0x436
  68:	2d677763 	stclcs	7, cr7, [r7, #-396]!	; 0xfffffe74
  6c:	6c697562 	cfstr64vs	mvdx7, [r9], #-392	; 0xfffffe78
  70:	61742f64 	cmnvs	r4, r4, ror #30
  74:	74656772 	strbtvc	r6, [r5], #-1906	; 0x772
  78:	6d72612f 	ldfvse	f6, [r2, #-188]!	; 0xffffff44
  7c:	6e696c2d 	cdpvs	12, 6, cr6, cr9, cr13, {1}
  80:	672d7875 			; <UNDEFINED> instruction: 0x672d7875
  84:	6165756e 	cmnvs	r5, lr, ror #10
  88:	66686962 	strbtvs	r6, [r8], -r2, ror #18
  8c:	616e732f 	cmnvs	lr, pc, lsr #6
  90:	6f687370 	svcvs	0x00687370
  94:	672f7374 			; <UNDEFINED> instruction: 0x672f7374
  98:	6c2d6363 	stcvs	3, cr6, [sp], #-396	; 0xfffffe74
  9c:	72616e69 	rsbvc	r6, r1, #1680	; 0x690
  a0:	2e342d6f 	cdpcs	13, 3, cr2, cr4, cr15, {3}
  a4:	30322d39 	eorscc	r2, r2, r9, lsr sp
  a8:	302e3731 	eorcc	r3, lr, r1, lsr r7
  ac:	696c2f31 	stmdbvs	ip!, {r0, r4, r5, r8, r9, sl, fp, sp}^
  b0:	63636762 	cmnvs	r3, #25690112	; 0x1880000
  b4:	6e6f632f 	cdpvs	3, 6, cr6, cr15, cr15, {1}
  b8:	2f676966 	svccs	0x00676966
  bc:	006d7261 	rsbeq	r7, sp, r1, ror #4
  c0:	62696c00 	rsbvs	r6, r9, #0, 24
  c4:	6e756631 	mrcvs	6, 3, r6, cr5, cr1, {1}
  c8:	532e7363 	teqpl	lr, #-1946157055	; 0x8c000001
  cc:	00000100 	andeq	r0, r0, r0, lsl #2
  d0:	02050000 	andeq	r0, r5, #0
  d4:	87804460 	strhi	r4, [r0, r0, ror #8]
  d8:	0107cf03 	tsteq	r7, r3, lsl #30
  dc:	2f212121 	svccs	0x00212121
  e0:	30212f21 	eorcc	r2, r1, r1, lsr #30
  e4:	14029102 	strne	r9, [r2], #-258	; 0x102
  e8:	21212221 	teqcs	r1, r1, lsr #4
  ec:	2f4c2221 	svccs	0x004c2221
  f0:	207aeb03 	rsbscs	lr, sl, r3, lsl #22
  f4:	5805af03 	stmdapl	r5, {r0, r1, r8, r9, sl, fp, sp, pc}
  f8:	2f2f2121 	svccs	0x002f2121
  fc:	022f2f2f 	eoreq	r2, pc, #47, 30	; 0xbc
 100:	01010001 	tsteq	r1, r1
 104:	000000dd 	ldrdeq	r0, [r0], -sp
 108:	00c30002 	sbceq	r0, r3, r2
 10c:	01020000 	mrseq	r0, (UNDEF: 2)
 110:	000d0efb 	strdeq	r0, [sp], -fp
 114:	01010101 	tsteq	r1, r1, lsl #2
 118:	01000000 	mrseq	r0, (UNDEF: 0)
 11c:	2f010000 	svccs	0x00010000
 120:	656d6f68 	strbvs	r6, [sp, #-3944]!	; 0xf68
 124:	7763742f 	strbvc	r7, [r3, -pc, lsr #8]!
 128:	75622d67 	strbvc	r2, [r2, #-3431]!	; 0xd67
 12c:	73646c69 	cmnvc	r4, #26880	; 0x6900
 130:	6576616c 	ldrbvs	r6, [r6, #-364]!	; 0x16c
 134:	726f772f 	rsbvc	r7, pc, #12320768	; 0xbc0000
 138:	6170736b 	cmnvs	r0, fp, ror #6
 13c:	742f6563 	strtvc	r6, [pc], #-1379	; 144 <shift+0x144>
 140:	2d677763 	stclcs	7, cr7, [r7, #-396]!	; 0xfffffe74
 144:	656b616d 	strbvs	r6, [fp, #-365]!	; 0x16d
 148:	6c65722d 	sfmvs	f7, 2, [r5], #-180	; 0xffffff4c
 14c:	65736165 	ldrbvs	r6, [r3, #-357]!	; 0x165
 150:	62616c2f 	rsbvs	r6, r1, #12032	; 0x2f00
 154:	642f6c65 	strtvs	r6, [pc], #-3173	; 15c <shift+0x15c>
 158:	656b636f 	strbvs	r6, [fp, #-879]!	; 0x36f
 15c:	72742d72 	rsbsvc	r2, r4, #7296	; 0x1c80
 160:	79747375 	ldmdbvc	r4!, {r0, r2, r4, r5, r6, r8, r9, ip, sp, lr}^
 164:	646d612d 	strbtvs	r6, [sp], #-301	; 0x12d
 168:	742d3436 	strtvc	r3, [sp], #-1078	; 0x436
 16c:	2d677763 	stclcs	7, cr7, [r7, #-396]!	; 0xfffffe74
 170:	6c697562 	cfstr64vs	mvdx7, [r9], #-392	; 0xfffffe78
 174:	61742f64 	cmnvs	r4, r4, ror #30
 178:	74656772 	strbtvc	r6, [r5], #-1906	; 0x772
 17c:	6d72612f 	ldfvse	f6, [r2, #-188]!	; 0xffffff44
 180:	6e696c2d 	cdpvs	12, 6, cr6, cr9, cr13, {1}
 184:	672d7875 			; <UNDEFINED> instruction: 0x672d7875
 188:	6165756e 	cmnvs	r5, lr, ror #10
 18c:	66686962 	strbtvs	r6, [r8], -r2, ror #18
 190:	616e732f 	cmnvs	lr, pc, lsr #6
 194:	6f687370 	svcvs	0x00687370
 198:	672f7374 			; <UNDEFINED> instruction: 0x672f7374
 19c:	6c2d6363 	stcvs	3, cr6, [sp], #-396	; 0xfffffe74
 1a0:	72616e69 	rsbvc	r6, r1, #1680	; 0x690
 1a4:	2e342d6f 	cdpcs	13, 3, cr2, cr4, cr15, {3}
 1a8:	30322d39 	eorscc	r2, r2, r9, lsr sp
 1ac:	302e3731 	eorcc	r3, lr, r1, lsr r7
 1b0:	696c2f31 	stmdbvs	ip!, {r0, r4, r5, r8, r9, sl, fp, sp}^
 1b4:	63636762 	cmnvs	r3, #25690112	; 0x1880000
 1b8:	6e6f632f 	cdpvs	3, 6, cr6, cr15, cr15, {1}
 1bc:	2f676966 	svccs	0x00676966
 1c0:	006d7261 	rsbeq	r7, sp, r1, ror #4
 1c4:	61706200 	cmnvs	r0, r0, lsl #4
 1c8:	532e6962 	teqpl	lr, #1605632	; 0x188000
 1cc:	00000100 	andeq	r0, r0, r0, lsl #2
 1d0:	02050000 	andeq	r0, r5, #0
 1d4:	878046d8 			; <UNDEFINED> instruction: 0x878046d8
 1d8:	0101fd03 	tsteq	r1, r3, lsl #26
 1dc:	592f4cbc 	stmdbpl	pc!, {r2, r3, r4, r5, r7, sl, fp, lr}	; <UNPREDICTABLE>
 1e0:	01000102 	tsteq	r0, r2, lsl #2
 1e4:	0000e301 	andeq	lr, r0, r1, lsl #6
 1e8:	c7000200 	strgt	r0, [r0, -r0, lsl #4]
 1ec:	02000000 	andeq	r0, r0, #0
 1f0:	0d0efb01 	vstreq	d15, [lr, #-4]
 1f4:	01010100 	mrseq	r0, (UNDEF: 17)
 1f8:	00000001 	andeq	r0, r0, r1
 1fc:	01000001 	tsteq	r0, r1
 200:	6d6f682f 	stclvs	8, cr6, [pc, #-188]!	; 14c <shift+0x14c>
 204:	63742f65 	cmnvs	r4, #404	; 0x194
 208:	622d6777 	eorvs	r6, sp, #31195136	; 0x1dc0000
 20c:	646c6975 	strbtvs	r6, [ip], #-2421	; 0x975
 210:	76616c73 			; <UNDEFINED> instruction: 0x76616c73
 214:	6f772f65 	svcvs	0x00772f65
 218:	70736b72 	rsbsvc	r6, r3, r2, ror fp
 21c:	2f656361 	svccs	0x00656361
 220:	67776374 			; <UNDEFINED> instruction: 0x67776374
 224:	6b616d2d 	blvs	185b6e0 <shift+0x185b6e0>
 228:	65722d65 	ldrbvs	r2, [r2, #-3429]!	; 0xd65
 22c:	7361656c 	cmnvc	r1, #108, 10	; 0x1b000000
 230:	616c2f65 	cmnvs	ip, r5, ror #30
 234:	2f6c6562 	svccs	0x006c6562
 238:	6b636f64 	blvs	18dbfd0 <shift+0x18dbfd0>
 23c:	742d7265 	strtvc	r7, [sp], #-613	; 0x265
 240:	74737572 	ldrbtvc	r7, [r3], #-1394	; 0x572
 244:	6d612d79 	stclvs	13, cr2, [r1, #-484]!	; 0xfffffe1c
 248:	2d343664 	ldccs	6, cr3, [r4, #-400]!	; 0xfffffe70
 24c:	67776374 			; <UNDEFINED> instruction: 0x67776374
 250:	6975622d 	ldmdbvs	r5!, {r0, r2, r3, r5, r9, sp, lr}^
 254:	742f646c 	strtvc	r6, [pc], #-1132	; 25c <shift+0x25c>
 258:	65677261 	strbvs	r7, [r7, #-609]!	; 0x261
 25c:	72612f74 	rsbvc	r2, r1, #116, 30	; 0x1d0
 260:	696c2d6d 	stmdbvs	ip!, {r0, r2, r3, r5, r6, r8, sl, fp, sp}^
 264:	2d78756e 	cfldr64cs	mvdx7, [r8, #-440]!	; 0xfffffe48
 268:	65756e67 	ldrbvs	r6, [r5, #-3687]!	; 0xe67
 26c:	68696261 	stmdavs	r9!, {r0, r5, r6, r9, sp, lr}^
 270:	6e732f66 	cdpvs	15, 7, cr2, cr3, cr6, {3}
 274:	68737061 	ldmdavs	r3!, {r0, r5, r6, ip, sp, lr}^
 278:	2f73746f 	svccs	0x0073746f
 27c:	2d636367 	stclcs	3, cr6, [r3, #-412]!	; 0xfffffe64
 280:	616e696c 	cmnvs	lr, ip, ror #18
 284:	342d6f72 	strtcc	r6, [sp], #-3954	; 0xf72
 288:	322d392e 	eorcc	r3, sp, #753664	; 0xb8000
 28c:	2e373130 	mrccs	1, 1, r3, cr7, cr0, {1}
 290:	6c2f3130 	stfvss	f3, [pc], #-192	; 1d8 <shift+0x1d8>
 294:	63676269 	cmnvs	r7, #-1879048186	; 0x90000006
 298:	6f632f63 	svcvs	0x00632f63
 29c:	6769666e 	strbvs	r6, [r9, -lr, ror #12]!
 2a0:	6d72612f 	ldfvse	f6, [r2, #-188]!	; 0xffffff44
 2a4:	696c0000 	stmdbvs	ip!, {}^	; <UNPREDICTABLE>
 2a8:	75663162 	strbvc	r3, [r6, #-354]!	; 0x162
 2ac:	2e73636e 	cdpcs	3, 7, cr6, cr3, cr14, {3}
 2b0:	00010053 	andeq	r0, r1, r3, asr r0
 2b4:	05000000 	streq	r0, [r0, #-0]
 2b8:	80470802 	subhi	r0, r7, r2, lsl #16
 2bc:	0ab00387 	beq	fec010e0 <__bss_end+0x773f70a0>
 2c0:	032f2101 	teqeq	pc, #1073741824	; 0x40000000
 2c4:	022e77bb 	eoreq	r7, lr, #49020928	; 0x2ec0000
 2c8:	01010001 	tsteq	r1, r1
 2cc:	00000113 	andeq	r0, r0, r3, lsl r1
 2d0:	00c70002 	sbceq	r0, r7, r2
 2d4:	01020000 	mrseq	r0, (UNDEF: 2)
 2d8:	000d0efb 	strdeq	r0, [sp], -fp
 2dc:	01010101 	tsteq	r1, r1, lsl #2
 2e0:	01000000 	mrseq	r0, (UNDEF: 0)
 2e4:	2f010000 	svccs	0x00010000
 2e8:	656d6f68 	strbvs	r6, [sp, #-3944]!	; 0xf68
 2ec:	7763742f 	strbvc	r7, [r3, -pc, lsr #8]!
 2f0:	75622d67 	strbvc	r2, [r2, #-3431]!	; 0xd67
 2f4:	73646c69 	cmnvc	r4, #26880	; 0x6900
 2f8:	6576616c 	ldrbvs	r6, [r6, #-364]!	; 0x16c
 2fc:	726f772f 	rsbvc	r7, pc, #12320768	; 0xbc0000
 300:	6170736b 	cmnvs	r0, fp, ror #6
 304:	742f6563 	strtvc	r6, [pc], #-1379	; 30c <shift+0x30c>
 308:	2d677763 	stclcs	7, cr7, [r7, #-396]!	; 0xfffffe74
 30c:	656b616d 	strbvs	r6, [fp, #-365]!	; 0x16d
 310:	6c65722d 	sfmvs	f7, 2, [r5], #-180	; 0xffffff4c
 314:	65736165 	ldrbvs	r6, [r3, #-357]!	; 0x165
 318:	62616c2f 	rsbvs	r6, r1, #12032	; 0x2f00
 31c:	642f6c65 	strtvs	r6, [pc], #-3173	; 324 <shift+0x324>
 320:	656b636f 	strbvs	r6, [fp, #-879]!	; 0x36f
 324:	72742d72 	rsbsvc	r2, r4, #7296	; 0x1c80
 328:	79747375 	ldmdbvc	r4!, {r0, r2, r4, r5, r6, r8, r9, ip, sp, lr}^
 32c:	646d612d 	strbtvs	r6, [sp], #-301	; 0x12d
 330:	742d3436 	strtvc	r3, [sp], #-1078	; 0x436
 334:	2d677763 	stclcs	7, cr7, [r7, #-396]!	; 0xfffffe74
 338:	6c697562 	cfstr64vs	mvdx7, [r9], #-392	; 0xfffffe78
 33c:	61742f64 	cmnvs	r4, r4, ror #30
 340:	74656772 	strbtvc	r6, [r5], #-1906	; 0x772
 344:	6d72612f 	ldfvse	f6, [r2, #-188]!	; 0xffffff44
 348:	6e696c2d 	cdpvs	12, 6, cr6, cr9, cr13, {1}
 34c:	672d7875 			; <UNDEFINED> instruction: 0x672d7875
 350:	6165756e 	cmnvs	r5, lr, ror #10
 354:	66686962 	strbtvs	r6, [r8], -r2, ror #18
 358:	616e732f 	cmnvs	lr, pc, lsr #6
 35c:	6f687370 	svcvs	0x00687370
 360:	672f7374 			; <UNDEFINED> instruction: 0x672f7374
 364:	6c2d6363 	stcvs	3, cr6, [sp], #-396	; 0xfffffe74
 368:	72616e69 	rsbvc	r6, r1, #1680	; 0x690
 36c:	2e342d6f 	cdpcs	13, 3, cr2, cr4, cr15, {3}
 370:	30322d39 	eorscc	r2, r2, r9, lsr sp
 374:	302e3731 	eorcc	r3, lr, r1, lsr r7
 378:	696c2f31 	stmdbvs	ip!, {r0, r4, r5, r8, r9, sl, fp, sp}^
 37c:	63636762 	cmnvs	r3, #25690112	; 0x1880000
 380:	696c0000 	stmdbvs	ip!, {}^	; <UNPREDICTABLE>
 384:	63636762 	cmnvs	r3, #25690112	; 0x1880000
 388:	00632e32 	rsbeq	r2, r3, r2, lsr lr
 38c:	6c000001 	stcvs	0, cr0, [r0], {1}
 390:	63676269 	cmnvs	r7, #-1879048186	; 0x90000006
 394:	682e3263 	stmdavs	lr!, {r0, r1, r5, r6, r9, ip, sp}
 398:	00000100 	andeq	r0, r0, r0, lsl #2
 39c:	02050000 	andeq	r0, r5, #0
 3a0:	87804714 	usada8hi	r0, r4, r7, r4
 3a4:	0107b003 	tsteq	r7, r3
 3a8:	200c032e 	andcs	r0, ip, lr, lsr #6
 3ac:	03207403 	teqeq	r0, #50331648	; 0x3000000
 3b0:	74033c0c 	strvc	r3, [r3], #-3084	; 0xc0c
 3b4:	0b03212e 	bleq	c8874 <shift+0xc8874>
 3b8:	4c4b223c 	sfmmi	f2, 2, [fp], {60}	; 0x3c
 3bc:	6803f921 	stmdavs	r3, {r0, r5, r8, fp, ip, sp, lr, pc}
 3c0:	3c18033c 	ldccc	3, cr0, [r8], {60}	; 0x3c
 3c4:	81212d23 	teqhi	r1, r3, lsr #26
 3c8:	86523032 			; <UNDEFINED> instruction: 0x86523032
 3cc:	33304d29 	teqcc	r0, #2624	; 0xa40
 3d0:	214921b9 	strhcs	r2, [r9, #-25]	; 0xffffffe7
 3d4:	21320821 	teqcs	r2, r1, lsr #16
 3d8:	2e550330 	mrccs	3, 2, r0, cr5, cr0, {1}
 3dc:	05024b49 	streq	r4, [r2, #-2889]	; 0xb49
 3e0:	地址 0x00000000000003e0 越界。


Disassembly of section .debug_info:

00000000 <.debug_info>:
   0:	000001bb 			; <UNDEFINED> instruction: 0x000001bb
   4:	00000002 	andeq	r0, r0, r2
   8:	01040000 	mrseq	r0, (UNDEF: 4)
   c:	00000000 	andeq	r0, r0, r0
  10:	87804460 	strhi	r4, [r0, r0, ror #8]
  14:	878046d6 			; <UNDEFINED> instruction: 0x878046d6
  18:	6d6f682f 	stclvs	8, cr6, [pc, #-188]!	; ffffff64 <__bss_end+0x787f5f24>
  1c:	63742f65 	cmnvs	r4, #404	; 0x194
  20:	622d6777 	eorvs	r6, sp, #31195136	; 0x1dc0000
  24:	646c6975 	strbtvs	r6, [ip], #-2421	; 0x975
  28:	76616c73 			; <UNDEFINED> instruction: 0x76616c73
  2c:	6f772f65 	svcvs	0x00772f65
  30:	70736b72 	rsbsvc	r6, r3, r2, ror fp
  34:	2f656361 	svccs	0x00656361
  38:	67776374 			; <UNDEFINED> instruction: 0x67776374
  3c:	6b616d2d 	blvs	185b4f8 <shift+0x185b4f8>
  40:	65722d65 	ldrbvs	r2, [r2, #-3429]!	; 0xd65
  44:	7361656c 	cmnvc	r1, #108, 10	; 0x1b000000
  48:	616c2f65 	cmnvs	ip, r5, ror #30
  4c:	2f6c6562 	svccs	0x006c6562
  50:	6b636f64 	blvs	18dbde8 <shift+0x18dbde8>
  54:	742d7265 	strtvc	r7, [sp], #-613	; 0x265
  58:	74737572 	ldrbtvc	r7, [r3], #-1394	; 0x572
  5c:	6d612d79 	stclvs	13, cr2, [r1, #-484]!	; 0xfffffe1c
  60:	2d343664 	ldccs	6, cr3, [r4, #-400]!	; 0xfffffe70
  64:	67776374 			; <UNDEFINED> instruction: 0x67776374
  68:	6975622d 	ldmdbvs	r5!, {r0, r2, r3, r5, r9, sp, lr}^
  6c:	742f646c 	strtvc	r6, [pc], #-1132	; 74 <shift+0x74>
  70:	65677261 	strbvs	r7, [r7, #-609]!	; 0x261
  74:	72612f74 	rsbvc	r2, r1, #116, 30	; 0x1d0
  78:	696c2d6d 	stmdbvs	ip!, {r0, r2, r3, r5, r6, r8, sl, fp, sp}^
  7c:	2d78756e 	cfldr64cs	mvdx7, [r8, #-440]!	; 0xfffffe48
  80:	65756e67 	ldrbvs	r6, [r5, #-3687]!	; 0xe67
  84:	68696261 	stmdavs	r9!, {r0, r5, r6, r9, sp, lr}^
  88:	6e732f66 	cdpvs	15, 7, cr2, cr3, cr6, {3}
  8c:	68737061 	ldmdavs	r3!, {r0, r5, r6, ip, sp, lr}^
  90:	2f73746f 	svccs	0x0073746f
  94:	2d636367 	stclcs	3, cr6, [r3, #-412]!	; 0xfffffe64
  98:	616e696c 	cmnvs	lr, ip, ror #18
  9c:	342d6f72 	strtcc	r6, [sp], #-3954	; 0xf72
  a0:	322d392e 	eorcc	r3, sp, #753664	; 0xb8000
  a4:	2e373130 	mrccs	1, 1, r3, cr7, cr0, {1}
  a8:	6c2f3130 	stfvss	f3, [pc], #-192	; fffffff0 <__bss_end+0x787f5fb0>
  ac:	63676269 	cmnvs	r7, #-1879048186	; 0x90000006
  b0:	6f632f63 	svcvs	0x00632f63
  b4:	6769666e 	strbvs	r6, [r9, -lr, ror #12]!
  b8:	6d72612f 	ldfvse	f6, [r2, #-188]!	; 0xffffff44
  bc:	62696c2f 	rsbvs	r6, r9, #12032	; 0x2f00
  c0:	6e756631 	mrcvs	6, 3, r6, cr5, cr1, {1}
  c4:	532e7363 	teqpl	lr, #-1946157055	; 0x8c000001
  c8:	6f682f00 	svcvs	0x00682f00
  cc:	742f656d 	strtvc	r6, [pc], #-1389	; d4 <shift+0xd4>
  d0:	2d677763 	stclcs	7, cr7, [r7, #-396]!	; 0xfffffe74
  d4:	6c697562 	cfstr64vs	mvdx7, [r9], #-392	; 0xfffffe78
  d8:	616c7364 	cmnvs	ip, r4, ror #6
  dc:	772f6576 			; <UNDEFINED> instruction: 0x772f6576
  e0:	736b726f 	cmnvc	fp, #-268435450	; 0xf0000006
  e4:	65636170 	strbvs	r6, [r3, #-368]!	; 0x170
  e8:	7763742f 	strbvc	r7, [r3, -pc, lsr #8]!
  ec:	616d2d67 	cmnvs	sp, r7, ror #26
  f0:	722d656b 	eorvc	r6, sp, #448790528	; 0x1ac00000
  f4:	61656c65 	cmnvs	r5, r5, ror #24
  f8:	6c2f6573 	cfstr32vs	mvfx6, [pc], #-460	; ffffff34 <__bss_end+0x787f5ef4>
  fc:	6c656261 	sfmvs	f6, 2, [r5], #-388	; 0xfffffe7c
 100:	636f642f 	cmnvs	pc, #788529152	; 0x2f000000
 104:	2d72656b 	cfldr64cs	mvdx6, [r2, #-428]!	; 0xfffffe54
 108:	73757274 	cmnvc	r5, #116, 4	; 0x40000007
 10c:	612d7974 	teqvs	sp, r4, ror r9
 110:	3436646d 	ldrtcc	r6, [r6], #-1133	; 0x46d
 114:	7763742d 	strbvc	r7, [r3, -sp, lsr #8]!
 118:	75622d67 	strbvc	r2, [r2, #-3431]!	; 0xd67
 11c:	2f646c69 	svccs	0x00646c69
 120:	67726174 			; <UNDEFINED> instruction: 0x67726174
 124:	612f7465 	teqvs	pc, r5, ror #8
 128:	6c2d6d72 	stcvs	13, cr6, [sp], #-456	; 0xfffffe38
 12c:	78756e69 	ldmdavc	r5!, {r0, r3, r5, r6, r9, sl, fp, sp, lr}^
 130:	756e672d 	strbvc	r6, [lr, #-1837]!	; 0x72d
 134:	69626165 	stmdbvs	r2!, {r0, r2, r5, r6, r8, sp, lr}^
 138:	5f2f6668 	svcpl	0x002f6668
 13c:	6c697562 	cfstr64vs	mvdx7, [r9], #-392	; 0xfffffe78
 140:	75622f64 	strbvc	r2, [r2, #-3940]!	; 0xf64
 144:	73646c69 	cmnvc	r4, #26880	; 0x6900
 148:	3638782f 	ldrtcc	r7, [r8], -pc, lsr #16
 14c:	2d34365f 	ldccs	6, cr3, [r4, #-380]!	; 0xfffffe84
 150:	6e6b6e75 	mcrvs	14, 3, r6, cr11, cr5, {3}
 154:	2d6e776f 	stclcs	7, cr7, [lr, #-444]!	; 0xfffffe44
 158:	756e696c 	strbvc	r6, [lr, #-2412]!	; 0x96c
 15c:	6e672d78 	mcrvs	13, 3, r2, cr7, cr8, {3}
 160:	72612f75 	rsbvc	r2, r1, #468	; 0x1d4
 164:	696c2d6d 	stmdbvs	ip!, {r0, r2, r3, r5, r6, r8, sl, fp, sp}^
 168:	2d78756e 	cfldr64cs	mvdx7, [r8, #-440]!	; 0xfffffe48
 16c:	65756e67 	ldrbvs	r6, [r5, #-3687]!	; 0xe67
 170:	68696261 	stmdavs	r9!, {r0, r5, r6, r9, sp, lr}^
 174:	63672f66 	cmnvs	r7, #408	; 0x198
 178:	696c2d63 	stmdbvs	ip!, {r0, r1, r5, r6, r8, sl, fp, sp}^
 17c:	6f72616e 	svcvs	0x0072616e
 180:	392e342d 	stmdbcc	lr!, {r0, r2, r3, r5, sl, ip, sp}
 184:	3130322d 	teqcc	r0, sp, lsr #4
 188:	31302e37 	teqcc	r0, r7, lsr lr
 18c:	6174732d 	cmnvs	r4, sp, lsr #6
 190:	2f326567 	svccs	0x00326567
 194:	2d6d7261 	sfmcs	f7, 2, [sp, #-388]!	; 0xfffffe7c
 198:	756e696c 	strbvc	r6, [lr, #-2412]!	; 0x96c
 19c:	6e672d78 	mcrvs	13, 3, r2, cr7, cr8, {3}
 1a0:	62616575 	rsbvs	r6, r1, #490733568	; 0x1d400000
 1a4:	2f666869 	svccs	0x00666869
 1a8:	6762696c 	strbvs	r6, [r2, -ip, ror #18]!
 1ac:	47006363 	strmi	r6, [r0, -r3, ror #6]
 1b0:	4120554e 	teqmi	r0, lr, asr #10
 1b4:	2e322053 	mrccs	0, 1, r2, cr2, cr3, {2}
 1b8:	302e3432 	eorcc	r3, lr, r2, lsr r4
 1bc:	b7800100 	strlt	r0, [r0, r0, lsl #2]
 1c0:	02000001 	andeq	r0, r0, #1
 1c4:	00001400 	andeq	r1, r0, r0, lsl #8
 1c8:	04010400 	streq	r0, [r1], #-1024	; 0x400
 1cc:	d8000001 	stmdale	r0, {r0}
 1d0:	08878046 	stmeq	r7, {r1, r2, r6, pc}
 1d4:	2f878047 	svccs	0x00878047
 1d8:	656d6f68 	strbvs	r6, [sp, #-3944]!	; 0xf68
 1dc:	7763742f 	strbvc	r7, [r3, -pc, lsr #8]!
 1e0:	75622d67 	strbvc	r2, [r2, #-3431]!	; 0xd67
 1e4:	73646c69 	cmnvc	r4, #26880	; 0x6900
 1e8:	6576616c 	ldrbvs	r6, [r6, #-364]!	; 0x16c
 1ec:	726f772f 	rsbvc	r7, pc, #12320768	; 0xbc0000
 1f0:	6170736b 	cmnvs	r0, fp, ror #6
 1f4:	742f6563 	strtvc	r6, [pc], #-1379	; 1fc <shift+0x1fc>
 1f8:	2d677763 	stclcs	7, cr7, [r7, #-396]!	; 0xfffffe74
 1fc:	656b616d 	strbvs	r6, [fp, #-365]!	; 0x16d
 200:	6c65722d 	sfmvs	f7, 2, [r5], #-180	; 0xffffff4c
 204:	65736165 	ldrbvs	r6, [r3, #-357]!	; 0x165
 208:	62616c2f 	rsbvs	r6, r1, #12032	; 0x2f00
 20c:	642f6c65 	strtvs	r6, [pc], #-3173	; 214 <shift+0x214>
 210:	656b636f 	strbvs	r6, [fp, #-879]!	; 0x36f
 214:	72742d72 	rsbsvc	r2, r4, #7296	; 0x1c80
 218:	79747375 	ldmdbvc	r4!, {r0, r2, r4, r5, r6, r8, r9, ip, sp, lr}^
 21c:	646d612d 	strbtvs	r6, [sp], #-301	; 0x12d
 220:	742d3436 	strtvc	r3, [sp], #-1078	; 0x436
 224:	2d677763 	stclcs	7, cr7, [r7, #-396]!	; 0xfffffe74
 228:	6c697562 	cfstr64vs	mvdx7, [r9], #-392	; 0xfffffe78
 22c:	61742f64 	cmnvs	r4, r4, ror #30
 230:	74656772 	strbtvc	r6, [r5], #-1906	; 0x772
 234:	6d72612f 	ldfvse	f6, [r2, #-188]!	; 0xffffff44
 238:	6e696c2d 	cdpvs	12, 6, cr6, cr9, cr13, {1}
 23c:	672d7875 			; <UNDEFINED> instruction: 0x672d7875
 240:	6165756e 	cmnvs	r5, lr, ror #10
 244:	66686962 	strbtvs	r6, [r8], -r2, ror #18
 248:	616e732f 	cmnvs	lr, pc, lsr #6
 24c:	6f687370 	svcvs	0x00687370
 250:	672f7374 			; <UNDEFINED> instruction: 0x672f7374
 254:	6c2d6363 	stcvs	3, cr6, [sp], #-396	; 0xfffffe74
 258:	72616e69 	rsbvc	r6, r1, #1680	; 0x690
 25c:	2e342d6f 	cdpcs	13, 3, cr2, cr4, cr15, {3}
 260:	30322d39 	eorscc	r2, r2, r9, lsr sp
 264:	302e3731 	eorcc	r3, lr, r1, lsr r7
 268:	696c2f31 	stmdbvs	ip!, {r0, r4, r5, r8, r9, sl, fp, sp}^
 26c:	63636762 	cmnvs	r3, #25690112	; 0x1880000
 270:	6e6f632f 	cdpvs	3, 6, cr6, cr15, cr15, {1}
 274:	2f676966 	svccs	0x00676966
 278:	2f6d7261 	svccs	0x006d7261
 27c:	62617062 	rsbvs	r7, r1, #98	; 0x62
 280:	00532e69 	subseq	r2, r3, r9, ror #28
 284:	6d6f682f 	stclvs	8, cr6, [pc, #-188]!	; 1d0 <shift+0x1d0>
 288:	63742f65 	cmnvs	r4, #404	; 0x194
 28c:	622d6777 	eorvs	r6, sp, #31195136	; 0x1dc0000
 290:	646c6975 	strbtvs	r6, [ip], #-2421	; 0x975
 294:	76616c73 			; <UNDEFINED> instruction: 0x76616c73
 298:	6f772f65 	svcvs	0x00772f65
 29c:	70736b72 	rsbsvc	r6, r3, r2, ror fp
 2a0:	2f656361 	svccs	0x00656361
 2a4:	67776374 			; <UNDEFINED> instruction: 0x67776374
 2a8:	6b616d2d 	blvs	185b764 <shift+0x185b764>
 2ac:	65722d65 	ldrbvs	r2, [r2, #-3429]!	; 0xd65
 2b0:	7361656c 	cmnvc	r1, #108, 10	; 0x1b000000
 2b4:	616c2f65 	cmnvs	ip, r5, ror #30
 2b8:	2f6c6562 	svccs	0x006c6562
 2bc:	6b636f64 	blvs	18dc054 <shift+0x18dc054>
 2c0:	742d7265 	strtvc	r7, [sp], #-613	; 0x265
 2c4:	74737572 	ldrbtvc	r7, [r3], #-1394	; 0x572
 2c8:	6d612d79 	stclvs	13, cr2, [r1, #-484]!	; 0xfffffe1c
 2cc:	2d343664 	ldccs	6, cr3, [r4, #-400]!	; 0xfffffe70
 2d0:	67776374 			; <UNDEFINED> instruction: 0x67776374
 2d4:	6975622d 	ldmdbvs	r5!, {r0, r2, r3, r5, r9, sp, lr}^
 2d8:	742f646c 	strtvc	r6, [pc], #-1132	; 2e0 <shift+0x2e0>
 2dc:	65677261 	strbvs	r7, [r7, #-609]!	; 0x261
 2e0:	72612f74 	rsbvc	r2, r1, #116, 30	; 0x1d0
 2e4:	696c2d6d 	stmdbvs	ip!, {r0, r2, r3, r5, r6, r8, sl, fp, sp}^
 2e8:	2d78756e 	cfldr64cs	mvdx7, [r8, #-440]!	; 0xfffffe48
 2ec:	65756e67 	ldrbvs	r6, [r5, #-3687]!	; 0xe67
 2f0:	68696261 	stmdavs	r9!, {r0, r5, r6, r9, sp, lr}^
 2f4:	625f2f66 	subsvs	r2, pc, #408	; 0x198
 2f8:	646c6975 	strbtvs	r6, [ip], #-2421	; 0x975
 2fc:	6975622f 	ldmdbvs	r5!, {r0, r1, r2, r3, r5, r9, sp, lr}^
 300:	2f73646c 	svccs	0x0073646c
 304:	5f363878 	svcpl	0x00363878
 308:	752d3436 	strvc	r3, [sp, #-1078]!	; 0x436
 30c:	6f6e6b6e 	svcvs	0x006e6b6e
 310:	6c2d6e77 	stcvs	14, cr6, [sp], #-476	; 0xfffffe24
 314:	78756e69 	ldmdavc	r5!, {r0, r3, r5, r6, r9, sl, fp, sp, lr}^
 318:	756e672d 	strbvc	r6, [lr, #-1837]!	; 0x72d
 31c:	6d72612f 	ldfvse	f6, [r2, #-188]!	; 0xffffff44
 320:	6e696c2d 	cdpvs	12, 6, cr6, cr9, cr13, {1}
 324:	672d7875 			; <UNDEFINED> instruction: 0x672d7875
 328:	6165756e 	cmnvs	r5, lr, ror #10
 32c:	66686962 	strbtvs	r6, [r8], -r2, ror #18
 330:	6363672f 	cmnvs	r3, #12320768	; 0xbc0000
 334:	6e696c2d 	cdpvs	12, 6, cr6, cr9, cr13, {1}
 338:	2d6f7261 	sfmcs	f7, 2, [pc, #-388]!	; 1bc <shift+0x1bc>
 33c:	2d392e34 	ldccs	14, cr2, [r9, #-208]!	; 0xffffff30
 340:	37313032 			; <UNDEFINED> instruction: 0x37313032
 344:	2d31302e 	ldccs	0, cr3, [r1, #-184]!	; 0xffffff48
 348:	67617473 			; <UNDEFINED> instruction: 0x67617473
 34c:	612f3265 	teqvs	pc, r5, ror #4
 350:	6c2d6d72 	stcvs	13, cr6, [sp], #-456	; 0xfffffe38
 354:	78756e69 	ldmdavc	r5!, {r0, r3, r5, r6, r9, sl, fp, sp, lr}^
 358:	756e672d 	strbvc	r6, [lr, #-1837]!	; 0x72d
 35c:	69626165 	stmdbvs	r2!, {r0, r2, r5, r6, r8, sp, lr}^
 360:	6c2f6668 	stcvs	6, cr6, [pc], #-416	; 1c8 <shift+0x1c8>
 364:	63676269 	cmnvs	r7, #-1879048186	; 0x90000006
 368:	4e470063 	cdpmi	0, 4, cr0, cr7, cr3, {3}
 36c:	53412055 	movtpl	r2, #4181	; 0x1055
 370:	322e3220 	eorcc	r3, lr, #32, 4
 374:	00302e34 	eorseq	r2, r0, r4, lsr lr
 378:	01bb8001 			; <UNDEFINED> instruction: 0x01bb8001
 37c:	00020000 	andeq	r0, r2, r0
 380:	00000028 	andeq	r0, r0, r8, lsr #32
 384:	01e50104 	mvneq	r0, r4, lsl #2
 388:	47080000 	strmi	r0, [r8, -r0]
 38c:	47148780 	ldrmi	r8, [r4, -r0, lsl #15]
 390:	682f8780 	stmdavs	pc!, {r7, r8, r9, sl, pc}	; <UNPREDICTABLE>
 394:	2f656d6f 	svccs	0x00656d6f
 398:	67776374 			; <UNDEFINED> instruction: 0x67776374
 39c:	6975622d 	ldmdbvs	r5!, {r0, r2, r3, r5, r9, sp, lr}^
 3a0:	6c73646c 	cfldrdvs	mvd6, [r3], #-432	; 0xfffffe50
 3a4:	2f657661 	svccs	0x00657661
 3a8:	6b726f77 	blvs	1c9c18c <shift+0x1c9c18c>
 3ac:	63617073 	cmnvs	r1, #115	; 0x73
 3b0:	63742f65 	cmnvs	r4, #404	; 0x194
 3b4:	6d2d6777 	stcvs	7, cr6, [sp, #-476]!	; 0xfffffe24
 3b8:	2d656b61 	fstmdbxcs	r5!, {d22-d69}	;@ Deprecated
 3bc:	656c6572 	strbvs	r6, [ip, #-1394]!	; 0x572
 3c0:	2f657361 	svccs	0x00657361
 3c4:	6562616c 	strbvs	r6, [r2, #-364]!	; 0x16c
 3c8:	6f642f6c 	svcvs	0x00642f6c
 3cc:	72656b63 	rsbvc	r6, r5, #101376	; 0x18c00
 3d0:	7572742d 	ldrbvc	r7, [r2, #-1069]!	; 0x42d
 3d4:	2d797473 	cfldrdcs	mvd7, [r9, #-460]!	; 0xfffffe34
 3d8:	36646d61 	strbtcc	r6, [r4], -r1, ror #26
 3dc:	63742d34 	cmnvs	r4, #52, 26	; 0xd00
 3e0:	622d6777 	eorvs	r6, sp, #31195136	; 0x1dc0000
 3e4:	646c6975 	strbtvs	r6, [ip], #-2421	; 0x975
 3e8:	7261742f 	rsbvc	r7, r1, #788529152	; 0x2f000000
 3ec:	2f746567 	svccs	0x00746567
 3f0:	2d6d7261 	sfmcs	f7, 2, [sp, #-388]!	; 0xfffffe7c
 3f4:	756e696c 	strbvc	r6, [lr, #-2412]!	; 0x96c
 3f8:	6e672d78 	mcrvs	13, 3, r2, cr7, cr8, {3}
 3fc:	62616575 	rsbvs	r6, r1, #490733568	; 0x1d400000
 400:	2f666869 	svccs	0x00666869
 404:	70616e73 	rsbvc	r6, r1, r3, ror lr
 408:	746f6873 	strbtvc	r6, [pc], #-2163	; 410 <shift+0x410>
 40c:	63672f73 	cmnvs	r7, #460	; 0x1cc
 410:	696c2d63 	stmdbvs	ip!, {r0, r1, r5, r6, r8, sl, fp, sp}^
 414:	6f72616e 	svcvs	0x0072616e
 418:	392e342d 	stmdbcc	lr!, {r0, r2, r3, r5, sl, ip, sp}
 41c:	3130322d 	teqcc	r0, sp, lsr #4
 420:	31302e37 	teqcc	r0, r7, lsr lr
 424:	62696c2f 	rsbvs	r6, r9, #12032	; 0x2f00
 428:	2f636367 	svccs	0x00636367
 42c:	666e6f63 	strbtvs	r6, [lr], -r3, ror #30
 430:	612f6769 	teqvs	pc, r9, ror #14
 434:	6c2f6d72 	stcvs	13, cr6, [pc], #-456	; 274 <shift+0x274>
 438:	66316269 	ldrtvs	r6, [r1], -r9, ror #4
 43c:	73636e75 	cmnvc	r3, #1872	; 0x750
 440:	2f00532e 	svccs	0x0000532e
 444:	656d6f68 	strbvs	r6, [sp, #-3944]!	; 0xf68
 448:	7763742f 	strbvc	r7, [r3, -pc, lsr #8]!
 44c:	75622d67 	strbvc	r2, [r2, #-3431]!	; 0xd67
 450:	73646c69 	cmnvc	r4, #26880	; 0x6900
 454:	6576616c 	ldrbvs	r6, [r6, #-364]!	; 0x16c
 458:	726f772f 	rsbvc	r7, pc, #12320768	; 0xbc0000
 45c:	6170736b 	cmnvs	r0, fp, ror #6
 460:	742f6563 	strtvc	r6, [pc], #-1379	; 468 <shift+0x468>
 464:	2d677763 	stclcs	7, cr7, [r7, #-396]!	; 0xfffffe74
 468:	656b616d 	strbvs	r6, [fp, #-365]!	; 0x16d
 46c:	6c65722d 	sfmvs	f7, 2, [r5], #-180	; 0xffffff4c
 470:	65736165 	ldrbvs	r6, [r3, #-357]!	; 0x165
 474:	62616c2f 	rsbvs	r6, r1, #12032	; 0x2f00
 478:	642f6c65 	strtvs	r6, [pc], #-3173	; 480 <shift+0x480>
 47c:	656b636f 	strbvs	r6, [fp, #-879]!	; 0x36f
 480:	72742d72 	rsbsvc	r2, r4, #7296	; 0x1c80
 484:	79747375 	ldmdbvc	r4!, {r0, r2, r4, r5, r6, r8, r9, ip, sp, lr}^
 488:	646d612d 	strbtvs	r6, [sp], #-301	; 0x12d
 48c:	742d3436 	strtvc	r3, [sp], #-1078	; 0x436
 490:	2d677763 	stclcs	7, cr7, [r7, #-396]!	; 0xfffffe74
 494:	6c697562 	cfstr64vs	mvdx7, [r9], #-392	; 0xfffffe78
 498:	61742f64 	cmnvs	r4, r4, ror #30
 49c:	74656772 	strbtvc	r6, [r5], #-1906	; 0x772
 4a0:	6d72612f 	ldfvse	f6, [r2, #-188]!	; 0xffffff44
 4a4:	6e696c2d 	cdpvs	12, 6, cr6, cr9, cr13, {1}
 4a8:	672d7875 			; <UNDEFINED> instruction: 0x672d7875
 4ac:	6165756e 	cmnvs	r5, lr, ror #10
 4b0:	66686962 	strbtvs	r6, [r8], -r2, ror #18
 4b4:	75625f2f 	strbvc	r5, [r2, #-3887]!	; 0xf2f
 4b8:	2f646c69 	svccs	0x00646c69
 4bc:	6c697562 	cfstr64vs	mvdx7, [r9], #-392	; 0xfffffe78
 4c0:	782f7364 	stmdavc	pc!, {r2, r5, r6, r8, r9, ip, sp, lr}	; <UNPREDICTABLE>
 4c4:	365f3638 			; <UNDEFINED> instruction: 0x365f3638
 4c8:	6e752d34 	mrcvs	13, 3, r2, cr5, cr4, {1}
 4cc:	776f6e6b 	strbvc	r6, [pc, -fp, ror #28]!
 4d0:	696c2d6e 	stmdbvs	ip!, {r1, r2, r3, r5, r6, r8, sl, fp, sp}^
 4d4:	2d78756e 	cfldr64cs	mvdx7, [r8, #-440]!	; 0xfffffe48
 4d8:	2f756e67 	svccs	0x00756e67
 4dc:	2d6d7261 	sfmcs	f7, 2, [sp, #-388]!	; 0xfffffe7c
 4e0:	756e696c 	strbvc	r6, [lr, #-2412]!	; 0x96c
 4e4:	6e672d78 	mcrvs	13, 3, r2, cr7, cr8, {3}
 4e8:	62616575 	rsbvs	r6, r1, #490733568	; 0x1d400000
 4ec:	2f666869 	svccs	0x00666869
 4f0:	2d636367 	stclcs	3, cr6, [r3, #-412]!	; 0xfffffe64
 4f4:	616e696c 	cmnvs	lr, ip, ror #18
 4f8:	342d6f72 	strtcc	r6, [sp], #-3954	; 0xf72
 4fc:	322d392e 	eorcc	r3, sp, #753664	; 0xb8000
 500:	2e373130 	mrccs	1, 1, r3, cr7, cr0, {1}
 504:	732d3130 	teqvc	sp, #48, 2
 508:	65676174 	strbvs	r6, [r7, #-372]!	; 0x174
 50c:	72612f32 	rsbvc	r2, r1, #50, 30	; 0xc8
 510:	696c2d6d 	stmdbvs	ip!, {r0, r2, r3, r5, r6, r8, sl, fp, sp}^
 514:	2d78756e 	cfldr64cs	mvdx7, [r8, #-440]!	; 0xfffffe48
 518:	65756e67 	ldrbvs	r6, [r5, #-3687]!	; 0xe67
 51c:	68696261 	stmdavs	r9!, {r0, r5, r6, r9, sp, lr}^
 520:	696c2f66 	stmdbvs	ip!, {r1, r2, r5, r6, r8, r9, sl, fp, sp}^
 524:	63636762 	cmnvs	r3, #25690112	; 0x1880000
 528:	554e4700 	strbpl	r4, [lr, #-1792]	; 0x700
 52c:	20534120 	subscs	r4, r3, r0, lsr #2
 530:	34322e32 	ldrtcc	r2, [r2], #-3634	; 0xe32
 534:	0100302e 	tsteq	r0, lr, lsr #32
 538:	00015a80 	andeq	r5, r1, r0, lsl #21
 53c:	3c000400 	cfstrscc	mvf0, [r0], {-0}
 540:	04000000 	streq	r0, [r0], #-0
 544:	00012b01 	andeq	r2, r1, r1, lsl #22
 548:	024f0100 	subeq	r0, pc, #0, 2
 54c:	000d0000 	andeq	r0, sp, r0
 550:	47140000 	ldrmi	r0, [r4, -r0]
 554:	01168780 	tsteq	r6, r0, lsl #15
 558:	02cc0000 	sbceq	r0, ip, #0
 55c:	08020000 	stmdaeq	r2, {}	; <UNPREDICTABLE>
 560:	0000f307 	andeq	pc, r0, r7, lsl #6
 564:	05040300 	streq	r0, [r4, #-768]	; 0x300
 568:	00746e69 	rsbseq	r6, r4, r9, ror #28
 56c:	fd070402 	stc2	4, cr0, [r7, #-8]
 570:	02000000 	andeq	r0, r0, #0
 574:	010a0801 	tsteq	sl, r1, lsl #16
 578:	02020000 	andeq	r0, r2, #0
 57c:	00011807 	andeq	r1, r1, r7, lsl #16
 580:	07040200 	streq	r0, [r4, -r0, lsl #4]
 584:	000000f8 	strdeq	r0, [r0], -r8
 588:	0c060102 	stfeqs	f0, [r6], {2}
 58c:	02000001 	andeq	r0, r0, #1
 590:	02360502 	eorseq	r0, r6, #8388608	; 0x800000
 594:	08020000 	stmdaeq	r2, {}	; <UNPREDICTABLE>
 598:	00022005 	andeq	r2, r2, r5
 59c:	05040200 	streq	r0, [r4, #-512]	; 0x200
 5a0:	00000225 	andeq	r0, r0, r5, lsr #4
 5a4:	17070402 	strne	r0, [r7, -r2, lsl #8]
 5a8:	02000002 	andeq	r0, r0, #2
 5ac:	01130801 	tsteq	r3, r1, lsl #16
 5b0:	2e040000 	cdpcs	0, 0, cr0, cr4, cr0, {0}
 5b4:	02000002 	andeq	r0, r0, #2
 5b8:	00003382 	andeq	r3, r0, r2, lsl #7
 5bc:	02010400 	andeq	r0, r1, #0, 8
 5c0:	86020000 	strhi	r0, [r2], -r0
 5c4:	00000025 	andeq	r0, r0, r5, lsr #32
 5c8:	11040402 	tstne	r4, r2, lsl #8
 5cc:	02000002 	andeq	r0, r0, #2
 5d0:	02090308 	andeq	r0, r9, #8, 6	; 0x20000000
 5d4:	08020000 	stmdaeq	r2, {}	; <UNPREDICTABLE>
 5d8:	00024804 	andeq	r4, r2, r4, lsl #16
 5dc:	03100200 	tsteq	r0, #0, 4
 5e0:	00000240 	andeq	r0, r0, r0, asr #4
 5e4:	00000005 	andeq	r0, r0, r5
 5e8:	03b00100 	movseq	r0, #0, 2
 5ec:	00000084 	andeq	r0, r0, r4, lsl #1
 5f0:	87804714 	usada8hi	r0, r4, r7, r4
 5f4:	00000116 	andeq	r0, r0, r6, lsl r1
 5f8:	01579c01 	cmpeq	r7, r1, lsl #24
 5fc:	6e060000 	cdpvs	0, 0, cr0, cr6, cr0, {0}
 600:	03b00100 	movseq	r0, #0, 2
 604:	00000084 	andeq	r0, r0, r4, lsl #1
 608:	00000000 	andeq	r0, r0, r0
 60c:	01006406 	tsteq	r0, r6, lsl #8
 610:	008403b0 			; <UNDEFINED> instruction: 0x008403b0
 614:	00280000 	eoreq	r0, r8, r0
 618:	72060000 	andvc	r0, r6, #0
 61c:	b0010070 	andlt	r0, r1, r0, ror r0
 620:	00015703 	andeq	r5, r1, r3, lsl #14
 624:	00005000 	andeq	r5, r0, r0
 628:	00710700 	rsbseq	r0, r1, r0, lsl #14
 62c:	8403b201 	strhi	fp, [r3], #-513	; 0x201
 630:	70000000 	andvc	r0, r0, r0
 634:	07000000 	streq	r0, [r0, -r0]
 638:	b2010072 	andlt	r0, r1, #114	; 0x72
 63c:	00008403 	andeq	r8, r0, r3, lsl #8
 640:	0000d000 	andeq	sp, r0, r0
 644:	00790700 	rsbseq	r0, r9, r0, lsl #14
 648:	8403b201 	strhi	fp, [r3], #-513	; 0x201
 64c:	28000000 	stmdacs	r0, {}	; <UNPREDICTABLE>
 650:	07000001 	streq	r0, [r0, -r1]
 654:	00317a6c 	eorseq	r7, r1, ip, ror #20
 658:	7903b301 	stmdbvc	r3, {r0, r8, r9, ip, sp, pc}
 65c:	50000000 	andpl	r0, r0, r0
 660:	07000001 	streq	r0, [r0, -r1]
 664:	00327a6c 	eorseq	r7, r2, ip, ror #20
 668:	7903b301 	stmdbvc	r3, {r0, r8, r9, ip, sp, pc}
 66c:	63000000 	movwvs	r0, #0
 670:	07000001 	streq	r0, [r0, -r1]
 674:	b3010069 	movwlt	r0, #4201	; 0x1069
 678:	00007903 	andeq	r7, r0, r3, lsl #18
 67c:	00017600 	andeq	r7, r1, r0, lsl #12
 680:	006b0700 	rsbeq	r0, fp, r0, lsl #14
 684:	7903b301 	stmdbvc	r3, {r0, r8, r9, ip, sp, pc}
 688:	b9000000 	stmdblt	r0, {}	; <UNPREDICTABLE>
 68c:	00000001 	andeq	r0, r0, r1
 690:	00840408 	addeq	r0, r4, r8, lsl #8
 694:	地址 0x0000000000000694 越界。


Disassembly of section .debug_abbrev:

00000000 <.debug_abbrev>:
   0:	10001101 	andne	r1, r0, r1, lsl #2
   4:	12011106 	andne	r1, r1, #-2147483647	; 0x80000001
   8:	1b080301 	blne	200c14 <shift+0x200c14>
   c:	13082508 	movwne	r2, #34056	; 0x8508
  10:	00000005 	andeq	r0, r0, r5
  14:	10001101 	andne	r1, r0, r1, lsl #2
  18:	12011106 	andne	r1, r1, #-2147483647	; 0x80000001
  1c:	1b080301 	blne	200c28 <shift+0x200c28>
  20:	13082508 	movwne	r2, #34056	; 0x8508
  24:	00000005 	andeq	r0, r0, r5
  28:	10001101 	andne	r1, r0, r1, lsl #2
  2c:	12011106 	andne	r1, r1, #-2147483647	; 0x80000001
  30:	1b080301 	blne	200c3c <shift+0x200c3c>
  34:	13082508 	movwne	r2, #34056	; 0x8508
  38:	00000005 	andeq	r0, r0, r5
  3c:	25011101 	strcs	r1, [r1, #-257]	; 0x101
  40:	030b130e 	movweq	r1, #45838	; 0xb30e
  44:	110e1b0e 	tstne	lr, lr, lsl #22
  48:	10061201 	andne	r1, r6, r1, lsl #4
  4c:	02000017 	andeq	r0, r0, #23
  50:	0b0b0024 	bleq	2c00e8 <shift+0x2c00e8>
  54:	0e030b3e 	vmoveq.16	d3[0], r0
  58:	24030000 	strcs	r0, [r3], #-0
  5c:	3e0b0b00 	vmlacc.f64	d0, d11, d0
  60:	0008030b 	andeq	r0, r8, fp, lsl #6
  64:	00160400 	andseq	r0, r6, r0, lsl #8
  68:	0b3a0e03 	bleq	e8387c <shift+0xe8387c>
  6c:	13490b3b 	movtne	r0, #39739	; 0x9b3b
  70:	2e050000 	cdpcs	0, 0, cr0, cr5, cr0, {0}
  74:	03193f01 	tsteq	r9, #1, 30
  78:	3b0b3a0e 	blcc	2ce8b8 <shift+0x2ce8b8>
  7c:	49192705 	ldmdbmi	r9, {r0, r2, r8, r9, sl, sp}
  80:	12011113 	andne	r1, r1, #-1073741820	; 0xc0000004
  84:	97184006 	ldrls	r4, [r8, -r6]
  88:	13011942 	movwne	r1, #6466	; 0x1942
  8c:	05060000 	streq	r0, [r6, #-0]
  90:	3a080300 	bcc	200c98 <shift+0x200c98>
  94:	49053b0b 	stmdbmi	r5, {r0, r1, r3, r8, r9, fp, ip, sp}
  98:	00170213 	andseq	r0, r7, r3, lsl r2
  9c:	00340700 	eorseq	r0, r4, r0, lsl #14
  a0:	0b3a0803 	bleq	e820b4 <shift+0xe820b4>
  a4:	1349053b 	movtne	r0, #38203	; 0x953b
  a8:	00001702 	andeq	r1, r0, r2, lsl #14
  ac:	0b000f08 	bleq	3cd4 <shift+0x3cd4>
  b0:	0013490b 	andseq	r4, r3, fp, lsl #18
	...

Disassembly of section .debug_aranges:

00000000 <.debug_aranges>:
   0:	0000001c 	andeq	r0, r0, ip, lsl r0
   4:	00000002 	andeq	r0, r0, r2
   8:	00040000 	andeq	r0, r4, r0
   c:	00000000 	andeq	r0, r0, r0
  10:	87804460 	strhi	r4, [r0, r0, ror #8]
  14:	00000276 	andeq	r0, r0, r6, ror r2
	...
  20:	0000001c 	andeq	r0, r0, ip, lsl r0
  24:	01bf0002 			; <UNDEFINED> instruction: 0x01bf0002
  28:	00040000 	andeq	r0, r4, r0
  2c:	00000000 	andeq	r0, r0, r0
  30:	878046d8 			; <UNDEFINED> instruction: 0x878046d8
  34:	00000030 	andeq	r0, r0, r0, lsr r0
	...
  40:	0000001c 	andeq	r0, r0, ip, lsl r0
  44:	037a0002 	cmneq	sl, #2
  48:	00040000 	andeq	r0, r4, r0
  4c:	00000000 	andeq	r0, r0, r0
  50:	87804708 	strhi	r4, [r0, r8, lsl #14]
  54:	0000000c 	andeq	r0, r0, ip
	...
  60:	0000001c 	andeq	r0, r0, ip, lsl r0
  64:	05390002 	ldreq	r0, [r9, #-2]!
  68:	00040000 	andeq	r0, r4, r0
  6c:	00000000 	andeq	r0, r0, r0
  70:	87804714 	usada8hi	r0, r4, r7, r4
  74:	00000116 	andeq	r0, r0, r6, lsl r1
	...

Disassembly of section .debug_loc:

00000000 <.debug_loc>:
   0:	00000000 	andeq	r0, r0, r0
   4:	0000000c 	andeq	r0, r0, ip
   8:	93500006 	cmpls	r0, #6
   c:	04935104 	ldreq	r5, [r3], #260	; 0x104
  10:	0000000c 	andeq	r0, r0, ip
  14:	00000116 	andeq	r0, r0, r6, lsl r1
  18:	03f30006 	mvnseq	r0, #6
  1c:	9f2500f5 	svcls	0x002500f5
	...
  2c:	00000014 	andeq	r0, r0, r4, lsl r0
  30:	93520006 	cmpls	r2, #6
  34:	04935304 	ldreq	r5, [r3], #772	; 0x304
  38:	00000014 	andeq	r0, r0, r4, lsl r0
  3c:	00000116 	andeq	r0, r0, r6, lsl r1
  40:	03f30006 	mvnseq	r0, #6
  44:	9f2502f5 	svcls	0x002502f5
	...
  54:	000000fc 	strdeq	r0, [r0], -ip
  58:	00910002 	addseq	r0, r1, r2
  5c:	000000fc 	strdeq	r0, [r0], -ip
  60:	00000116 	andeq	r0, r0, r6, lsl r1
  64:	00910002 	addseq	r0, r1, r2
	...
  74:	00000076 	andeq	r0, r0, r6, ror r0
  78:	089e000a 	ldmeq	lr, {r1, r3}
	...
  84:	00000076 	andeq	r0, r0, r6, ror r0
  88:	000000c0 	andeq	r0, r0, r0, asr #1
  8c:	93500006 	cmpls	r0, #6
  90:	04935104 	ldreq	r5, [r3], #260	; 0x104
  94:	000000ca 	andeq	r0, r0, sl, asr #1
  98:	000000ea 	andeq	r0, r0, sl, ror #1
  9c:	93500006 	cmpls	r0, #6
  a0:	04935104 	ldreq	r5, [r3], #260	; 0x104
  a4:	000000f2 	strdeq	r0, [r0], -r2
  a8:	000000fc 	strdeq	r0, [r0], -ip
  ac:	93500006 	cmpls	r0, #6
  b0:	04935104 	ldreq	r5, [r3], #260	; 0x104
  b4:	000000fc 	strdeq	r0, [r0], -ip
  b8:	00000116 	andeq	r0, r0, r6, lsl r1
  bc:	089e000a 	ldmeq	lr, {r1, r3}
	...
  d0:	0000000a 	andeq	r0, r0, sl
  d4:	00000062 	andeq	r0, r0, r2, rrx
  d8:	93540006 	cmpls	r4, #6
  dc:	04935504 	ldreq	r5, [r3], #1284	; 0x504
  e0:	00000076 	andeq	r0, r0, r6, ror r0
  e4:	00000084 	andeq	r0, r0, r4, lsl #1
  e8:	93540006 	cmpls	r4, #6
  ec:	04935504 	ldreq	r5, [r3], #1284	; 0x504
  f0:	00000092 	muleq	r0, r2, r0
  f4:	000000a0 	andeq	r0, r0, r0, lsr #1
  f8:	93540006 	cmpls	r4, #6
  fc:	04935504 	ldreq	r5, [r3], #1284	; 0x504
 100:	000000a2 	andeq	r0, r0, r2, lsr #1
 104:	000000c8 	andeq	r0, r0, r8, asr #1
 108:	93540006 	cmpls	r4, #6
 10c:	04935504 	ldreq	r5, [r3], #1284	; 0x504
 110:	000000cc 	andeq	r0, r0, ip, asr #1
 114:	00000116 	andeq	r0, r0, r6, lsl r1
 118:	93540006 	cmpls	r4, #6
 11c:	04935504 	ldreq	r5, [r3], #1284	; 0x504
	...
 128:	0000000e 	andeq	r0, r0, lr
 12c:	00000018 	andeq	r0, r0, r8, lsl r0
 130:	93500006 	cmpls	r0, #6
 134:	04935104 	ldreq	r5, [r3], #260	; 0x104
 138:	0000004e 	andeq	r0, r0, lr, asr #32
 13c:	000000ae 	andeq	r0, r0, lr, lsr #1
 140:	93560006 	cmpls	r6, #6
 144:	04935704 	ldreq	r5, [r3], #1796	; 0x704
	...
 150:	0000010c 	andeq	r0, r0, ip, lsl #2
 154:	00000116 	andeq	r0, r0, r6, lsl r1
 158:	00560001 	subseq	r0, r6, r1
 15c:	00000000 	andeq	r0, r0, r0
 160:	2c000000 	stccs	0, cr0, [r0], {-0}
 164:	2e000000 	cdpcs	0, 0, cr0, cr0, cr0, {0}
 168:	01000000 	mrseq	r0, (UNDEF: 0)
 16c:	00005300 	andeq	r5, r0, r0, lsl #6
 170:	00000000 	andeq	r0, r0, r0
 174:	00800000 	addeq	r0, r0, r0
 178:	00920000 	addseq	r0, r2, r0
 17c:	00010000 	andeq	r0, r1, r0
 180:	00009253 	andeq	r9, r0, r3, asr r2
 184:	00009400 	andeq	r9, r0, r0, lsl #8
 188:	73000300 	movwvc	r0, #768	; 0x300
 18c:	00949f7f 	addseq	r9, r4, pc, ror pc
 190:	00a20000 	adceq	r0, r2, r0
 194:	00010000 	andeq	r0, r1, r0
 198:	0000a253 	andeq	sl, r0, r3, asr r2
 19c:	0000a400 	andeq	sl, r0, r0, lsl #8
 1a0:	73000300 	movwvc	r0, #768	; 0x300
 1a4:	00a49f7f 	adceq	r9, r4, pc, ror pc
 1a8:	00b60000 	adcseq	r0, r6, r0
 1ac:	00010000 	andeq	r0, r1, r0
 1b0:	00000053 	andeq	r0, r0, r3, asr r0
 1b4:	00000000 	andeq	r0, r0, r0
 1b8:	00002e00 	andeq	r2, r0, r0, lsl #28
 1bc:	00008200 	andeq	r8, r0, r0, lsl #4
 1c0:	53000100 	movwpl	r0, #256	; 0x100
 1c4:	00000082 	andeq	r0, r0, r2, lsl #1
 1c8:	000000f2 	strdeq	r0, [r0], -r2
 1cc:	005e0001 	subseq	r0, lr, r1
 1d0:	00000000 	andeq	r0, r0, r0
 1d4:	地址 0x00000000000001d4 越界。


Disassembly of section .debug_str:

00000000 <.debug_str>:
   0:	64755f5f 	ldrbtvs	r5, [r5], #-3935	; 0xf5f
   4:	6f6d7669 	svcvs	0x006d7669
   8:	34696464 	strbtcc	r6, [r9], #-1124	; 0x464
   c:	6f682f00 	svcvs	0x00682f00
  10:	742f656d 	strtvc	r6, [pc], #-1389	; 18 <shift+0x18>
  14:	2d677763 	stclcs	7, cr7, [r7, #-396]!	; 0xfffffe74
  18:	6c697562 	cfstr64vs	mvdx7, [r9], #-392	; 0xfffffe78
  1c:	616c7364 	cmnvs	ip, r4, ror #6
  20:	772f6576 			; <UNDEFINED> instruction: 0x772f6576
  24:	736b726f 	cmnvc	fp, #-268435450	; 0xf0000006
  28:	65636170 	strbvs	r6, [r3, #-368]!	; 0x170
  2c:	7763742f 	strbvc	r7, [r3, -pc, lsr #8]!
  30:	616d2d67 	cmnvs	sp, r7, ror #26
  34:	722d656b 	eorvc	r6, sp, #448790528	; 0x1ac00000
  38:	61656c65 	cmnvs	r5, r5, ror #24
  3c:	6c2f6573 	cfstr32vs	mvfx6, [pc], #-460	; fffffe78 <__bss_end+0x787f5e38>
  40:	6c656261 	sfmvs	f6, 2, [r5], #-388	; 0xfffffe7c
  44:	636f642f 	cmnvs	pc, #788529152	; 0x2f000000
  48:	2d72656b 	cfldr64cs	mvdx6, [r2, #-428]!	; 0xfffffe54
  4c:	73757274 	cmnvc	r5, #116, 4	; 0x40000007
  50:	612d7974 	teqvs	sp, r4, ror r9
  54:	3436646d 	ldrtcc	r6, [r6], #-1133	; 0x46d
  58:	7763742d 	strbvc	r7, [r3, -sp, lsr #8]!
  5c:	75622d67 	strbvc	r2, [r2, #-3431]!	; 0xd67
  60:	2f646c69 	svccs	0x00646c69
  64:	67726174 			; <UNDEFINED> instruction: 0x67726174
  68:	612f7465 	teqvs	pc, r5, ror #8
  6c:	6c2d6d72 	stcvs	13, cr6, [sp], #-456	; 0xfffffe38
  70:	78756e69 	ldmdavc	r5!, {r0, r3, r5, r6, r9, sl, fp, sp, lr}^
  74:	756e672d 	strbvc	r6, [lr, #-1837]!	; 0x72d
  78:	69626165 	stmdbvs	r2!, {r0, r2, r5, r6, r8, sp, lr}^
  7c:	5f2f6668 	svcpl	0x002f6668
  80:	6c697562 	cfstr64vs	mvdx7, [r9], #-392	; 0xfffffe78
  84:	75622f64 	strbvc	r2, [r2, #-3940]!	; 0xf64
  88:	73646c69 	cmnvc	r4, #26880	; 0x6900
  8c:	3638782f 	ldrtcc	r7, [r8], -pc, lsr #16
  90:	2d34365f 	ldccs	6, cr3, [r4, #-380]!	; 0xfffffe84
  94:	6e6b6e75 	mcrvs	14, 3, r6, cr11, cr5, {3}
  98:	2d6e776f 	stclcs	7, cr7, [lr, #-444]!	; 0xfffffe44
  9c:	756e696c 	strbvc	r6, [lr, #-2412]!	; 0x96c
  a0:	6e672d78 	mcrvs	13, 3, r2, cr7, cr8, {3}
  a4:	72612f75 	rsbvc	r2, r1, #468	; 0x1d4
  a8:	696c2d6d 	stmdbvs	ip!, {r0, r2, r3, r5, r6, r8, sl, fp, sp}^
  ac:	2d78756e 	cfldr64cs	mvdx7, [r8, #-440]!	; 0xfffffe48
  b0:	65756e67 	ldrbvs	r6, [r5, #-3687]!	; 0xe67
  b4:	68696261 	stmdavs	r9!, {r0, r5, r6, r9, sp, lr}^
  b8:	63672f66 	cmnvs	r7, #408	; 0x198
  bc:	696c2d63 	stmdbvs	ip!, {r0, r1, r5, r6, r8, sl, fp, sp}^
  c0:	6f72616e 	svcvs	0x0072616e
  c4:	392e342d 	stmdbcc	lr!, {r0, r2, r3, r5, sl, ip, sp}
  c8:	3130322d 	teqcc	r0, sp, lsr #4
  cc:	31302e37 	teqcc	r0, r7, lsr lr
  d0:	6174732d 	cmnvs	r4, sp, lsr #6
  d4:	2f326567 	svccs	0x00326567
  d8:	2d6d7261 	sfmcs	f7, 2, [sp, #-388]!	; 0xfffffe7c
  dc:	756e696c 	strbvc	r6, [lr, #-2412]!	; 0x96c
  e0:	6e672d78 	mcrvs	13, 3, r2, cr7, cr8, {3}
  e4:	62616575 	rsbvs	r6, r1, #490733568	; 0x1d400000
  e8:	2f666869 	svccs	0x00666869
  ec:	6762696c 	strbvs	r6, [r2, -ip, ror #18]!
  f0:	6c006363 	stcvs	3, cr6, [r0], {99}	; 0x63
  f4:	20676e6f 	rsbcs	r6, r7, pc, ror #28
  f8:	676e6f6c 	strbvs	r6, [lr, -ip, ror #30]!
  fc:	736e7520 	cmnvc	lr, #32, 10	; 0x8000000
 100:	656e6769 	strbvs	r6, [lr, #-1897]!	; 0x769
 104:	6e692064 	cdpvs	0, 6, cr2, cr9, cr4, {3}
 108:	6e750074 	mrcvs	0, 3, r0, cr5, cr4, {3}
 10c:	6e676973 	mcrvs	9, 3, r6, cr7, cr3, {3}
 110:	63206465 	teqvs	r0, #1694498816	; 0x65000000
 114:	00726168 	rsbseq	r6, r2, r8, ror #2
 118:	726f6873 	rsbvc	r6, pc, #7536640	; 0x730000
 11c:	6e752074 	mrcvs	0, 3, r2, cr5, cr4, {3}
 120:	6e676973 	mcrvs	9, 3, r6, cr7, cr3, {3}
 124:	69206465 	stmdbvs	r0!, {r0, r2, r5, r6, sl, sp, lr}
 128:	4700746e 	strmi	r7, [r0, -lr, ror #8]
 12c:	4320554e 	teqmi	r0, #327155712	; 0x13800000
 130:	392e3420 	stmdbcc	lr!, {r5, sl, ip, sp}
 134:	2d20342e 	cfstrscs	mvf3, [r0, #-184]!	; 0xffffff48
 138:	6372616d 	cmnvs	r2, #1073741851	; 0x4000001b
 13c:	72613d68 	rsbvc	r3, r1, #104, 26	; 0x1a00
 140:	2d37766d 	ldccs	6, cr7, [r7, #-436]!	; 0xfffffe4c
 144:	6d2d2061 	stcvs	0, cr2, [sp, #-388]!	; 0xfffffe7c
 148:	656e7574 	strbvs	r7, [lr, #-1396]!	; 0x574
 14c:	726f633d 	rsbvc	r6, pc, #-201326592	; 0xf4000000
 150:	2d786574 	cfldr64cs	mvdx6, [r8, #-464]!	; 0xfffffe30
 154:	2d203961 	stccs	9, cr3, [r0, #-388]!	; 0xfffffe7c
 158:	6f6c666d 	svcvs	0x006c666d
 15c:	612d7461 	teqvs	sp, r1, ror #8
 160:	683d6962 	ldmdavs	sp!, {r1, r5, r6, r8, fp, sp, lr}
 164:	20647261 	rsbcs	r7, r4, r1, ror #4
 168:	70666d2d 	rsbvc	r6, r6, sp, lsr #26
 16c:	66763d75 			; <UNDEFINED> instruction: 0x66763d75
 170:	2d337670 	ldccs	6, cr7, [r3, #-448]!	; 0xfffffe40
 174:	20363164 	eorscs	r3, r6, r4, ror #2
 178:	68746d2d 	ldmdavs	r4!, {r0, r2, r3, r5, r8, sl, fp, sp, lr}^
 17c:	20626d75 	rsbcs	r6, r2, r5, ror sp
 180:	6c746d2d 	ldclvs	13, cr6, [r4], #-180	; 0xffffff4c
 184:	69642d73 	stmdbvs	r4!, {r0, r1, r4, r5, r6, r8, sl, fp, sp}^
 188:	63656c61 	cmnvs	r5, #24832	; 0x6100
 18c:	6e673d74 	mcrvs	13, 3, r3, cr7, cr4, {3}
 190:	672d2075 			; <UNDEFINED> instruction: 0x672d2075
 194:	20672d20 	rsbcs	r2, r7, r0, lsr #26
 198:	2d20672d 	stccs	7, cr6, [r0, #-180]!	; 0xffffff4c
 19c:	2d20324f 	sfmcs	f3, 4, [r0, #-316]!	; 0xfffffec4
 1a0:	2d20324f 	sfmcs	f3, 4, [r0, #-316]!	; 0xfffffec4
 1a4:	2d20324f 	sfmcs	f3, 4, [r0, #-316]!	; 0xfffffec4
 1a8:	69756266 	ldmdbvs	r5!, {r1, r2, r5, r6, r9, sp, lr}^
 1ac:	6e69646c 	cdpvs	4, 6, cr6, cr9, cr12, {3}
 1b0:	696c2d67 	stmdbvs	ip!, {r0, r1, r2, r5, r6, r8, sl, fp, sp}^
 1b4:	63636762 	cmnvs	r3, #25690112	; 0x1880000
 1b8:	6e662d20 	cdpvs	13, 6, cr2, cr6, cr0, {1}
 1bc:	74732d6f 	ldrbtvc	r2, [r3], #-3439	; 0xd6f
 1c0:	2d6b6361 	stclcs	3, cr6, [fp, #-388]!	; 0xfffffe7c
 1c4:	746f7270 	strbtvc	r7, [pc], #-624	; 1cc <shift+0x1cc>
 1c8:	6f746365 	svcvs	0x00746365
 1cc:	662d2072 			; <UNDEFINED> instruction: 0x662d2072
 1d0:	20434950 	subcs	r4, r3, r0, asr r9
 1d4:	6f6e662d 	svcvs	0x006e662d
 1d8:	6c6e692d 	stclvs	9, cr6, [lr], #-180	; 0xffffff4c
 1dc:	20656e69 	rsbcs	r6, r5, r9, ror #28
 1e0:	7865662d 	stmdavc	r5!, {r0, r2, r3, r5, r9, sl, sp, lr}^
 1e4:	74706563 	ldrbtvc	r6, [r0], #-1379	; 0x563
 1e8:	736e6f69 	cmnvc	lr, #420	; 0x1a4
 1ec:	76662d20 	strbtvc	r2, [r6], -r0, lsr #26
 1f0:	62697369 	rsbvs	r7, r9, #-1543503871	; 0xa4000001
 1f4:	74696c69 	strbtvc	r6, [r9], #-3177	; 0xc69
 1f8:	69683d79 	stmdbvs	r8!, {r0, r3, r4, r5, r6, r8, sl, fp, ip, sp}^
 1fc:	6e656464 	cdpvs	4, 6, cr6, cr5, cr4, {3}
 200:	49445500 	stmdbmi	r4, {r8, sl, ip, lr}^
 204:	65707974 	ldrbvs	r7, [r0, #-2420]!	; 0x974
 208:	6d6f6300 	stclvs	3, cr6, [pc, #-0]	; 210 <shift+0x210>
 20c:	78656c70 	stmdavc	r5!, {r4, r5, r6, sl, fp, sp, lr}^
 210:	6f6c6620 	svcvs	0x006c6620
 214:	73007461 	movwvc	r7, #1121	; 0x461
 218:	74657a69 	strbtvc	r7, [r5], #-2665	; 0xa69
 21c:	00657079 	rsbeq	r7, r5, r9, ror r0
 220:	676e6f6c 	strbvs	r6, [lr, -ip, ror #30]!
 224:	6e6f6c20 	cdpvs	12, 6, cr6, cr15, cr0, {1}
 228:	6e692067 	cdpvs	0, 6, cr2, cr9, cr7, {3}
 22c:	53550074 	cmppl	r5, #116	; 0x74
 230:	70797449 	rsbsvc	r7, r9, r9, asr #8
 234:	68730065 	ldmdavs	r3!, {r0, r2, r5, r6}^
 238:	2074726f 	rsbscs	r7, r4, pc, ror #4
 23c:	00746e69 	rsbseq	r6, r4, r9, ror #28
 240:	706d6f63 	rsbvc	r6, sp, r3, ror #30
 244:	2078656c 	rsbscs	r6, r8, ip, ror #10
 248:	62756f64 	rsbsvs	r6, r5, #100, 30	; 0x190
 24c:	2f00656c 	svccs	0x0000656c
 250:	656d6f68 	strbvs	r6, [sp, #-3944]!	; 0xf68
 254:	7763742f 	strbvc	r7, [r3, -pc, lsr #8]!
 258:	75622d67 	strbvc	r2, [r2, #-3431]!	; 0xd67
 25c:	73646c69 	cmnvc	r4, #26880	; 0x6900
 260:	6576616c 	ldrbvs	r6, [r6, #-364]!	; 0x16c
 264:	726f772f 	rsbvc	r7, pc, #12320768	; 0xbc0000
 268:	6170736b 	cmnvs	r0, fp, ror #6
 26c:	742f6563 	strtvc	r6, [pc], #-1379	; 274 <shift+0x274>
 270:	2d677763 	stclcs	7, cr7, [r7, #-396]!	; 0xfffffe74
 274:	656b616d 	strbvs	r6, [fp, #-365]!	; 0x16d
 278:	6c65722d 	sfmvs	f7, 2, [r5], #-180	; 0xffffff4c
 27c:	65736165 	ldrbvs	r6, [r3, #-357]!	; 0x165
 280:	62616c2f 	rsbvs	r6, r1, #12032	; 0x2f00
 284:	642f6c65 	strtvs	r6, [pc], #-3173	; 28c <shift+0x28c>
 288:	656b636f 	strbvs	r6, [fp, #-879]!	; 0x36f
 28c:	72742d72 	rsbsvc	r2, r4, #7296	; 0x1c80
 290:	79747375 	ldmdbvc	r4!, {r0, r2, r4, r5, r6, r8, r9, ip, sp, lr}^
 294:	646d612d 	strbtvs	r6, [sp], #-301	; 0x12d
 298:	742d3436 	strtvc	r3, [sp], #-1078	; 0x436
 29c:	2d677763 	stclcs	7, cr7, [r7, #-396]!	; 0xfffffe74
 2a0:	6c697562 	cfstr64vs	mvdx7, [r9], #-392	; 0xfffffe78
 2a4:	61742f64 	cmnvs	r4, r4, ror #30
 2a8:	74656772 	strbtvc	r6, [r5], #-1906	; 0x772
 2ac:	6d72612f 	ldfvse	f6, [r2, #-188]!	; 0xffffff44
 2b0:	6e696c2d 	cdpvs	12, 6, cr6, cr9, cr13, {1}
 2b4:	672d7875 			; <UNDEFINED> instruction: 0x672d7875
 2b8:	6165756e 	cmnvs	r5, lr, ror #10
 2bc:	66686962 	strbtvs	r6, [r8], -r2, ror #18
 2c0:	616e732f 	cmnvs	lr, pc, lsr #6
 2c4:	6f687370 	svcvs	0x00687370
 2c8:	672f7374 			; <UNDEFINED> instruction: 0x672f7374
 2cc:	6c2d6363 	stcvs	3, cr6, [sp], #-396	; 0xfffffe74
 2d0:	72616e69 	rsbvc	r6, r1, #1680	; 0x690
 2d4:	2e342d6f 	cdpcs	13, 3, cr2, cr4, cr15, {3}
 2d8:	30322d39 	eorscc	r2, r2, r9, lsr sp
 2dc:	302e3731 	eorcc	r3, lr, r1, lsr r7
 2e0:	696c2f31 	stmdbvs	ip!, {r0, r4, r5, r8, r9, sl, fp, sp}^
 2e4:	63636762 	cmnvs	r3, #25690112	; 0x1880000
 2e8:	62696c2f 	rsbvs	r6, r9, #12032	; 0x2f00
 2ec:	32636367 	rsbcc	r6, r3, #-1677721599	; 0x9c000001
 2f0:	地址 0x00000000000002f0 越界。

